

Microchip MPLAB XC8 Assembler V2.31 build 20201012212115 
                                                                                               Thu Nov 11 10:34:35 2021

Microchip MPLAB XC8 C Compiler v2.31 (Free license) build 20201012212115 Og1 
     1                           	processor	16F1827
     2                           	pagewidth 120
     3                           	opt	flic
     4                           	psect	nvCOMMON,global,class=COMMON,space=1,delta=1,noexec
     5                           	psect	cinit,global,class=CODE,merge=1,delta=2
     6                           	psect	cstackCOMMON,global,class=COMMON,space=1,delta=1,noexec
     7                           	psect	cstackBANK0,global,class=BANK0,space=1,delta=1,noexec
     8                           	psect	maintext,global,class=CODE,merge=1,split=1,delta=2
     9                           	psect	text1,local,class=CODE,merge=1,delta=2
    10                           	psect	text2,local,class=CODE,merge=1,delta=2
    11                           	psect	text3,local,class=CODE,merge=1,delta=2
    12                           	psect	text4,local,class=CODE,merge=1,delta=2
    13                           	psect	text5,local,class=CODE,merge=1,delta=2
    14                           	psect	text6,local,class=CODE,merge=1,delta=2
    15                           	psect	intentry,global,class=CODE,delta=2
    16                           	psect	text8,local,class=CODE,merge=1,delta=2
    17                           	psect	text9,local,class=CODE,merge=1,delta=2
    18                           	psect	text10,local,class=CODE,merge=1,delta=2
    19                           	psect	text11,local,class=CODE,merge=1,delta=2
    20                           	psect	text12,local,class=CODE,merge=1,delta=2
    21                           	psect	text13,local,class=CODE,merge=1,delta=2
    22                           	psect	text14,local,class=CODE,merge=1,delta=2
    23                           	psect	config,global,abs,ovrld,class=CONFIG,space=4,delta=2,noexec
    24                           	dabs	1,0x7E,2
    25  0000                     
    26                           ; Version 2.20
    27                           ; Generated 12/02/2020 GMT
    28                           ; 
    29                           ; Copyright © 2020, Microchip Technology Inc. and its subsidiaries ("Microchip")
    30                           ; All rights reserved.
    31                           ; 
    32                           ; This software is developed by Microchip Technology Inc. and its subsidiaries ("Microch
      +                          ip").
    33                           ; 
    34                           ; Redistribution and use in source and binary forms, with or without modification, are
    35                           ; permitted provided that the following conditions are met:
    36                           ; 
    37                           ;     1. Redistributions of source code must retain the above copyright notice, this lis
      +                          t of
    38                           ;        conditions and the following disclaimer.
    39                           ; 
    40                           ;     2. Redistributions in binary form must reproduce the above copyright notice, this 
      +                          list
    41                           ;        of conditions and the following disclaimer in the documentation and/or other
    42                           ;        materials provided with the distribution.
    43                           ; 
    44                           ;     3. Microchip's name may not be used to endorse or promote products derived from th
      +                          is
    45                           ;        software without specific prior written permission.
    46                           ; 
    47                           ; THIS SOFTWARE IS PROVIDED BY MICROCHIP "AS IS" AND ANY EXPRESS OR IMPLIED WARRANTIES,
    48                           ; INCLUDING, BUT NOT LIMITED TO, THE IMPLIED WARRANTIES OF MERCHANTABILITY AND FITNESS F
      +                          OR
    49                           ; PURPOSE ARE DISCLAIMED.  IN NO EVENT SHALL MICROCHIP BE LIABLE FOR ANY DIRECT, INDIREC
      +                          T,
    50                           ; INCIDENTAL, SPECIAL, EXEMPLARY, OR CONSEQUENTIAL DAMAGES (INCLUDING BUT NOT LIMITED TO
    51                           ; PROCUREMENT OF SUBSTITUTE GOODS OR SERVICES; LOSS OF USE, DATA OR PROFITS; OR BUSINESS
    52                           ; INTERRUPTION) HOWSOEVER CAUSED AND ON ANY THEORY OF LIABILITY, WHETHER IN CONTRACT, ST
      +                          RICT
    53                           ; LIABILITY, OR TORT (INCLUDING NEGLIGENCE OR OTHERWISE) ARISING IN ANY WAY OUT OF THE U
      +                          SE OF
    54                           ; THIS SOFTWARE, EVEN IF ADVISED OF THE POSSIBILITY OF SUCH DAMAGE.
    55                           ; 
    56                           ; 
    57                           ; Code-generator required, PIC16F1827 Definitions
    58                           ; 
    59                           ; SFR Addresses
    60  0000                     	;# 
    61  0001                     	;# 
    62  0002                     	;# 
    63  0003                     	;# 
    64  0004                     	;# 
    65  0005                     	;# 
    66  0006                     	;# 
    67  0007                     	;# 
    68  0008                     	;# 
    69  0009                     	;# 
    70  000A                     	;# 
    71  000B                     	;# 
    72  000C                     	;# 
    73  000D                     	;# 
    74  0011                     	;# 
    75  0012                     	;# 
    76  0013                     	;# 
    77  0014                     	;# 
    78  0015                     	;# 
    79  0016                     	;# 
    80  0016                     	;# 
    81  0017                     	;# 
    82  0018                     	;# 
    83  0019                     	;# 
    84  001A                     	;# 
    85  001B                     	;# 
    86  001C                     	;# 
    87  001E                     	;# 
    88  001F                     	;# 
    89  008C                     	;# 
    90  008D                     	;# 
    91  0091                     	;# 
    92  0092                     	;# 
    93  0093                     	;# 
    94  0094                     	;# 
    95  0095                     	;# 
    96  0096                     	;# 
    97  0097                     	;# 
    98  0098                     	;# 
    99  0099                     	;# 
   100  009A                     	;# 
   101  009B                     	;# 
   102  009B                     	;# 
   103  009C                     	;# 
   104  009D                     	;# 
   105  009E                     	;# 
   106  010C                     	;# 
   107  010D                     	;# 
   108  0111                     	;# 
   109  0112                     	;# 
   110  0113                     	;# 
   111  0114                     	;# 
   112  0115                     	;# 
   113  0116                     	;# 
   114  0117                     	;# 
   115  0118                     	;# 
   116  0119                     	;# 
   117  011A                     	;# 
   118  011B                     	;# 
   119  011D                     	;# 
   120  011E                     	;# 
   121  018C                     	;# 
   122  018D                     	;# 
   123  0191                     	;# 
   124  0191                     	;# 
   125  0192                     	;# 
   126  0193                     	;# 
   127  0193                     	;# 
   128  0193                     	;# 
   129  0194                     	;# 
   130  0195                     	;# 
   131  0196                     	;# 
   132  0199                     	;# 
   133  019A                     	;# 
   134  019B                     	;# 
   135  019B                     	;# 
   136  019B                     	;# 
   137  019B                     	;# 
   138  019C                     	;# 
   139  019C                     	;# 
   140  019D                     	;# 
   141  019E                     	;# 
   142  019F                     	;# 
   143  020C                     	;# 
   144  020D                     	;# 
   145  0211                     	;# 
   146  0211                     	;# 
   147  0212                     	;# 
   148  0212                     	;# 
   149  0213                     	;# 
   150  0213                     	;# 
   151  0214                     	;# 
   152  0214                     	;# 
   153  0215                     	;# 
   154  0215                     	;# 
   155  0215                     	;# 
   156  0216                     	;# 
   157  0216                     	;# 
   158  0217                     	;# 
   159  0217                     	;# 
   160  0219                     	;# 
   161  021A                     	;# 
   162  021B                     	;# 
   163  021C                     	;# 
   164  021D                     	;# 
   165  021E                     	;# 
   166  021F                     	;# 
   167  0291                     	;# 
   168  0291                     	;# 
   169  0292                     	;# 
   170  0293                     	;# 
   171  0294                     	;# 
   172  0295                     	;# 
   173  0295                     	;# 
   174  0296                     	;# 
   175  0298                     	;# 
   176  0298                     	;# 
   177  0299                     	;# 
   178  029A                     	;# 
   179  029B                     	;# 
   180  029C                     	;# 
   181  029C                     	;# 
   182  029D                     	;# 
   183  029E                     	;# 
   184  029E                     	;# 
   185  0311                     	;# 
   186  0311                     	;# 
   187  0312                     	;# 
   188  0313                     	;# 
   189  0318                     	;# 
   190  0318                     	;# 
   191  0319                     	;# 
   192  031A                     	;# 
   193  0394                     	;# 
   194  0395                     	;# 
   195  0396                     	;# 
   196  039A                     	;# 
   197  039C                     	;# 
   198  039D                     	;# 
   199  039E                     	;# 
   200  039F                     	;# 
   201  0415                     	;# 
   202  0416                     	;# 
   203  0417                     	;# 
   204  041C                     	;# 
   205  041D                     	;# 
   206  041E                     	;# 
   207  0FE4                     	;# 
   208  0FE5                     	;# 
   209  0FE6                     	;# 
   210  0FE7                     	;# 
   211  0FE8                     	;# 
   212  0FE9                     	;# 
   213  0FEA                     	;# 
   214  0FEB                     	;# 
   215  0FED                     	;# 
   216  0FEE                     	;# 
   217  0FEF                     	;# 
   218  0000                     	;# 
   219  0001                     	;# 
   220  0002                     	;# 
   221  0003                     	;# 
   222  0004                     	;# 
   223  0005                     	;# 
   224  0006                     	;# 
   225  0007                     	;# 
   226  0008                     	;# 
   227  0009                     	;# 
   228  000A                     	;# 
   229  000B                     	;# 
   230  000C                     	;# 
   231  000D                     	;# 
   232  0011                     	;# 
   233  0012                     	;# 
   234  0013                     	;# 
   235  0014                     	;# 
   236  0015                     	;# 
   237  0016                     	;# 
   238  0016                     	;# 
   239  0017                     	;# 
   240  0018                     	;# 
   241  0019                     	;# 
   242  001A                     	;# 
   243  001B                     	;# 
   244  001C                     	;# 
   245  001E                     	;# 
   246  001F                     	;# 
   247  008C                     	;# 
   248  008D                     	;# 
   249  0091                     	;# 
   250  0092                     	;# 
   251  0093                     	;# 
   252  0094                     	;# 
   253  0095                     	;# 
   254  0096                     	;# 
   255  0097                     	;# 
   256  0098                     	;# 
   257  0099                     	;# 
   258  009A                     	;# 
   259  009B                     	;# 
   260  009B                     	;# 
   261  009C                     	;# 
   262  009D                     	;# 
   263  009E                     	;# 
   264  010C                     	;# 
   265  010D                     	;# 
   266  0111                     	;# 
   267  0112                     	;# 
   268  0113                     	;# 
   269  0114                     	;# 
   270  0115                     	;# 
   271  0116                     	;# 
   272  0117                     	;# 
   273  0118                     	;# 
   274  0119                     	;# 
   275  011A                     	;# 
   276  011B                     	;# 
   277  011D                     	;# 
   278  011E                     	;# 
   279  018C                     	;# 
   280  018D                     	;# 
   281  0191                     	;# 
   282  0191                     	;# 
   283  0192                     	;# 
   284  0193                     	;# 
   285  0193                     	;# 
   286  0193                     	;# 
   287  0194                     	;# 
   288  0195                     	;# 
   289  0196                     	;# 
   290  0199                     	;# 
   291  019A                     	;# 
   292  019B                     	;# 
   293  019B                     	;# 
   294  019B                     	;# 
   295  019B                     	;# 
   296  019C                     	;# 
   297  019C                     	;# 
   298  019D                     	;# 
   299  019E                     	;# 
   300  019F                     	;# 
   301  020C                     	;# 
   302  020D                     	;# 
   303  0211                     	;# 
   304  0211                     	;# 
   305  0212                     	;# 
   306  0212                     	;# 
   307  0213                     	;# 
   308  0213                     	;# 
   309  0214                     	;# 
   310  0214                     	;# 
   311  0215                     	;# 
   312  0215                     	;# 
   313  0215                     	;# 
   314  0216                     	;# 
   315  0216                     	;# 
   316  0217                     	;# 
   317  0217                     	;# 
   318  0219                     	;# 
   319  021A                     	;# 
   320  021B                     	;# 
   321  021C                     	;# 
   322  021D                     	;# 
   323  021E                     	;# 
   324  021F                     	;# 
   325  0291                     	;# 
   326  0291                     	;# 
   327  0292                     	;# 
   328  0293                     	;# 
   329  0294                     	;# 
   330  0295                     	;# 
   331  0295                     	;# 
   332  0296                     	;# 
   333  0298                     	;# 
   334  0298                     	;# 
   335  0299                     	;# 
   336  029A                     	;# 
   337  029B                     	;# 
   338  029C                     	;# 
   339  029C                     	;# 
   340  029D                     	;# 
   341  029E                     	;# 
   342  029E                     	;# 
   343  0311                     	;# 
   344  0311                     	;# 
   345  0312                     	;# 
   346  0313                     	;# 
   347  0318                     	;# 
   348  0318                     	;# 
   349  0319                     	;# 
   350  031A                     	;# 
   351  0394                     	;# 
   352  0395                     	;# 
   353  0396                     	;# 
   354  039A                     	;# 
   355  039C                     	;# 
   356  039D                     	;# 
   357  039E                     	;# 
   358  039F                     	;# 
   359  0415                     	;# 
   360  0416                     	;# 
   361  0417                     	;# 
   362  041C                     	;# 
   363  041D                     	;# 
   364  041E                     	;# 
   365  0FE4                     	;# 
   366  0FE5                     	;# 
   367  0FE6                     	;# 
   368  0FE7                     	;# 
   369  0FE8                     	;# 
   370  0FE9                     	;# 
   371  0FEA                     	;# 
   372  0FEB                     	;# 
   373  0FED                     	;# 
   374  0FEE                     	;# 
   375  0FEF                     	;# 
   376  0000                     	;# 
   377  0001                     	;# 
   378  0002                     	;# 
   379  0003                     	;# 
   380  0004                     	;# 
   381  0005                     	;# 
   382  0006                     	;# 
   383  0007                     	;# 
   384  0008                     	;# 
   385  0009                     	;# 
   386  000A                     	;# 
   387  000B                     	;# 
   388  000C                     	;# 
   389  000D                     	;# 
   390  0011                     	;# 
   391  0012                     	;# 
   392  0013                     	;# 
   393  0014                     	;# 
   394  0015                     	;# 
   395  0016                     	;# 
   396  0016                     	;# 
   397  0017                     	;# 
   398  0018                     	;# 
   399  0019                     	;# 
   400  001A                     	;# 
   401  001B                     	;# 
   402  001C                     	;# 
   403  001E                     	;# 
   404  001F                     	;# 
   405  008C                     	;# 
   406  008D                     	;# 
   407  0091                     	;# 
   408  0092                     	;# 
   409  0093                     	;# 
   410  0094                     	;# 
   411  0095                     	;# 
   412  0096                     	;# 
   413  0097                     	;# 
   414  0098                     	;# 
   415  0099                     	;# 
   416  009A                     	;# 
   417  009B                     	;# 
   418  009B                     	;# 
   419  009C                     	;# 
   420  009D                     	;# 
   421  009E                     	;# 
   422  010C                     	;# 
   423  010D                     	;# 
   424  0111                     	;# 
   425  0112                     	;# 
   426  0113                     	;# 
   427  0114                     	;# 
   428  0115                     	;# 
   429  0116                     	;# 
   430  0117                     	;# 
   431  0118                     	;# 
   432  0119                     	;# 
   433  011A                     	;# 
   434  011B                     	;# 
   435  011D                     	;# 
   436  011E                     	;# 
   437  018C                     	;# 
   438  018D                     	;# 
   439  0191                     	;# 
   440  0191                     	;# 
   441  0192                     	;# 
   442  0193                     	;# 
   443  0193                     	;# 
   444  0193                     	;# 
   445  0194                     	;# 
   446  0195                     	;# 
   447  0196                     	;# 
   448  0199                     	;# 
   449  019A                     	;# 
   450  019B                     	;# 
   451  019B                     	;# 
   452  019B                     	;# 
   453  019B                     	;# 
   454  019C                     	;# 
   455  019C                     	;# 
   456  019D                     	;# 
   457  019E                     	;# 
   458  019F                     	;# 
   459  020C                     	;# 
   460  020D                     	;# 
   461  0211                     	;# 
   462  0211                     	;# 
   463  0212                     	;# 
   464  0212                     	;# 
   465  0213                     	;# 
   466  0213                     	;# 
   467  0214                     	;# 
   468  0214                     	;# 
   469  0215                     	;# 
   470  0215                     	;# 
   471  0215                     	;# 
   472  0216                     	;# 
   473  0216                     	;# 
   474  0217                     	;# 
   475  0217                     	;# 
   476  0219                     	;# 
   477  021A                     	;# 
   478  021B                     	;# 
   479  021C                     	;# 
   480  021D                     	;# 
   481  021E                     	;# 
   482  021F                     	;# 
   483  0291                     	;# 
   484  0291                     	;# 
   485  0292                     	;# 
   486  0293                     	;# 
   487  0294                     	;# 
   488  0295                     	;# 
   489  0295                     	;# 
   490  0296                     	;# 
   491  0298                     	;# 
   492  0298                     	;# 
   493  0299                     	;# 
   494  029A                     	;# 
   495  029B                     	;# 
   496  029C                     	;# 
   497  029C                     	;# 
   498  029D                     	;# 
   499  029E                     	;# 
   500  029E                     	;# 
   501  0311                     	;# 
   502  0311                     	;# 
   503  0312                     	;# 
   504  0313                     	;# 
   505  0318                     	;# 
   506  0318                     	;# 
   507  0319                     	;# 
   508  031A                     	;# 
   509  0394                     	;# 
   510  0395                     	;# 
   511  0396                     	;# 
   512  039A                     	;# 
   513  039C                     	;# 
   514  039D                     	;# 
   515  039E                     	;# 
   516  039F                     	;# 
   517  0415                     	;# 
   518  0416                     	;# 
   519  0417                     	;# 
   520  041C                     	;# 
   521  041D                     	;# 
   522  041E                     	;# 
   523  0FE4                     	;# 
   524  0FE5                     	;# 
   525  0FE6                     	;# 
   526  0FE7                     	;# 
   527  0FE8                     	;# 
   528  0FE9                     	;# 
   529  0FEA                     	;# 
   530  0FEB                     	;# 
   531  0FED                     	;# 
   532  0FEE                     	;# 
   533  0FEF                     	;# 
   534  0000                     	;# 
   535  0001                     	;# 
   536  0002                     	;# 
   537  0003                     	;# 
   538  0004                     	;# 
   539  0005                     	;# 
   540  0006                     	;# 
   541  0007                     	;# 
   542  0008                     	;# 
   543  0009                     	;# 
   544  000A                     	;# 
   545  000B                     	;# 
   546  000C                     	;# 
   547  000D                     	;# 
   548  0011                     	;# 
   549  0012                     	;# 
   550  0013                     	;# 
   551  0014                     	;# 
   552  0015                     	;# 
   553  0016                     	;# 
   554  0016                     	;# 
   555  0017                     	;# 
   556  0018                     	;# 
   557  0019                     	;# 
   558  001A                     	;# 
   559  001B                     	;# 
   560  001C                     	;# 
   561  001E                     	;# 
   562  001F                     	;# 
   563  008C                     	;# 
   564  008D                     	;# 
   565  0091                     	;# 
   566  0092                     	;# 
   567  0093                     	;# 
   568  0094                     	;# 
   569  0095                     	;# 
   570  0096                     	;# 
   571  0097                     	;# 
   572  0098                     	;# 
   573  0099                     	;# 
   574  009A                     	;# 
   575  009B                     	;# 
   576  009B                     	;# 
   577  009C                     	;# 
   578  009D                     	;# 
   579  009E                     	;# 
   580  010C                     	;# 
   581  010D                     	;# 
   582  0111                     	;# 
   583  0112                     	;# 
   584  0113                     	;# 
   585  0114                     	;# 
   586  0115                     	;# 
   587  0116                     	;# 
   588  0117                     	;# 
   589  0118                     	;# 
   590  0119                     	;# 
   591  011A                     	;# 
   592  011B                     	;# 
   593  011D                     	;# 
   594  011E                     	;# 
   595  018C                     	;# 
   596  018D                     	;# 
   597  0191                     	;# 
   598  0191                     	;# 
   599  0192                     	;# 
   600  0193                     	;# 
   601  0193                     	;# 
   602  0193                     	;# 
   603  0194                     	;# 
   604  0195                     	;# 
   605  0196                     	;# 
   606  0199                     	;# 
   607  019A                     	;# 
   608  019B                     	;# 
   609  019B                     	;# 
   610  019B                     	;# 
   611  019B                     	;# 
   612  019C                     	;# 
   613  019C                     	;# 
   614  019D                     	;# 
   615  019E                     	;# 
   616  019F                     	;# 
   617  020C                     	;# 
   618  020D                     	;# 
   619  0211                     	;# 
   620  0211                     	;# 
   621  0212                     	;# 
   622  0212                     	;# 
   623  0213                     	;# 
   624  0213                     	;# 
   625  0214                     	;# 
   626  0214                     	;# 
   627  0215                     	;# 
   628  0215                     	;# 
   629  0215                     	;# 
   630  0216                     	;# 
   631  0216                     	;# 
   632  0217                     	;# 
   633  0217                     	;# 
   634  0219                     	;# 
   635  021A                     	;# 
   636  021B                     	;# 
   637  021C                     	;# 
   638  021D                     	;# 
   639  021E                     	;# 
   640  021F                     	;# 
   641  0291                     	;# 
   642  0291                     	;# 
   643  0292                     	;# 
   644  0293                     	;# 
   645  0294                     	;# 
   646  0295                     	;# 
   647  0295                     	;# 
   648  0296                     	;# 
   649  0298                     	;# 
   650  0298                     	;# 
   651  0299                     	;# 
   652  029A                     	;# 
   653  029B                     	;# 
   654  029C                     	;# 
   655  029C                     	;# 
   656  029D                     	;# 
   657  029E                     	;# 
   658  029E                     	;# 
   659  0311                     	;# 
   660  0311                     	;# 
   661  0312                     	;# 
   662  0313                     	;# 
   663  0318                     	;# 
   664  0318                     	;# 
   665  0319                     	;# 
   666  031A                     	;# 
   667  0394                     	;# 
   668  0395                     	;# 
   669  0396                     	;# 
   670  039A                     	;# 
   671  039C                     	;# 
   672  039D                     	;# 
   673  039E                     	;# 
   674  039F                     	;# 
   675  0415                     	;# 
   676  0416                     	;# 
   677  0417                     	;# 
   678  041C                     	;# 
   679  041D                     	;# 
   680  041E                     	;# 
   681  0FE4                     	;# 
   682  0FE5                     	;# 
   683  0FE6                     	;# 
   684  0FE7                     	;# 
   685  0FE8                     	;# 
   686  0FE9                     	;# 
   687  0FEA                     	;# 
   688  0FEB                     	;# 
   689  0FED                     	;# 
   690  0FEE                     	;# 
   691  0FEF                     	;# 
   692  0000                     	;# 
   693  0001                     	;# 
   694  0002                     	;# 
   695  0003                     	;# 
   696  0004                     	;# 
   697  0005                     	;# 
   698  0006                     	;# 
   699  0007                     	;# 
   700  0008                     	;# 
   701  0009                     	;# 
   702  000A                     	;# 
   703  000B                     	;# 
   704  000C                     	;# 
   705  000D                     	;# 
   706  0011                     	;# 
   707  0012                     	;# 
   708  0013                     	;# 
   709  0014                     	;# 
   710  0015                     	;# 
   711  0016                     	;# 
   712  0016                     	;# 
   713  0017                     	;# 
   714  0018                     	;# 
   715  0019                     	;# 
   716  001A                     	;# 
   717  001B                     	;# 
   718  001C                     	;# 
   719  001E                     	;# 
   720  001F                     	;# 
   721  008C                     	;# 
   722  008D                     	;# 
   723  0091                     	;# 
   724  0092                     	;# 
   725  0093                     	;# 
   726  0094                     	;# 
   727  0095                     	;# 
   728  0096                     	;# 
   729  0097                     	;# 
   730  0098                     	;# 
   731  0099                     	;# 
   732  009A                     	;# 
   733  009B                     	;# 
   734  009B                     	;# 
   735  009C                     	;# 
   736  009D                     	;# 
   737  009E                     	;# 
   738  010C                     	;# 
   739  010D                     	;# 
   740  0111                     	;# 
   741  0112                     	;# 
   742  0113                     	;# 
   743  0114                     	;# 
   744  0115                     	;# 
   745  0116                     	;# 
   746  0117                     	;# 
   747  0118                     	;# 
   748  0119                     	;# 
   749  011A                     	;# 
   750  011B                     	;# 
   751  011D                     	;# 
   752  011E                     	;# 
   753  018C                     	;# 
   754  018D                     	;# 
   755  0191                     	;# 
   756  0191                     	;# 
   757  0192                     	;# 
   758  0193                     	;# 
   759  0193                     	;# 
   760  0193                     	;# 
   761  0194                     	;# 
   762  0195                     	;# 
   763  0196                     	;# 
   764  0199                     	;# 
   765  019A                     	;# 
   766  019B                     	;# 
   767  019B                     	;# 
   768  019B                     	;# 
   769  019B                     	;# 
   770  019C                     	;# 
   771  019C                     	;# 
   772  019D                     	;# 
   773  019E                     	;# 
   774  019F                     	;# 
   775  020C                     	;# 
   776  020D                     	;# 
   777  0211                     	;# 
   778  0211                     	;# 
   779  0212                     	;# 
   780  0212                     	;# 
   781  0213                     	;# 
   782  0213                     	;# 
   783  0214                     	;# 
   784  0214                     	;# 
   785  0215                     	;# 
   786  0215                     	;# 
   787  0215                     	;# 
   788  0216                     	;# 
   789  0216                     	;# 
   790  0217                     	;# 
   791  0217                     	;# 
   792  0219                     	;# 
   793  021A                     	;# 
   794  021B                     	;# 
   795  021C                     	;# 
   796  021D                     	;# 
   797  021E                     	;# 
   798  021F                     	;# 
   799  0291                     	;# 
   800  0291                     	;# 
   801  0292                     	;# 
   802  0293                     	;# 
   803  0294                     	;# 
   804  0295                     	;# 
   805  0295                     	;# 
   806  0296                     	;# 
   807  0298                     	;# 
   808  0298                     	;# 
   809  0299                     	;# 
   810  029A                     	;# 
   811  029B                     	;# 
   812  029C                     	;# 
   813  029C                     	;# 
   814  029D                     	;# 
   815  029E                     	;# 
   816  029E                     	;# 
   817  0311                     	;# 
   818  0311                     	;# 
   819  0312                     	;# 
   820  0313                     	;# 
   821  0318                     	;# 
   822  0318                     	;# 
   823  0319                     	;# 
   824  031A                     	;# 
   825  0394                     	;# 
   826  0395                     	;# 
   827  0396                     	;# 
   828  039A                     	;# 
   829  039C                     	;# 
   830  039D                     	;# 
   831  039E                     	;# 
   832  039F                     	;# 
   833  0415                     	;# 
   834  0416                     	;# 
   835  0417                     	;# 
   836  041C                     	;# 
   837  041D                     	;# 
   838  041E                     	;# 
   839  0FE4                     	;# 
   840  0FE5                     	;# 
   841  0FE6                     	;# 
   842  0FE7                     	;# 
   843  0FE8                     	;# 
   844  0FE9                     	;# 
   845  0FEA                     	;# 
   846  0FEB                     	;# 
   847  0FED                     	;# 
   848  0FEE                     	;# 
   849  0FEF                     	;# 
   850                           
   851                           	psect	nvCOMMON
   852  0077                     __pnvCOMMON:
   853  0077                     _IOCBF1_InterruptHandler:
   854  0077                     	ds	2
   855  0079                     _IOCBF0_InterruptHandler:
   856  0079                     	ds	2
   857  000D                     _PORTB	set	13
   858  000B                     _INTCONbits	set	11
   859  0097                     _WDTCON	set	151
   860  0098                     _OSCTUNE	set	152
   861  0099                     _OSCCON	set	153
   862  0095                     _OPTION_REGbits	set	149
   863  008D                     _TRISB	set	141
   864  008C                     _TRISA	set	140
   865  0116                     _BORCON	set	278
   866  011E                     _APFCON1	set	286
   867  011D                     _APFCON0	set	285
   868  010D                     _LATB	set	269
   869  010C                     _LATA	set	268
   870  018C                     _ANSELA	set	396
   871  018D                     _ANSELB	set	397
   872  020C                     _WPUA	set	524
   873  020D                     _WPUB	set	525
   874  0394                     _IOCBPbits	set	916
   875  0395                     _IOCBNbits	set	917
   876  0396                     _IOCBFbits	set	918
   877                           
   878                           	psect	cinit
   879  0015                     start_initialization:	
   880                           ; #config settings
   881                           
   882  0015                     __initialization:
   883  0015                     end_of_initialization:	
   884                           ;End of C runtime variable initialization code
   885                           
   886  0015                     __end_of__initialization:
   887  0015  107E               	bcf	int$flags,0	;clear compiler interrupt flag (level 1)
   888  0016  0020               	movlb	0
   889  0017  3181  2910         	ljmp	_main	;jump to C main() function
   890                           
   891                           	psect	cstackCOMMON
   892  0070                     __pcstackCOMMON:
   893  0070                     ?_PIN_MANAGER_IOC:
   894  0070                     ?_IOCBF0_DefaultInterruptHandler:	
   895                           ; 1 bytes @ 0x0
   896                           
   897  0070                     ??_IOCBF0_DefaultInterruptHandler:	
   898                           ; 1 bytes @ 0x0
   899                           
   900  0070                     ?_IOCBF1_DefaultInterruptHandler:	
   901                           ; 1 bytes @ 0x0
   902                           
   903  0070                     ??_IOCBF1_DefaultInterruptHandler:	
   904                           ; 1 bytes @ 0x0
   905                           
   906  0070                     ?_IOCBF0_ISR:	
   907                           ; 1 bytes @ 0x0
   908                           
   909  0070                     ?_IOCBF1_ISR:	
   910                           ; 1 bytes @ 0x0
   911                           
   912  0070                     ?_OSCILLATOR_Initialize:	
   913                           ; 1 bytes @ 0x0
   914                           
   915  0070                     ?_WDT_Initialize:	
   916                           ; 1 bytes @ 0x0
   917                           
   918  0070                     ?_INTERRUPT_InterruptManager:	
   919                           ; 1 bytes @ 0x0
   920                           
   921  0070                     ?_LampSfas:	
   922                           ; 1 bytes @ 0x0
   923                           
   924  0070                     ??_LampSfas:	
   925                           ; 1 bytes @ 0x0
   926                           
   927  0070                     ?_Supercar:	
   928                           ; 1 bytes @ 0x0
   929                           
   930  0070                     ??_Supercar:	
   931                           ; 1 bytes @ 0x0
   932                           
   933  0070                     ?_PIN_MANAGER_Initialize:	
   934                           ; 1 bytes @ 0x0
   935                           
   936  0070                     ?_SYSTEM_Initialize:	
   937                           ; 1 bytes @ 0x0
   938                           
   939  0070                     ?_main:	
   940                           ; 1 bytes @ 0x0
   941                           
   942                           
   943                           ; 1 bytes @ 0x0
   944  0070                     	ds	1
   945  0071                     ??_IOCBF1_ISR:
   946                           
   947                           ; 1 bytes @ 0x1
   948  0071                     	ds	1
   949  0072                     Supercar@i:
   950  0072                     IOCBF1_ISR@i:	
   951                           ; 2 bytes @ 0x2
   952                           
   953                           
   954                           ; 2 bytes @ 0x2
   955  0072                     	ds	2
   956  0074                     ??_IOCBF0_ISR:
   957                           
   958                           ; 1 bytes @ 0x4
   959  0074                     	ds	1
   960  0075                     IOCBF0_ISR@i:
   961                           
   962                           ; 2 bytes @ 0x5
   963  0075                     	ds	2
   964  0077                     ??_PIN_MANAGER_IOC:
   965  0077                     ??_INTERRUPT_InterruptManager:	
   966                           ; 1 bytes @ 0x7
   967                           
   968                           
   969                           	psect	cstackBANK0
   970  0020                     __pcstackBANK0:	
   971                           ; 1 bytes @ 0x7
   972                           
   973  0020                     ?_IOCBF0_SetInterruptHandler:
   974  0020                     ?_IOCBF1_SetInterruptHandler:	
   975                           ; 1 bytes @ 0x0
   976                           
   977  0020                     ??_OSCILLATOR_Initialize:	
   978                           ; 1 bytes @ 0x0
   979                           
   980  0020                     ??_WDT_Initialize:	
   981                           ; 1 bytes @ 0x0
   982                           
   983  0020                     IOCBF0_SetInterruptHandler@InterruptHandler:	
   984                           ; 1 bytes @ 0x0
   985                           
   986  0020                     IOCBF1_SetInterruptHandler@InterruptHandler:	
   987                           ; 2 bytes @ 0x0
   988                           
   989                           
   990                           ; 2 bytes @ 0x0
   991  0020                     	ds	2
   992  0022                     ??_IOCBF0_SetInterruptHandler:
   993  0022                     ??_IOCBF1_SetInterruptHandler:	
   994                           ; 1 bytes @ 0x2
   995                           
   996  0022                     ??_PIN_MANAGER_Initialize:	
   997                           ; 1 bytes @ 0x2
   998                           
   999  0022                     ??_SYSTEM_Initialize:	
  1000                           ; 1 bytes @ 0x2
  1001                           
  1002  0022                     ??_main:	
  1003                           ; 1 bytes @ 0x2
  1004                           
  1005                           
  1006                           	psect	maintext
  1007  0110                     __pmaintext:	
  1008                           ; 1 bytes @ 0x2
  1009 ;;
  1010 ;;Main: autosize = 0, tempsize = 0, incstack = 0, save=0
  1011 ;;
  1012 ;; *************** function _main *****************
  1013 ;; Defined at:
  1014 ;;		line 16 in file "main.c"
  1015 ;; Parameters:    Size  Location     Type
  1016 ;;		None
  1017 ;; Auto vars:     Size  Location     Type
  1018 ;;		None
  1019 ;; Return value:  Size  Location     Type
  1020 ;;                  1    wreg      void 
  1021 ;; Registers used:
  1022 ;;		wreg, status,2, status,0, pclath, cstack
  1023 ;; Tracked objects:
  1024 ;;		On entry : B1F/0
  1025 ;;		On exit  : 0/0
  1026 ;;		Unchanged: 0/0
  1027 ;; Data sizes:     COMMON   BANK0   BANK1   BANK2   BANK3   BANK4
  1028 ;;      Params:         0       0       0       0       0       0
  1029 ;;      Locals:         0       0       0       0       0       0
  1030 ;;      Temps:          0       0       0       0       0       0
  1031 ;;      Totals:         0       0       0       0       0       0
  1032 ;;Total ram usage:        0 bytes
  1033 ;; Hardware stack levels required when called:    7
  1034 ;; This function calls:
  1035 ;;		_SYSTEM_Initialize
  1036 ;; This function is called by:
  1037 ;;		Startup code after reset
  1038 ;; This function uses a non-reentrant model
  1039 ;;
  1040                           
  1041                           
  1042                           ;psect for function _main
  1043  0110                     _main:
  1044  0110                     l980:	
  1045                           ;incstack = 0
  1046                           ; Regs used in _main: [wreg+status,2+status,0+pclath+cstack]
  1047                           
  1048                           
  1049                           ;main.c: 19:     SYSTEM_Initialize();
  1050  0110  3181  2106  3181   	fcall	_SYSTEM_Initialize
  1051  0113                     l982:
  1052                           
  1053                           ;main.c: 25:     (INTCONbits.GIE = 1);
  1054  0113  178B               	bsf	11,7	;volatile
  1055  0114                     l984:
  1056                           
  1057                           ;main.c: 28:     (INTCONbits.PEIE = 1);
  1058  0114  170B               	bsf	11,6	;volatile
  1059  0115                     l135:	
  1060                           ;main.c: 36:     while (1)
  1061                           
  1062  0115                     l136:	
  1063                           ;main.c: 37:     {;main.c: 39:     }
  1064                           
  1065  0115  2915               	goto	l135
  1066  0116  3180  2813         	ljmp	start
  1067  0118                     __end_of_main:
  1068                           
  1069                           	psect	text1
  1070  0106                     __ptext1:	
  1071 ;; *************** function _SYSTEM_Initialize *****************
  1072 ;; Defined at:
  1073 ;;		line 50 in file "mcc_generated_files/mcc.c"
  1074 ;; Parameters:    Size  Location     Type
  1075 ;;		None
  1076 ;; Auto vars:     Size  Location     Type
  1077 ;;		None
  1078 ;; Return value:  Size  Location     Type
  1079 ;;                  1    wreg      void 
  1080 ;; Registers used:
  1081 ;;		wreg, status,2, status,0, pclath, cstack
  1082 ;; Tracked objects:
  1083 ;;		On entry : 0/0
  1084 ;;		On exit  : 0/0
  1085 ;;		Unchanged: 0/0
  1086 ;; Data sizes:     COMMON   BANK0   BANK1   BANK2   BANK3   BANK4
  1087 ;;      Params:         0       0       0       0       0       0
  1088 ;;      Locals:         0       0       0       0       0       0
  1089 ;;      Temps:          0       0       0       0       0       0
  1090 ;;      Totals:         0       0       0       0       0       0
  1091 ;;Total ram usage:        0 bytes
  1092 ;; Hardware stack levels used:    1
  1093 ;; Hardware stack levels required when called:    6
  1094 ;; This function calls:
  1095 ;;		_OSCILLATOR_Initialize
  1096 ;;		_PIN_MANAGER_Initialize
  1097 ;;		_WDT_Initialize
  1098 ;; This function is called by:
  1099 ;;		_main
  1100 ;; This function uses a non-reentrant model
  1101 ;;
  1102                           
  1103                           
  1104                           ;psect for function _SYSTEM_Initialize
  1105  0106                     _SYSTEM_Initialize:
  1106  0106                     l978:	
  1107                           ;incstack = 0
  1108                           ; Regs used in _SYSTEM_Initialize: [wreg+status,2+status,0+pclath+cstack]
  1109                           
  1110                           
  1111                           ;mcc_generated_files/mcc.c: 53:     PIN_MANAGER_Initialize();
  1112  0106  3180  2069  3181   	fcall	_PIN_MANAGER_Initialize
  1113                           
  1114                           ;mcc_generated_files/mcc.c: 54:     OSCILLATOR_Initialize();
  1115  0109  3181  2118  3181   	fcall	_OSCILLATOR_Initialize
  1116                           
  1117                           ;mcc_generated_files/mcc.c: 55:     WDT_Initialize();
  1118  010C  3181  212B  3181   	fcall	_WDT_Initialize
  1119  010F                     l120:
  1120  010F  0008               	return
  1121  0110                     __end_of_SYSTEM_Initialize:
  1122                           
  1123                           	psect	text2
  1124  012B                     __ptext2:	
  1125 ;; *************** function _WDT_Initialize *****************
  1126 ;; Defined at:
  1127 ;;		line 68 in file "mcc_generated_files/mcc.c"
  1128 ;; Parameters:    Size  Location     Type
  1129 ;;		None
  1130 ;; Auto vars:     Size  Location     Type
  1131 ;;		None
  1132 ;; Return value:  Size  Location     Type
  1133 ;;                  1    wreg      void 
  1134 ;; Registers used:
  1135 ;;		wreg
  1136 ;; Tracked objects:
  1137 ;;		On entry : 0/0
  1138 ;;		On exit  : 0/0
  1139 ;;		Unchanged: 0/0
  1140 ;; Data sizes:     COMMON   BANK0   BANK1   BANK2   BANK3   BANK4
  1141 ;;      Params:         0       0       0       0       0       0
  1142 ;;      Locals:         0       0       0       0       0       0
  1143 ;;      Temps:          0       0       0       0       0       0
  1144 ;;      Totals:         0       0       0       0       0       0
  1145 ;;Total ram usage:        0 bytes
  1146 ;; Hardware stack levels used:    1
  1147 ;; Hardware stack levels required when called:    4
  1148 ;; This function calls:
  1149 ;;		Nothing
  1150 ;; This function is called by:
  1151 ;;		_SYSTEM_Initialize
  1152 ;; This function uses a non-reentrant model
  1153 ;;
  1154                           
  1155                           
  1156                           ;psect for function _WDT_Initialize
  1157  012B                     _WDT_Initialize:
  1158  012B                     l976:	
  1159                           ;incstack = 0
  1160                           ; Regs used in _WDT_Initialize: [wreg]
  1161                           
  1162                           
  1163                           ;mcc_generated_files/mcc.c: 71:     WDTCON = 0x16;
  1164  012B  3016               	movlw	22
  1165  012C  0021               	movlb	1	; select bank1
  1166  012D  0097               	movwf	23	;volatile
  1167  012E                     l126:
  1168  012E  0008               	return
  1169  012F                     __end_of_WDT_Initialize:
  1170                           
  1171                           	psect	text3
  1172  0069                     __ptext3:	
  1173 ;; *************** function _PIN_MANAGER_Initialize *****************
  1174 ;; Defined at:
  1175 ;;		line 83 in file "mcc_generated_files/pin_manager.c"
  1176 ;; Parameters:    Size  Location     Type
  1177 ;;		None
  1178 ;; Auto vars:     Size  Location     Type
  1179 ;;		None
  1180 ;; Return value:  Size  Location     Type
  1181 ;;                  1    wreg      void 
  1182 ;; Registers used:
  1183 ;;		wreg, status,2, status,0, pclath, cstack
  1184 ;; Tracked objects:
  1185 ;;		On entry : 0/0
  1186 ;;		On exit  : 0/0
  1187 ;;		Unchanged: 0/0
  1188 ;; Data sizes:     COMMON   BANK0   BANK1   BANK2   BANK3   BANK4
  1189 ;;      Params:         0       0       0       0       0       0
  1190 ;;      Locals:         0       0       0       0       0       0
  1191 ;;      Temps:          0       0       0       0       0       0
  1192 ;;      Totals:         0       0       0       0       0       0
  1193 ;;Total ram usage:        0 bytes
  1194 ;; Hardware stack levels used:    1
  1195 ;; Hardware stack levels required when called:    5
  1196 ;; This function calls:
  1197 ;;		_IOCBF0_SetInterruptHandler
  1198 ;;		_IOCBF1_SetInterruptHandler
  1199 ;; This function is called by:
  1200 ;;		_SYSTEM_Initialize
  1201 ;; This function uses a non-reentrant model
  1202 ;;
  1203                           
  1204                           
  1205                           ;psect for function _PIN_MANAGER_Initialize
  1206  0069                     _PIN_MANAGER_Initialize:
  1207  0069                     l934:	
  1208                           ;incstack = 0
  1209                           ; Regs used in _PIN_MANAGER_Initialize: [wreg+status,2+status,0+pclath+cstack]
  1210                           
  1211                           
  1212                           ;mcc_generated_files/pin_manager.c: 88:     LATA = 0x00;
  1213  0069  0022               	movlb	2	; select bank2
  1214  006A  018C               	clrf	12	;volatile
  1215                           
  1216                           ;mcc_generated_files/pin_manager.c: 89:     LATB = 0x00;
  1217  006B  018D               	clrf	13	;volatile
  1218  006C                     l936:
  1219                           
  1220                           ;mcc_generated_files/pin_manager.c: 94:     TRISA = 0xFF;
  1221  006C  30FF               	movlw	255
  1222  006D  0021               	movlb	1	; select bank1
  1223  006E  008C               	movwf	12	;volatile
  1224  006F                     l938:
  1225                           
  1226                           ;mcc_generated_files/pin_manager.c: 95:     TRISB = 0x03;
  1227  006F  3003               	movlw	3
  1228  0070  008D               	movwf	13	;volatile
  1229                           
  1230                           ;mcc_generated_files/pin_manager.c: 100:     ANSELB = 0x00;
  1231  0071  0023               	movlb	3	; select bank3
  1232  0072  018D               	clrf	13	;volatile
  1233  0073                     l940:
  1234                           
  1235                           ;mcc_generated_files/pin_manager.c: 101:     ANSELA = 0x1F;
  1236  0073  301F               	movlw	31
  1237  0074  008C               	movwf	12	;volatile
  1238  0075                     l942:
  1239                           
  1240                           ;mcc_generated_files/pin_manager.c: 106:     WPUB = 0x00;
  1241  0075  0024               	movlb	4	; select bank4
  1242  0076  018D               	clrf	13	;volatile
  1243  0077                     l944:
  1244                           
  1245                           ;mcc_generated_files/pin_manager.c: 107:     WPUA = 0x00;
  1246  0077  018C               	clrf	12	;volatile
  1247  0078                     l946:
  1248                           
  1249                           ;mcc_generated_files/pin_manager.c: 108:     OPTION_REGbits.nWPUEN = 1;
  1250  0078  0021               	movlb	1	; select bank1
  1251  0079  1795               	bsf	21,7	;volatile
  1252  007A                     l948:
  1253                           
  1254                           ;mcc_generated_files/pin_manager.c: 114:     APFCON0 = 0x00;
  1255  007A  0022               	movlb	2	; select bank2
  1256  007B  019D               	clrf	29	;volatile
  1257  007C                     l950:
  1258                           
  1259                           ;mcc_generated_files/pin_manager.c: 115:     APFCON1 = 0x00;
  1260  007C  019E               	clrf	30	;volatile
  1261  007D                     l952:
  1262                           
  1263                           ;mcc_generated_files/pin_manager.c: 121:     IOCBFbits.IOCBF0 = 0;
  1264  007D  0027               	movlb	7	; select bank7
  1265  007E  1016               	bcf	22,0	;volatile
  1266  007F                     l954:
  1267                           
  1268                           ;mcc_generated_files/pin_manager.c: 123:     IOCBFbits.IOCBF1 = 0;
  1269  007F  1096               	bcf	22,1	;volatile
  1270  0080                     l956:
  1271                           
  1272                           ;mcc_generated_files/pin_manager.c: 125:     IOCBNbits.IOCBN0 = 0;
  1273  0080  1015               	bcf	21,0	;volatile
  1274  0081                     l958:
  1275                           
  1276                           ;mcc_generated_files/pin_manager.c: 127:     IOCBNbits.IOCBN1 = 0;
  1277  0081  1095               	bcf	21,1	;volatile
  1278  0082                     l960:
  1279                           
  1280                           ;mcc_generated_files/pin_manager.c: 129:     IOCBPbits.IOCBP0 = 1;
  1281  0082  1414               	bsf	20,0	;volatile
  1282  0083                     l962:
  1283                           
  1284                           ;mcc_generated_files/pin_manager.c: 131:     IOCBPbits.IOCBP1 = 1;
  1285  0083  1494               	bsf	20,1	;volatile
  1286  0084                     l964:
  1287                           
  1288                           ;mcc_generated_files/pin_manager.c: 136:     IOCBF0_SetInterruptHandler(IOCBF0_DefaultIn
      +                          terruptHandler);
  1289  0084  3030               	movlw	low _IOCBF0_DefaultInterruptHandler
  1290  0085  0020               	movlb	0	; select bank0
  1291  0086  00A0               	movwf	IOCBF0_SetInterruptHandler@InterruptHandler
  1292  0087  3001               	movlw	high _IOCBF0_DefaultInterruptHandler
  1293  0088  00A1               	movwf	IOCBF0_SetInterruptHandler@InterruptHandler+1
  1294  0089  3181  2125  3180   	fcall	_IOCBF0_SetInterruptHandler
  1295  008C                     l966:
  1296                           
  1297                           ;mcc_generated_files/pin_manager.c: 137:     IOCBF1_SetInterruptHandler(IOCBF1_DefaultIn
      +                          terruptHandler);
  1298  008C  302F               	movlw	low _IOCBF1_DefaultInterruptHandler
  1299  008D  0020               	movlb	0	; select bank0
  1300  008E  00A0               	movwf	IOCBF1_SetInterruptHandler@InterruptHandler
  1301  008F  3001               	movlw	high _IOCBF1_DefaultInterruptHandler
  1302  0090  00A1               	movwf	IOCBF1_SetInterruptHandler@InterruptHandler+1
  1303  0091  3181  211F  3180   	fcall	_IOCBF1_SetInterruptHandler
  1304  0094                     l968:
  1305                           
  1306                           ;mcc_generated_files/pin_manager.c: 140:     INTCONbits.IOCIE = 1;
  1307  0094  158B               	bsf	11,3	;volatile
  1308  0095                     l74:
  1309  0095  0008               	return
  1310  0096                     __end_of_PIN_MANAGER_Initialize:
  1311                           
  1312                           	psect	text4
  1313  011F                     __ptext4:	
  1314 ;; *************** function _IOCBF1_SetInterruptHandler *****************
  1315 ;; Defined at:
  1316 ;;		line 210 in file "mcc_generated_files/pin_manager.c"
  1317 ;; Parameters:    Size  Location     Type
  1318 ;;  InterruptHan    2    0[BANK0 ] PTR FTN()void 
  1319 ;;		 -> IOCBF1_DefaultInterruptHandler(1), 
  1320 ;; Auto vars:     Size  Location     Type
  1321 ;;		None
  1322 ;; Return value:  Size  Location     Type
  1323 ;;                  1    wreg      void 
  1324 ;; Registers used:
  1325 ;;		wreg
  1326 ;; Tracked objects:
  1327 ;;		On entry : 0/0
  1328 ;;		On exit  : 0/0
  1329 ;;		Unchanged: 0/0
  1330 ;; Data sizes:     COMMON   BANK0   BANK1   BANK2   BANK3   BANK4
  1331 ;;      Params:         0       2       0       0       0       0
  1332 ;;      Locals:         0       0       0       0       0       0
  1333 ;;      Temps:          0       0       0       0       0       0
  1334 ;;      Totals:         0       2       0       0       0       0
  1335 ;;Total ram usage:        2 bytes
  1336 ;; Hardware stack levels used:    1
  1337 ;; Hardware stack levels required when called:    4
  1338 ;; This function calls:
  1339 ;;		Nothing
  1340 ;; This function is called by:
  1341 ;;		_PIN_MANAGER_Initialize
  1342 ;; This function uses a non-reentrant model
  1343 ;;
  1344                           
  1345                           
  1346                           ;psect for function _IOCBF1_SetInterruptHandler
  1347  011F                     _IOCBF1_SetInterruptHandler:
  1348  011F                     l932:	
  1349                           ;incstack = 0
  1350                           ; Regs used in _IOCBF1_SetInterruptHandler: [wreg]
  1351                           
  1352                           
  1353                           ;mcc_generated_files/pin_manager.c: 211:     IOCBF1_InterruptHandler = InterruptHandler;
  1354  011F  0020               	movlb	0	; select bank0
  1355  0120  0821               	movf	IOCBF1_SetInterruptHandler@InterruptHandler+1,w
  1356  0121  00F8               	movwf	_IOCBF1_InterruptHandler+1
  1357  0122  0820               	movf	IOCBF1_SetInterruptHandler@InterruptHandler,w
  1358  0123  00F7               	movwf	_IOCBF1_InterruptHandler
  1359  0124                     l100:
  1360  0124  0008               	return
  1361  0125                     __end_of_IOCBF1_SetInterruptHandler:
  1362                           
  1363                           	psect	text5
  1364  0125                     __ptext5:	
  1365 ;; *************** function _IOCBF0_SetInterruptHandler *****************
  1366 ;; Defined at:
  1367 ;;		line 178 in file "mcc_generated_files/pin_manager.c"
  1368 ;; Parameters:    Size  Location     Type
  1369 ;;  InterruptHan    2    0[BANK0 ] PTR FTN()void 
  1370 ;;		 -> IOCBF0_DefaultInterruptHandler(1), 
  1371 ;; Auto vars:     Size  Location     Type
  1372 ;;		None
  1373 ;; Return value:  Size  Location     Type
  1374 ;;                  1    wreg      void 
  1375 ;; Registers used:
  1376 ;;		wreg
  1377 ;; Tracked objects:
  1378 ;;		On entry : 0/0
  1379 ;;		On exit  : 0/0
  1380 ;;		Unchanged: 0/0
  1381 ;; Data sizes:     COMMON   BANK0   BANK1   BANK2   BANK3   BANK4
  1382 ;;      Params:         0       2       0       0       0       0
  1383 ;;      Locals:         0       0       0       0       0       0
  1384 ;;      Temps:          0       0       0       0       0       0
  1385 ;;      Totals:         0       2       0       0       0       0
  1386 ;;Total ram usage:        2 bytes
  1387 ;; Hardware stack levels used:    1
  1388 ;; Hardware stack levels required when called:    4
  1389 ;; This function calls:
  1390 ;;		Nothing
  1391 ;; This function is called by:
  1392 ;;		_PIN_MANAGER_Initialize
  1393 ;; This function uses a non-reentrant model
  1394 ;;
  1395                           
  1396                           
  1397                           ;psect for function _IOCBF0_SetInterruptHandler
  1398  0125                     _IOCBF0_SetInterruptHandler:
  1399  0125                     l930:	
  1400                           ;incstack = 0
  1401                           ; Regs used in _IOCBF0_SetInterruptHandler: [wreg]
  1402                           
  1403                           
  1404                           ;mcc_generated_files/pin_manager.c: 179:     IOCBF0_InterruptHandler = InterruptHandler;
  1405  0125  0020               	movlb	0	; select bank0
  1406  0126  0821               	movf	IOCBF0_SetInterruptHandler@InterruptHandler+1,w
  1407  0127  00FA               	movwf	_IOCBF0_InterruptHandler+1
  1408  0128  0820               	movf	IOCBF0_SetInterruptHandler@InterruptHandler,w
  1409  0129  00F9               	movwf	_IOCBF0_InterruptHandler
  1410  012A                     l88:
  1411  012A  0008               	return
  1412  012B                     __end_of_IOCBF0_SetInterruptHandler:
  1413                           
  1414                           	psect	text6
  1415  0118                     __ptext6:	
  1416 ;; *************** function _OSCILLATOR_Initialize *****************
  1417 ;; Defined at:
  1418 ;;		line 58 in file "mcc_generated_files/mcc.c"
  1419 ;; Parameters:    Size  Location     Type
  1420 ;;		None
  1421 ;; Auto vars:     Size  Location     Type
  1422 ;;		None
  1423 ;; Return value:  Size  Location     Type
  1424 ;;                  1    wreg      void 
  1425 ;; Registers used:
  1426 ;;		wreg, status,2
  1427 ;; Tracked objects:
  1428 ;;		On entry : 0/0
  1429 ;;		On exit  : 0/0
  1430 ;;		Unchanged: 0/0
  1431 ;; Data sizes:     COMMON   BANK0   BANK1   BANK2   BANK3   BANK4
  1432 ;;      Params:         0       0       0       0       0       0
  1433 ;;      Locals:         0       0       0       0       0       0
  1434 ;;      Temps:          0       0       0       0       0       0
  1435 ;;      Totals:         0       0       0       0       0       0
  1436 ;;Total ram usage:        0 bytes
  1437 ;; Hardware stack levels used:    1
  1438 ;; Hardware stack levels required when called:    4
  1439 ;; This function calls:
  1440 ;;		Nothing
  1441 ;; This function is called by:
  1442 ;;		_SYSTEM_Initialize
  1443 ;; This function uses a non-reentrant model
  1444 ;;
  1445                           
  1446                           
  1447                           ;psect for function _OSCILLATOR_Initialize
  1448  0118                     _OSCILLATOR_Initialize:
  1449  0118                     l970:	
  1450                           ;incstack = 0
  1451                           ; Regs used in _OSCILLATOR_Initialize: [wreg+status,2]
  1452                           
  1453                           
  1454                           ;mcc_generated_files/mcc.c: 61:     OSCCON = 0x6A;
  1455  0118  306A               	movlw	106
  1456  0119  0021               	movlb	1	; select bank1
  1457  011A  0099               	movwf	25	;volatile
  1458  011B                     l972:
  1459                           
  1460                           ;mcc_generated_files/mcc.c: 63:     OSCTUNE = 0x00;
  1461  011B  0198               	clrf	24	;volatile
  1462  011C                     l974:
  1463                           
  1464                           ;mcc_generated_files/mcc.c: 65:     BORCON = 0x00;
  1465  011C  0022               	movlb	2	; select bank2
  1466  011D  0196               	clrf	22	;volatile
  1467  011E                     l123:
  1468  011E  0008               	return
  1469  011F                     __end_of_OSCILLATOR_Initialize:
  1470                           
  1471                           	psect	intentry
  1472  0004                     __pintentry:	
  1473 ;; *************** function _INTERRUPT_InterruptManager *****************
  1474 ;; Defined at:
  1475 ;;		line 52 in file "mcc_generated_files/interrupt_manager.c"
  1476 ;; Parameters:    Size  Location     Type
  1477 ;;		None
  1478 ;; Auto vars:     Size  Location     Type
  1479 ;;		None
  1480 ;; Return value:  Size  Location     Type
  1481 ;;                  1    wreg      void 
  1482 ;; Registers used:
  1483 ;;		wreg, status,2, status,0, pclath, cstack
  1484 ;; Tracked objects:
  1485 ;;		On entry : 0/0
  1486 ;;		On exit  : 0/0
  1487 ;;		Unchanged: 0/0
  1488 ;; Data sizes:     COMMON   BANK0   BANK1   BANK2   BANK3   BANK4
  1489 ;;      Params:         0       0       0       0       0       0
  1490 ;;      Locals:         0       0       0       0       0       0
  1491 ;;      Temps:          0       0       0       0       0       0
  1492 ;;      Totals:         0       0       0       0       0       0
  1493 ;;Total ram usage:        0 bytes
  1494 ;; Hardware stack levels used:    1
  1495 ;; Hardware stack levels required when called:    3
  1496 ;; This function calls:
  1497 ;;		_PIN_MANAGER_IOC
  1498 ;; This function is called by:
  1499 ;;		Interrupt level 1
  1500 ;; This function uses a non-reentrant model
  1501 ;;
  1502                           
  1503  0004                     _INTERRUPT_InterruptManager:
  1504                           
  1505                           ;incstack = 0
  1506  0004  147E               	bsf	int$flags,0	;set compiler interrupt flag (level 1)
  1507                           
  1508                           ; Regs used in _INTERRUPT_InterruptManager: [wreg+status,2+status,0+pclath+cstack]
  1509  0005  3180               	pagesel	$
  1510  0006                     i1l870:
  1511                           
  1512                           ;mcc_generated_files/interrupt_manager.c: 55:     if(INTCONbits.IOCIE == 1 && INTCONbits
      +                          .IOCIF == 1)
  1513  0006  1D8B               	btfss	11,3	;volatile
  1514  0007  2809               	goto	u9_21
  1515  0008  280A               	goto	u9_20
  1516  0009                     u9_21:
  1517  0009  2811               	goto	i1l11
  1518  000A                     u9_20:
  1519  000A                     i1l872:
  1520  000A  1C0B               	btfss	11,0	;volatile
  1521  000B  280D               	goto	u10_21
  1522  000C  280E               	goto	u10_20
  1523  000D                     u10_21:
  1524  000D  2811               	goto	i1l11
  1525  000E                     u10_20:
  1526  000E                     i1l874:
  1527                           
  1528                           ;mcc_generated_files/interrupt_manager.c: 56:     {;mcc_generated_files/interrupt_manage
      +                          r.c: 57:         PIN_MANAGER_IOC();
  1529  000E  3180  20F5  3180   	fcall	_PIN_MANAGER_IOC
  1530  0011                     i1l11:	
  1531                           ;mcc_generated_files/interrupt_manager.c: 58:     }
  1532                           
  1533  0011  107E               	bcf	int$flags,0	;clear compiler interrupt flag (level 1)
  1534  0012  0009               	retfie
  1535  0013                     __end_of_INTERRUPT_InterruptManager:
  1536                           
  1537                           	psect	text8
  1538  00F5                     __ptext8:	
  1539 ;; *************** function _PIN_MANAGER_IOC *****************
  1540 ;; Defined at:
  1541 ;;		line 144 in file "mcc_generated_files/pin_manager.c"
  1542 ;; Parameters:    Size  Location     Type
  1543 ;;		None
  1544 ;; Auto vars:     Size  Location     Type
  1545 ;;		None
  1546 ;; Return value:  Size  Location     Type
  1547 ;;                  1    wreg      void 
  1548 ;; Registers used:
  1549 ;;		wreg, status,2, status,0, pclath, cstack
  1550 ;; Tracked objects:
  1551 ;;		On entry : 0/0
  1552 ;;		On exit  : 0/0
  1553 ;;		Unchanged: 0/0
  1554 ;; Data sizes:     COMMON   BANK0   BANK1   BANK2   BANK3   BANK4
  1555 ;;      Params:         0       0       0       0       0       0
  1556 ;;      Locals:         0       0       0       0       0       0
  1557 ;;      Temps:          0       0       0       0       0       0
  1558 ;;      Totals:         0       0       0       0       0       0
  1559 ;;Total ram usage:        0 bytes
  1560 ;; Hardware stack levels used:    1
  1561 ;; Hardware stack levels required when called:    2
  1562 ;; This function calls:
  1563 ;;		_IOCBF0_ISR
  1564 ;;		_IOCBF1_ISR
  1565 ;; This function is called by:
  1566 ;;		_INTERRUPT_InterruptManager
  1567 ;; This function uses a non-reentrant model
  1568 ;;
  1569                           
  1570                           
  1571                           ;psect for function _PIN_MANAGER_IOC
  1572  00F5                     _PIN_MANAGER_IOC:
  1573  00F5                     i1l860:	
  1574                           ;incstack = 0
  1575                           ; Regs used in _PIN_MANAGER_IOC: [wreg+status,2+status,0+pclath+cstack]
  1576                           
  1577                           
  1578                           ;mcc_generated_files/pin_manager.c: 147:     if(IOCBFbits.IOCBF0 == 1)
  1579  00F5  0027               	movlb	7	; select bank7
  1580  00F6  1C16               	btfss	22,0	;volatile
  1581  00F7  28F9               	goto	u7_21
  1582  00F8  28FA               	goto	u7_20
  1583  00F9                     u7_21:
  1584  00F9  28FD               	goto	i1l864
  1585  00FA                     u7_20:
  1586  00FA                     i1l862:
  1587                           
  1588                           ;mcc_generated_files/pin_manager.c: 148:     {;mcc_generated_files/pin_manager.c: 149:  
      +                                 IOCBF0_ISR();
  1589  00FA  3180  20BA  3180   	fcall	_IOCBF0_ISR
  1590  00FD                     i1l864:
  1591                           
  1592                           ;mcc_generated_files/pin_manager.c: 152:     if(IOCBFbits.IOCBF1 == 1)
  1593  00FD  0027               	movlb	7	; select bank7
  1594  00FE  1C96               	btfss	22,1	;volatile
  1595  00FF  2901               	goto	u8_21
  1596  0100  2902               	goto	u8_20
  1597  0101                     u8_21:
  1598  0101  2905               	goto	i1l79
  1599  0102                     u8_20:
  1600  0102                     i1l866:
  1601                           
  1602                           ;mcc_generated_files/pin_manager.c: 153:     {;mcc_generated_files/pin_manager.c: 154:  
      +                                 IOCBF1_ISR();
  1603  0102  3180  2096  3180   	fcall	_IOCBF1_ISR
  1604  0105                     i1l79:
  1605  0105  0008               	return
  1606  0106                     __end_of_PIN_MANAGER_IOC:
  1607                           
  1608                           	psect	text9
  1609  0096                     __ptext9:	
  1610 ;; *************** function _IOCBF1_ISR *****************
  1611 ;; Defined at:
  1612 ;;		line 193 in file "mcc_generated_files/pin_manager.c"
  1613 ;; Parameters:    Size  Location     Type
  1614 ;;		None
  1615 ;; Auto vars:     Size  Location     Type
  1616 ;;  i               2    2[COMMON] int 
  1617 ;; Return value:  Size  Location     Type
  1618 ;;                  1    wreg      void 
  1619 ;; Registers used:
  1620 ;;		wreg, status,2, status,0, pclath, cstack
  1621 ;; Tracked objects:
  1622 ;;		On entry : 0/0
  1623 ;;		On exit  : 0/0
  1624 ;;		Unchanged: 0/0
  1625 ;; Data sizes:     COMMON   BANK0   BANK1   BANK2   BANK3   BANK4
  1626 ;;      Params:         0       0       0       0       0       0
  1627 ;;      Locals:         2       0       0       0       0       0
  1628 ;;      Temps:          1       0       0       0       0       0
  1629 ;;      Totals:         3       0       0       0       0       0
  1630 ;;Total ram usage:        3 bytes
  1631 ;; Hardware stack levels used:    1
  1632 ;; Hardware stack levels required when called:    1
  1633 ;; This function calls:
  1634 ;;		Absolute function
  1635 ;;		_IOCBF1_DefaultInterruptHandler
  1636 ;;		_LampSfas
  1637 ;; This function is called by:
  1638 ;;		_PIN_MANAGER_IOC
  1639 ;; This function uses a non-reentrant model
  1640 ;;
  1641                           
  1642                           
  1643                           ;psect for function _IOCBF1_ISR
  1644  0096                     _IOCBF1_ISR:
  1645  0096                     i1l834:	
  1646                           ;incstack = 0
  1647                           ; Regs used in _IOCBF1_ISR: [wreg+status,2+status,0+pclath+cstack]
  1648                           
  1649                           
  1650                           ;mcc_generated_files/pin_manager.c: 196:     for(int i=0; i<5;i++){
  1651  0096  01F2               	clrf	IOCBF1_ISR@i
  1652  0097  01F3               	clrf	IOCBF1_ISR@i+1
  1653  0098                     i1l840:
  1654                           
  1655                           ;mcc_generated_files/pin_manager.c: 197:     LampSfas();
  1656  0098  3180  20DE  3180   	fcall	_LampSfas
  1657  009B                     i1l842:
  1658                           
  1659                           ;mcc_generated_files/pin_manager.c: 198:     }
  1660  009B  3001               	movlw	1
  1661  009C  07F2               	addwf	IOCBF1_ISR@i,f
  1662  009D  3000               	movlw	0
  1663  009E  3DF3               	addwfc	IOCBF1_ISR@i+1,f
  1664  009F                     i1l844:
  1665  009F  0873               	movf	IOCBF1_ISR@i+1,w
  1666  00A0  3A80               	xorlw	128
  1667  00A1  00F1               	movwf	??_IOCBF1_ISR
  1668  00A2  3080               	movlw	128
  1669  00A3  0271               	subwf	??_IOCBF1_ISR,w
  1670  00A4  1D03               	skipz
  1671  00A5  28A8               	goto	u5_25
  1672  00A6  3005               	movlw	5
  1673  00A7  0272               	subwf	IOCBF1_ISR@i,w
  1674  00A8                     u5_25:
  1675  00A8  1C03               	skipc
  1676  00A9  28AB               	goto	u5_21
  1677  00AA  28AC               	goto	u5_20
  1678  00AB                     u5_21:
  1679  00AB  2898               	goto	i1l840
  1680  00AC                     u5_20:
  1681  00AC                     i1l846:
  1682                           
  1683                           ;mcc_generated_files/pin_manager.c: 200:     if(IOCBF1_InterruptHandler)
  1684  00AC  0877               	movf	_IOCBF1_InterruptHandler,w
  1685  00AD  0478               	iorwf	_IOCBF1_InterruptHandler+1,w
  1686  00AE  1903               	btfsc	3,2
  1687  00AF  28B1               	goto	u6_21
  1688  00B0  28B2               	goto	u6_20
  1689  00B1                     u6_21:
  1690  00B1  28B7               	goto	i1l850
  1691  00B2                     u6_20:
  1692  00B2                     i1l848:
  1693                           
  1694                           ;mcc_generated_files/pin_manager.c: 201:     {;mcc_generated_files/pin_manager.c: 202:  
      +                                 IOCBF1_InterruptHandler();
  1695  00B2  0878               	movf	_IOCBF1_InterruptHandler+1,w
  1696  00B3  008A               	movwf	10
  1697  00B4  0877               	movf	_IOCBF1_InterruptHandler,w
  1698  00B5  000A               	callw
  1699  00B6  3180               	pagesel	$
  1700  00B7                     i1l850:
  1701                           
  1702                           ;mcc_generated_files/pin_manager.c: 204:     IOCBFbits.IOCBF1 = 0;
  1703  00B7  0027               	movlb	7	; select bank7
  1704  00B8  1096               	bcf	22,1	;volatile
  1705  00B9                     i1l97:
  1706  00B9  0008               	return
  1707  00BA                     __end_of_IOCBF1_ISR:
  1708                           
  1709                           	psect	text10
  1710  00DE                     __ptext10:	
  1711 ;; *************** function _LampSfas *****************
  1712 ;; Defined at:
  1713 ;;		line 53 in file "mcc_generated_files/pin_manager.c"
  1714 ;; Parameters:    Size  Location     Type
  1715 ;;		None
  1716 ;; Auto vars:     Size  Location     Type
  1717 ;;		None
  1718 ;; Return value:  Size  Location     Type
  1719 ;;                  1    wreg      void 
  1720 ;; Registers used:
  1721 ;;		wreg, status,2
  1722 ;; Tracked objects:
  1723 ;;		On entry : 0/0
  1724 ;;		On exit  : 0/0
  1725 ;;		Unchanged: 0/0
  1726 ;; Data sizes:     COMMON   BANK0   BANK1   BANK2   BANK3   BANK4
  1727 ;;      Params:         0       0       0       0       0       0
  1728 ;;      Locals:         0       0       0       0       0       0
  1729 ;;      Temps:          1       0       0       0       0       0
  1730 ;;      Totals:         1       0       0       0       0       0
  1731 ;;Total ram usage:        1 bytes
  1732 ;; Hardware stack levels used:    1
  1733 ;; This function calls:
  1734 ;;		Nothing
  1735 ;; This function is called by:
  1736 ;;		_IOCBF1_ISR
  1737 ;; This function uses a non-reentrant model
  1738 ;;
  1739                           
  1740                           
  1741                           ;psect for function _LampSfas
  1742  00DE                     _LampSfas:
  1743  00DE                     i1l746:	
  1744                           ;incstack = 0
  1745                           ; Regs used in _LampSfas: [wreg+status,2]
  1746                           
  1747                           
  1748                           ;mcc_generated_files/pin_manager.c: 54:     PORTB=0b01010100;
  1749  00DE  3054               	movlw	84
  1750  00DF  0020               	movlb	0	; select bank0
  1751  00E0  008D               	movwf	13	;volatile
  1752                           
  1753                           ;mcc_generated_files/pin_manager.c: 55:     _delay((unsigned long)((100)*(4000000/4000.0
      +                          )));
  1754  00E1  3082               	movlw	130
  1755  00E2  00F0               	movwf	??_LampSfas
  1756  00E3  30DE               	movlw	222
  1757  00E4                     u11_27:
  1758  00E4  0B89               	decfsz	9,f
  1759  00E5  28E4               	goto	u11_27
  1760  00E6  0BF0               	decfsz	??_LampSfas,f
  1761  00E7  28E4               	goto	u11_27
  1762                           
  1763                           ;mcc_generated_files/pin_manager.c: 56:     PORTB=0b10101010;
  1764  00E8  30AA               	movlw	170
  1765  00E9  0020               	movlb	0	; select bank0
  1766  00EA  008D               	movwf	13	;volatile
  1767                           
  1768                           ;mcc_generated_files/pin_manager.c: 57:     _delay((unsigned long)((100)*(4000000/4000.0
      +                          )));
  1769  00EB  3082               	movlw	130
  1770  00EC  00F0               	movwf	??_LampSfas
  1771  00ED  30DE               	movlw	222
  1772  00EE                     u12_27:
  1773  00EE  0B89               	decfsz	9,f
  1774  00EF  28EE               	goto	u12_27
  1775  00F0  0BF0               	decfsz	??_LampSfas,f
  1776  00F1  28EE               	goto	u12_27
  1777  00F2                     i1l748:
  1778                           
  1779                           ;mcc_generated_files/pin_manager.c: 58:     PORTB=0b00000000;
  1780  00F2  0020               	movlb	0	; select bank0
  1781  00F3  018D               	clrf	13	;volatile
  1782  00F4                     i1l60:
  1783  00F4  0008               	return
  1784  00F5                     __end_of_LampSfas:
  1785                           
  1786                           	psect	text11
  1787  012F                     __ptext11:	
  1788 ;; *************** function _IOCBF1_DefaultInterruptHandler *****************
  1789 ;; Defined at:
  1790 ;;		line 217 in file "mcc_generated_files/pin_manager.c"
  1791 ;; Parameters:    Size  Location     Type
  1792 ;;		None
  1793 ;; Auto vars:     Size  Location     Type
  1794 ;;		None
  1795 ;; Return value:  Size  Location     Type
  1796 ;;                  1    wreg      void 
  1797 ;; Registers used:
  1798 ;;		None
  1799 ;; Tracked objects:
  1800 ;;		On entry : 0/0
  1801 ;;		On exit  : 0/0
  1802 ;;		Unchanged: 0/0
  1803 ;; Data sizes:     COMMON   BANK0   BANK1   BANK2   BANK3   BANK4
  1804 ;;      Params:         0       0       0       0       0       0
  1805 ;;      Locals:         0       0       0       0       0       0
  1806 ;;      Temps:          0       0       0       0       0       0
  1807 ;;      Totals:         0       0       0       0       0       0
  1808 ;;Total ram usage:        0 bytes
  1809 ;; Hardware stack levels used:    1
  1810 ;; This function calls:
  1811 ;;		Nothing
  1812 ;; This function is called by:
  1813 ;;		_PIN_MANAGER_Initialize
  1814 ;;		_IOCBF1_ISR
  1815 ;; This function uses a non-reentrant model
  1816 ;;
  1817                           
  1818                           
  1819                           ;psect for function _IOCBF1_DefaultInterruptHandler
  1820  012F                     _IOCBF1_DefaultInterruptHandler:
  1821  012F                     i1l103:	
  1822                           ;incstack = 0
  1823                           ; Regs used in _IOCBF1_DefaultInterruptHandler: []
  1824                           
  1825  012F  0008               	return
  1826  0130                     __end_of_IOCBF1_DefaultInterruptHandler:
  1827                           
  1828                           	psect	text12
  1829  00BA                     __ptext12:	
  1830 ;; *************** function _IOCBF0_ISR *****************
  1831 ;; Defined at:
  1832 ;;		line 161 in file "mcc_generated_files/pin_manager.c"
  1833 ;; Parameters:    Size  Location     Type
  1834 ;;		None
  1835 ;; Auto vars:     Size  Location     Type
  1836 ;;  i               2    5[COMMON] int 
  1837 ;; Return value:  Size  Location     Type
  1838 ;;                  1    wreg      void 
  1839 ;; Registers used:
  1840 ;;		wreg, status,2, status,0, pclath, cstack
  1841 ;; Tracked objects:
  1842 ;;		On entry : 0/0
  1843 ;;		On exit  : 0/0
  1844 ;;		Unchanged: 0/0
  1845 ;; Data sizes:     COMMON   BANK0   BANK1   BANK2   BANK3   BANK4
  1846 ;;      Params:         0       0       0       0       0       0
  1847 ;;      Locals:         2       0       0       0       0       0
  1848 ;;      Temps:          1       0       0       0       0       0
  1849 ;;      Totals:         3       0       0       0       0       0
  1850 ;;Total ram usage:        3 bytes
  1851 ;; Hardware stack levels used:    1
  1852 ;; Hardware stack levels required when called:    1
  1853 ;; This function calls:
  1854 ;;		Absolute function
  1855 ;;		_IOCBF0_DefaultInterruptHandler
  1856 ;;		_Supercar
  1857 ;; This function is called by:
  1858 ;;		_PIN_MANAGER_IOC
  1859 ;; This function uses a non-reentrant model
  1860 ;;
  1861                           
  1862                           
  1863                           ;psect for function _IOCBF0_ISR
  1864  00BA                     _IOCBF0_ISR:
  1865  00BA                     i1l816:	
  1866                           ;incstack = 0
  1867                           ; Regs used in _IOCBF0_ISR: [wreg+status,2+status,0+pclath+cstack]
  1868                           
  1869                           
  1870                           ;mcc_generated_files/pin_manager.c: 164:     for(int i=0; i<5;i++){
  1871  00BA  01F5               	clrf	IOCBF0_ISR@i
  1872  00BB  01F6               	clrf	IOCBF0_ISR@i+1
  1873  00BC                     i1l822:
  1874                           
  1875                           ;mcc_generated_files/pin_manager.c: 165:     Supercar();
  1876  00BC  3180  2019  3180   	fcall	_Supercar
  1877  00BF                     i1l824:
  1878                           
  1879                           ;mcc_generated_files/pin_manager.c: 166:     }
  1880  00BF  3001               	movlw	1
  1881  00C0  07F5               	addwf	IOCBF0_ISR@i,f
  1882  00C1  3000               	movlw	0
  1883  00C2  3DF6               	addwfc	IOCBF0_ISR@i+1,f
  1884  00C3                     i1l826:
  1885  00C3  0876               	movf	IOCBF0_ISR@i+1,w
  1886  00C4  3A80               	xorlw	128
  1887  00C5  00F4               	movwf	??_IOCBF0_ISR
  1888  00C6  3080               	movlw	128
  1889  00C7  0274               	subwf	??_IOCBF0_ISR,w
  1890  00C8  1D03               	skipz
  1891  00C9  28CC               	goto	u3_25
  1892  00CA  3005               	movlw	5
  1893  00CB  0275               	subwf	IOCBF0_ISR@i,w
  1894  00CC                     u3_25:
  1895  00CC  1C03               	skipc
  1896  00CD  28CF               	goto	u3_21
  1897  00CE  28D0               	goto	u3_20
  1898  00CF                     u3_21:
  1899  00CF  28BC               	goto	i1l822
  1900  00D0                     u3_20:
  1901  00D0                     i1l828:
  1902                           
  1903                           ;mcc_generated_files/pin_manager.c: 168:     if(IOCBF0_InterruptHandler)
  1904  00D0  0879               	movf	_IOCBF0_InterruptHandler,w
  1905  00D1  047A               	iorwf	_IOCBF0_InterruptHandler+1,w
  1906  00D2  1903               	btfsc	3,2
  1907  00D3  28D5               	goto	u4_21
  1908  00D4  28D6               	goto	u4_20
  1909  00D5                     u4_21:
  1910  00D5  28DB               	goto	i1l832
  1911  00D6                     u4_20:
  1912  00D6                     i1l830:
  1913                           
  1914                           ;mcc_generated_files/pin_manager.c: 169:     {;mcc_generated_files/pin_manager.c: 170:  
      +                                 IOCBF0_InterruptHandler();
  1915  00D6  087A               	movf	_IOCBF0_InterruptHandler+1,w
  1916  00D7  008A               	movwf	10
  1917  00D8  0879               	movf	_IOCBF0_InterruptHandler,w
  1918  00D9  000A               	callw
  1919  00DA  3180               	pagesel	$
  1920  00DB                     i1l832:
  1921                           
  1922                           ;mcc_generated_files/pin_manager.c: 172:     IOCBFbits.IOCBF0 = 0;
  1923  00DB  0027               	movlb	7	; select bank7
  1924  00DC  1016               	bcf	22,0	;volatile
  1925  00DD                     i1l85:
  1926  00DD  0008               	return
  1927  00DE                     __end_of_IOCBF0_ISR:
  1928                           
  1929                           	psect	text13
  1930  0019                     __ptext13:	
  1931 ;; *************** function _Supercar *****************
  1932 ;; Defined at:
  1933 ;;		line 61 in file "mcc_generated_files/pin_manager.c"
  1934 ;; Parameters:    Size  Location     Type
  1935 ;;		None
  1936 ;; Auto vars:     Size  Location     Type
  1937 ;;  i               2    2[COMMON] int 
  1938 ;; Return value:  Size  Location     Type
  1939 ;;                  1    wreg      void 
  1940 ;; Registers used:
  1941 ;;		wreg, status,2, status,0
  1942 ;; Tracked objects:
  1943 ;;		On entry : 0/0
  1944 ;;		On exit  : 0/0
  1945 ;;		Unchanged: 0/0
  1946 ;; Data sizes:     COMMON   BANK0   BANK1   BANK2   BANK3   BANK4
  1947 ;;      Params:         0       0       0       0       0       0
  1948 ;;      Locals:         2       0       0       0       0       0
  1949 ;;      Temps:          2       0       0       0       0       0
  1950 ;;      Totals:         4       0       0       0       0       0
  1951 ;;Total ram usage:        4 bytes
  1952 ;; Hardware stack levels used:    1
  1953 ;; This function calls:
  1954 ;;		Nothing
  1955 ;; This function is called by:
  1956 ;;		_IOCBF0_ISR
  1957 ;; This function uses a non-reentrant model
  1958 ;;
  1959                           
  1960                           
  1961                           ;psect for function _Supercar
  1962  0019                     _Supercar:
  1963  0019                     i1l750:	
  1964                           ;incstack = 0
  1965                           ; Regs used in _Supercar: [wreg+status,2+status,0]
  1966                           
  1967                           
  1968                           ;mcc_generated_files/pin_manager.c: 62:     int i;;mcc_generated_files/pin_manager.c: 63
      +                          :     _delay((unsigned long)((200)*(4000000/4000.0)));
  1969  0019  3002               	movlw	2
  1970  001A  00F1               	movwf	??_Supercar+1
  1971  001B  3004               	movlw	4
  1972  001C  00F0               	movwf	??_Supercar
  1973  001D  30BA               	movlw	186
  1974  001E                     u13_27:
  1975  001E  0B89               	decfsz	9,f
  1976  001F  281E               	goto	u13_27
  1977  0020  0BF0               	decfsz	??_Supercar,f
  1978  0021  281E               	goto	u13_27
  1979  0022  0BF1               	decfsz	??_Supercar+1,f
  1980  0023  281E               	goto	u13_27
  1981  0024  3200               	nop2
  1982                           
  1983                           ;mcc_generated_files/pin_manager.c: 64:     PORTB=0b00000100;
  1984  0025  3004               	movlw	4
  1985  0026  0020               	movlb	0	; select bank0
  1986  0027  008D               	movwf	13	;volatile
  1987                           
  1988                           ;mcc_generated_files/pin_manager.c: 65:     for(i=2;i<7;i++)
  1989  0028  3002               	movlw	2
  1990  0029  00F2               	movwf	Supercar@i
  1991  002A  3000               	movlw	0
  1992  002B  00F3               	movwf	Supercar@i+1
  1993  002C                     i1l754:
  1994                           
  1995                           ;mcc_generated_files/pin_manager.c: 66:     {;mcc_generated_files/pin_manager.c: 67:    
      +                               PORTB=PORTB<<1;
  1996  002C  0020               	movlb	0	; select bank0
  1997  002D  350D               	lslf	13,w	;volatile
  1998  002E  008D               	movwf	13	;volatile
  1999  002F                     i1l756:
  2000                           
  2001                           ;mcc_generated_files/pin_manager.c: 68:         _delay((unsigned long)((100)*(4000000/40
      +                          00.0)));
  2002  002F  3082               	movlw	130
  2003  0030  00F0               	movwf	??_Supercar
  2004  0031  30DE               	movlw	222
  2005  0032                     u14_27:
  2006  0032  0B89               	decfsz	9,f
  2007  0033  2832               	goto	u14_27
  2008  0034  0BF0               	decfsz	??_Supercar,f
  2009  0035  2832               	goto	u14_27
  2010  0036                     i1l758:
  2011                           
  2012                           ;mcc_generated_files/pin_manager.c: 69:     }
  2013  0036  3001               	movlw	1
  2014  0037  07F2               	addwf	Supercar@i,f
  2015  0038  3000               	movlw	0
  2016  0039  3DF3               	addwfc	Supercar@i+1,f
  2017  003A                     i1l760:
  2018  003A  0873               	movf	Supercar@i+1,w
  2019  003B  3A80               	xorlw	128
  2020  003C  00F0               	movwf	??_Supercar
  2021  003D  3080               	movlw	128
  2022  003E  0270               	subwf	??_Supercar,w
  2023  003F  1D03               	skipz
  2024  0040  2843               	goto	u1_25
  2025  0041  3007               	movlw	7
  2026  0042  0272               	subwf	Supercar@i,w
  2027  0043                     u1_25:
  2028  0043  1C03               	skipc
  2029  0044  2846               	goto	u1_21
  2030  0045  2847               	goto	u1_20
  2031  0046                     u1_21:
  2032  0046  282C               	goto	i1l754
  2033  0047                     u1_20:
  2034  0047                     i1l762:
  2035                           
  2036                           ;mcc_generated_files/pin_manager.c: 70:     for(i=2;i<7;i++)
  2037  0047  3002               	movlw	2
  2038  0048  00F2               	movwf	Supercar@i
  2039  0049  3000               	movlw	0
  2040  004A  00F3               	movwf	Supercar@i+1
  2041  004B                     i1l766:
  2042                           
  2043                           ;mcc_generated_files/pin_manager.c: 71:     {;mcc_generated_files/pin_manager.c: 72:    
      +                               PORTB=PORTB>>1;
  2044  004B  0020               	movlb	0	; select bank0
  2045  004C  360D               	lsrf	13,w	;volatile
  2046  004D  008D               	movwf	13	;volatile
  2047  004E                     i1l768:
  2048                           
  2049                           ;mcc_generated_files/pin_manager.c: 73:         _delay((unsigned long)((100)*(4000000/40
      +                          00.0)));
  2050  004E  3082               	movlw	130
  2051  004F  00F0               	movwf	??_Supercar
  2052  0050  30DE               	movlw	222
  2053  0051                     u15_27:
  2054  0051  0B89               	decfsz	9,f
  2055  0052  2851               	goto	u15_27
  2056  0053  0BF0               	decfsz	??_Supercar,f
  2057  0054  2851               	goto	u15_27
  2058  0055                     i1l770:
  2059                           
  2060                           ;mcc_generated_files/pin_manager.c: 74:     }
  2061  0055  3001               	movlw	1
  2062  0056  07F2               	addwf	Supercar@i,f
  2063  0057  3000               	movlw	0
  2064  0058  3DF3               	addwfc	Supercar@i+1,f
  2065  0059                     i1l772:
  2066  0059  0873               	movf	Supercar@i+1,w
  2067  005A  3A80               	xorlw	128
  2068  005B  00F0               	movwf	??_Supercar
  2069  005C  3080               	movlw	128
  2070  005D  0270               	subwf	??_Supercar,w
  2071  005E  1D03               	skipz
  2072  005F  2862               	goto	u2_25
  2073  0060  3007               	movlw	7
  2074  0061  0272               	subwf	Supercar@i,w
  2075  0062                     u2_25:
  2076  0062  1C03               	skipc
  2077  0063  2865               	goto	u2_21
  2078  0064  2866               	goto	u2_20
  2079  0065                     u2_21:
  2080  0065  284B               	goto	i1l766
  2081  0066                     u2_20:
  2082  0066                     i1l774:
  2083                           
  2084                           ;mcc_generated_files/pin_manager.c: 75:     PORTB=0b00000000;
  2085  0066  0020               	movlb	0	; select bank0
  2086  0067  018D               	clrf	13	;volatile
  2087  0068                     i1l67:
  2088  0068  0008               	return
  2089  0069                     __end_of_Supercar:
  2090                           
  2091                           	psect	text14
  2092  0130                     __ptext14:	
  2093 ;; *************** function _IOCBF0_DefaultInterruptHandler *****************
  2094 ;; Defined at:
  2095 ;;		line 185 in file "mcc_generated_files/pin_manager.c"
  2096 ;; Parameters:    Size  Location     Type
  2097 ;;		None
  2098 ;; Auto vars:     Size  Location     Type
  2099 ;;		None
  2100 ;; Return value:  Size  Location     Type
  2101 ;;                  1    wreg      void 
  2102 ;; Registers used:
  2103 ;;		None
  2104 ;; Tracked objects:
  2105 ;;		On entry : 0/0
  2106 ;;		On exit  : 0/0
  2107 ;;		Unchanged: 0/0
  2108 ;; Data sizes:     COMMON   BANK0   BANK1   BANK2   BANK3   BANK4
  2109 ;;      Params:         0       0       0       0       0       0
  2110 ;;      Locals:         0       0       0       0       0       0
  2111 ;;      Temps:          0       0       0       0       0       0
  2112 ;;      Totals:         0       0       0       0       0       0
  2113 ;;Total ram usage:        0 bytes
  2114 ;; Hardware stack levels used:    1
  2115 ;; This function calls:
  2116 ;;		Nothing
  2117 ;; This function is called by:
  2118 ;;		_PIN_MANAGER_Initialize
  2119 ;;		_IOCBF0_ISR
  2120 ;; This function uses a non-reentrant model
  2121 ;;
  2122                           
  2123                           
  2124                           ;psect for function _IOCBF0_DefaultInterruptHandler
  2125  0130                     _IOCBF0_DefaultInterruptHandler:
  2126  0130                     i1l91:	
  2127                           ;incstack = 0
  2128                           ; Regs used in _IOCBF0_DefaultInterruptHandler: []
  2129                           
  2130  0130  0008               	return
  2131  0131                     __end_of_IOCBF0_DefaultInterruptHandler:
  2132  007E                     btemp	set	126	;btemp
  2133  007E                     int$flags	set	126
  2134  007E                     wtemp0	set	126
  2135                           
  2136                           	psect	config
  2137                           
  2138                           ;Config register CONFIG1 @ 0x8007
  2139                           ;	Oscillator Selection
  2140                           ;	FOSC = INTOSC, INTOSC oscillator: I/O function on CLKIN pin
  2141                           ;	Watchdog Timer Enable
  2142                           ;	WDTE = OFF, WDT disabled
  2143                           ;	Power-up Timer Enable
  2144                           ;	PWRTE = OFF, PWRT disabled
  2145                           ;	MCLR Pin Function Select
  2146                           ;	MCLRE = ON, MCLR/VPP pin function is MCLR
  2147                           ;	Flash Program Memory Code Protection
  2148                           ;	CP = OFF, Program memory code protection is disabled
  2149                           ;	Data Memory Code Protection
  2150                           ;	CPD = OFF, Data memory code protection is disabled
  2151                           ;	Brown-out Reset Enable
  2152                           ;	BOREN = ON, Brown-out Reset enabled
  2153                           ;	Clock Out Enable
  2154                           ;	CLKOUTEN = OFF, CLKOUT function is disabled. I/O or oscillator function on the CLKOUT 
      +                          pin
  2155                           ;	Internal/External Switchover
  2156                           ;	IESO = ON, Internal/External Switchover mode is enabled
  2157                           ;	Fail-Safe Clock Monitor Enable
  2158                           ;	FCMEN = ON, Fail-Safe Clock Monitor is enabled
  2159  8007                     	org	32775
  2160  8007  3FE4               	dw	16356
  2161                           
  2162                           ;Config register CONFIG2 @ 0x8008
  2163                           ;	Flash Memory Self-Write Protection
  2164                           ;	WRT = OFF, Write protection off
  2165                           ;	PLL Enable
  2166                           ;	PLLEN = OFF, 4x PLL disabled
  2167                           ;	Stack Overflow/Underflow Reset Enable
  2168                           ;	STVREN = ON, Stack Overflow or Underflow will cause a Reset
  2169                           ;	Brown-out Reset Voltage Selection
  2170                           ;	BORV = LO, Brown-out Reset Voltage (Vbor), low trip point selected.
  2171                           ;	Low-Voltage Programming Enable
  2172                           ;	LVP = ON, Low-voltage programming enabled
  2173  8008                     	org	32776
  2174  8008  3EFF               	dw	16127

Data Sizes:
    Strings     0
    Constant    0
    Data        0
    BSS         0
    Persistent  36
    Stack       0

Auto Spaces:
    Space          Size  Autos    Used
    COMMON           14      7      11
    BANK0            80      2       2
    BANK1            80      0       0
    BANK2            80      0       0
    BANK3            80      0       0
    BANK4            48      0       0

Pointer List with Targets:

    IOCBF1_SetInterruptHandler@InterruptHandler	PTR FTN()void  size(2) Largest target is 1
		 -> IOCBF1_DefaultInterruptHandler(), 

    IOCBF1_InterruptHandler	PTR FTN()void  size(2) Largest target is 1
		 -> Absolute function(), IOCBF1_DefaultInterruptHandler(), 

    IOCBF0_SetInterruptHandler@InterruptHandler	PTR FTN()void  size(2) Largest target is 1
		 -> IOCBF0_DefaultInterruptHandler(), 

    IOCBF0_InterruptHandler	PTR FTN()void  size(2) Largest target is 1
		 -> Absolute function(), IOCBF0_DefaultInterruptHandler(), 


Critical Paths under _main in COMMON

    None.

Critical Paths under _INTERRUPT_InterruptManager in COMMON

    _PIN_MANAGER_IOC->_IOCBF0_ISR
    _IOCBF1_ISR->_LampSfas
    _IOCBF0_ISR->_Supercar

Critical Paths under _main in BANK0

    _PIN_MANAGER_Initialize->_IOCBF0_SetInterruptHandler
    _PIN_MANAGER_Initialize->_IOCBF1_SetInterruptHandler

Critical Paths under _INTERRUPT_InterruptManager in BANK0

    None.

Critical Paths under _main in BANK1

    None.

Critical Paths under _INTERRUPT_InterruptManager in BANK1

    None.

Critical Paths under _main in BANK2

    None.

Critical Paths under _INTERRUPT_InterruptManager in BANK2

    None.

Critical Paths under _main in BANK3

    None.

Critical Paths under _INTERRUPT_InterruptManager in BANK3

    None.

Critical Paths under _main in BANK4

    None.

Critical Paths under _INTERRUPT_InterruptManager in BANK4

    None.

Call Graph Tables:

 ---------------------------------------------------------------------------------
 (Depth) Function   	        Calls       Base Space   Used Autos Params    Refs
 ---------------------------------------------------------------------------------
 (0) _main                                                 0     0      0     242
                  _SYSTEM_Initialize
 ---------------------------------------------------------------------------------
 (1) _SYSTEM_Initialize                                    0     0      0     242
              _OSCILLATOR_Initialize
             _PIN_MANAGER_Initialize
                     _WDT_Initialize
 ---------------------------------------------------------------------------------
 (2) _WDT_Initialize                                       0     0      0       0
 ---------------------------------------------------------------------------------
 (2) _PIN_MANAGER_Initialize                               0     0      0     242
         _IOCBF0_SetInterruptHandler
         _IOCBF1_SetInterruptHandler
 ---------------------------------------------------------------------------------
 (3) _IOCBF1_SetInterruptHandler                           2     0      2     121
                                              0 BANK0      2     0      2
 ---------------------------------------------------------------------------------
 (3) _IOCBF0_SetInterruptHandler                           2     0      2     121
                                              0 BANK0      2     0      2
 ---------------------------------------------------------------------------------
 (2) _OSCILLATOR_Initialize                                0     0      0       0
 ---------------------------------------------------------------------------------
 Estimated maximum stack depth 3
 ---------------------------------------------------------------------------------
 (Depth) Function   	        Calls       Base Space   Used Autos Params    Refs
 ---------------------------------------------------------------------------------
 (4) _INTERRUPT_InterruptManager                           0     0      0     120
                    _PIN_MANAGER_IOC
 ---------------------------------------------------------------------------------
 (5) _PIN_MANAGER_IOC                                      0     0      0     120
                         _IOCBF0_ISR
                         _IOCBF1_ISR
 ---------------------------------------------------------------------------------
 (6) _IOCBF1_ISR                                           3     3      0      30
                                              1 COMMON     3     3      0
                   Absolute function *
     _IOCBF1_DefaultInterruptHandler *
                           _LampSfas
 ---------------------------------------------------------------------------------
 (7) _LampSfas                                             1     1      0       0
                                              0 COMMON     1     1      0
 ---------------------------------------------------------------------------------
 (7) _IOCBF1_DefaultInterruptHandler                       0     0      0       0
 ---------------------------------------------------------------------------------
 (6) _IOCBF0_ISR                                           3     3      0      90
                                              4 COMMON     3     3      0
                   Absolute function *
     _IOCBF0_DefaultInterruptHandler *
                           _Supercar
 ---------------------------------------------------------------------------------
 (7) _Supercar                                             4     4      0      60
                                              0 COMMON     4     4      0
 ---------------------------------------------------------------------------------
 (7) _IOCBF0_DefaultInterruptHandler                       0     0      0       0
 ---------------------------------------------------------------------------------
 (7) Absolute function(Fake)                               0     0      0       0
 ---------------------------------------------------------------------------------
 Estimated maximum stack depth 7
 ---------------------------------------------------------------------------------

 Call Graph Graphs:

 _main (ROOT)
   _SYSTEM_Initialize
     _OSCILLATOR_Initialize
     _PIN_MANAGER_Initialize
       _IOCBF0_SetInterruptHandler
       _IOCBF1_SetInterruptHandler
     _WDT_Initialize

 _INTERRUPT_InterruptManager (ROOT)
   _PIN_MANAGER_IOC
     _IOCBF0_ISR
       Absolute function(Fake) *
       _IOCBF0_DefaultInterruptHandler *
       _Supercar *
     _IOCBF1_ISR
       Absolute function(Fake) *
       _IOCBF1_DefaultInterruptHandler *
       _LampSfas *

 Address spaces:
Name               Size   Autos  Total    Cost      Usage
BIGRAM             170      0       0       0        0.0%
EEDATA             100      0       0       0        0.0%
NULL                 0      0       0       0        0.0%
CODE                 0      0       0       0        0.0%
BITCOMMON            E      0       0       1        0.0%
BITSFR0              0      0       0       1        0.0%
SFR0                 0      0       0       1        0.0%
COMMON               E      7       B       2       78.6%
BITSFR1              0      0       0       2        0.0%
SFR1                 0      0       0       2        0.0%
BITSFR2              0      0       0       3        0.0%
SFR2                 0      0       0       3        0.0%
STACK                0      0       0       3        0.0%
BITSFR3              0      0       0       4        0.0%
SFR3                 0      0       0       4        0.0%
ABS                  0      0       D       4        0.0%
BITBANK0            50      0       0       5        0.0%
BITSFR4              0      0       0       5        0.0%
SFR4                 0      0       0       5        0.0%
BANK0               50      2       2       6        2.5%
BITSFR5              0      0       0       6        0.0%
SFR5                 0      0       0       6        0.0%
BITBANK1            50      0       0       7        0.0%
BITSFR6              0      0       0       7        0.0%
SFR6                 0      0       0       7        0.0%
BANK1               50      0       0       8        0.0%
BITSFR7              0      0       0       8        0.0%
SFR7                 0      0       0       8        0.0%
BITBANK2            50      0       0       9        0.0%
BITSFR8              0      0       0       9        0.0%
SFR8                 0      0       0       9        0.0%
BANK2               50      0       0      10        0.0%
BITSFR9              0      0       0      10        0.0%
SFR9                 0      0       0      10        0.0%
BITBANK3            50      0       0      11        0.0%
BITSFR10             0      0       0      11        0.0%
SFR10                0      0       0      11        0.0%
BANK3               50      0       0      12        0.0%
BITSFR11             0      0       0      12        0.0%
SFR11                0      0       0      12        0.0%
BITBANK4            30      0       0      13        0.0%
BITSFR12             0      0       0      13        0.0%
SFR12                0      0       0      13        0.0%
BANK4               30      0       0      14        0.0%
BITSFR13             0      0       0      14        0.0%
SFR13                0      0       0      14        0.0%
BITSFR14             0      0       0      15        0.0%
SFR14                0      0       0      15        0.0%
DATA                 0      0       D      15        0.0%
BITSFR15             0      0       0      16        0.0%
SFR15                0      0       0      16        0.0%
BITSFR16             0      0       0      17        0.0%
SFR16                0      0       0      17        0.0%
BITSFR17             0      0       0      18        0.0%
SFR17                0      0       0      18        0.0%
BITSFR18             0      0       0      19        0.0%
SFR18                0      0       0      19        0.0%
BITSFR19             0      0       0      20        0.0%
SFR19                0      0       0      20        0.0%
BITSFR20             0      0       0      21        0.0%
SFR20                0      0       0      21        0.0%
BITSFR21             0      0       0      22        0.0%
SFR21                0      0       0      22        0.0%
BITSFR22             0      0       0      23        0.0%
SFR22                0      0       0      23        0.0%
BITSFR23             0      0       0      24        0.0%
SFR23                0      0       0      24        0.0%
BITSFR24             0      0       0      25        0.0%
SFR24                0      0       0      25        0.0%
BITSFR25             0      0       0      26        0.0%
SFR25                0      0       0      26        0.0%
BITSFR26             0      0       0      27        0.0%
SFR26                0      0       0      27        0.0%
BITSFR27             0      0       0      28        0.0%
SFR27                0      0       0      28        0.0%
BITSFR28             0      0       0      29        0.0%
SFR28                0      0       0      29        0.0%
BITSFR29             0      0       0      30        0.0%
SFR29                0      0       0      30        0.0%
BITSFR30             0      0       0      31        0.0%
SFR30                0      0       0      31        0.0%
BITSFR31             0      0       0      32        0.0%
SFR31                0      0       0      32        0.0%


Microchip Technology PIC Macro Assembler V2.31 build 20201012212115 
Symbol Table                                                                                   Thu Nov 11 10:34:35 2021

                                        l74 0095                                          l88 012A  
                                       l100 0124                                         l120 010F  
                                       l123 011E                                         l126 012E  
                                       l135 0115                                         l136 0115  
                                       l930 0125                                         l932 011F  
                                       l940 0073                                         l950 007C  
                                       l942 0075                                         l934 0069  
                                       l960 0082                                         l952 007D  
                                       l944 0077                                         l936 006C  
                                       l970 0118                                         l962 0083  
                                       l954 007F                                         l946 0078  
                                       l938 006F                                         l972 011B  
                                       l964 0084                                         l956 0080  
                                       l948 007A                                         l980 0110  
                                       l974 011C                                         l966 008C  
                                       l958 0081                                         l982 0113  
                                       l968 0094                                         l976 012B  
                                       l984 0114                                         l978 0106  
                                       wreg 0009          __end_of_IOCBF1_SetInterruptHandler 0125  
                _IOCBF1_SetInterruptHandler 011F                                        _LATA 010C  
                                      _LATB 010D                                        i1l11 0011  
                                      i1l60 00F4                                        i1l91 0130  
                                      i1l67 0068                                        i1l85 00DD  
                                      i1l79 0105                                        i1l97 00B9  
                                      _WPUA 020C                                        _WPUB 020D  
                                      u1_20 0047                                        u1_21 0046  
                                      u1_25 0043                                        u2_20 0066  
                                      u2_21 0065                                        u2_25 0062  
                                      u3_20 00D0                                        u3_21 00CF  
                                      u3_25 00CC                                        u4_20 00D6  
                                      u4_21 00D5                                        u5_20 00AC  
                                      u5_21 00AB                                        u5_25 00A8  
                                      u6_20 00B2                                        u6_21 00B1  
                                      u7_20 00FA                                        u7_21 00F9  
                                      u8_20 0102                                        u8_21 0101  
                                      u9_20 000A                                        u9_21 0009  
                                      _main 0110                                        btemp 007E  
                                      start 0013              __size_of_OSCILLATOR_Initialize 0007  
                       __size_of_IOCBF0_ISR 0024                         __size_of_IOCBF1_ISR 0024  
             __end_of_OSCILLATOR_Initialize 011F                                       ?_main 0070  
                                     i1l103 012F                                       i1l750 0019  
                                     i1l830 00D6                                       i1l822 00BC  
                                     i1l760 003A                                       i1l832 00DB  
                                     i1l824 00BF                                       i1l816 00BA  
                                     i1l840 0098                                       i1l770 0055  
                                     i1l762 0047                                       i1l754 002C  
                                     i1l826 00C3                                       i1l746 00DE  
                                     i1l850 00B7                                       i1l842 009B  
                                     i1l834 0096                                       i1l772 0059  
                                     i1l756 002F                                       i1l828 00D0  
                                     i1l748 00F2                                       i1l844 009F  
                                     i1l860 00F5                                       i1l774 0066  
                                     i1l766 004B                                       i1l758 0036  
                                     i1l846 00AC                                       i1l862 00FA  
                                     i1l870 0006                                       i1l768 004E  
                                     i1l848 00B2                                       i1l864 00FD  
                                     i1l872 000A                                       i1l866 0102  
                                     i1l874 000E                                       u10_20 000E  
                                     u10_21 000D                                       u11_27 00E4  
                                     u12_27 00EE                                       u13_27 001E  
                                     u14_27 0032                                       u15_27 0051  
                                     _PORTB 000D                                       _TRISA 008C  
                                     _TRISB 008D                     __end_of_PIN_MANAGER_IOC 0106  
                            _WDT_Initialize 012B                                       pclath 000A  
                                     status 0003                                       wtemp0 007E  
                           __initialization 0015                            __end_of_LampSfas 00F5  
                              __end_of_main 0118                 ?_INTERRUPT_InterruptManager 0070  
                                    ??_main 0022                     _IOCBF0_InterruptHandler 0079  
                    __end_of_WDT_Initialize 012F                            __end_of_Supercar 0069  
                                    _ANSELA 018C                                      _ANSELB 018D  
                                    _BORCON 0116                                      _OSCCON 0099  
                                    _WDTCON 0097                             ?_WDT_Initialize 0070  
IOCBF1_SetInterruptHandler@InterruptHandler 0020  IOCBF0_SetInterruptHandler@InterruptHandler 0020  
                          ?_PIN_MANAGER_IOC 0070                                ??_IOCBF0_ISR 0074  
                              ??_IOCBF1_ISR 0071                           _SYSTEM_Initialize 0106  
                   __end_of__initialization 0015                          ?_SYSTEM_Initialize 0070  
                            __pcstackCOMMON 0070                         ??_SYSTEM_Initialize 0022  
    __end_of_IOCBF0_DefaultInterruptHandler 0131     __size_of_IOCBF0_DefaultInterruptHandler 0001  
            _IOCBF0_DefaultInterruptHandler 0130                          __end_of_IOCBF0_ISR 00DE  
                        __end_of_IOCBF1_ISR 00BA                              _OPTION_REGbits 0095  
               ?_IOCBF1_SetInterruptHandler 0020                   __end_of_SYSTEM_Initialize 0110  
                                 ?_LampSfas 0070                                  __pnvCOMMON 0077  
          ??_IOCBF1_DefaultInterruptHandler 0070             ?_IOCBF1_DefaultInterruptHandler 0070  
                   _IOCBF1_InterruptHandler 0077                                  __pmaintext 0110  
                                __pintentry 0004                                   ?_Supercar 0070  
                                   _APFCON0 011D                                     _APFCON1 011E  
                                   _OSCTUNE 0098                                  ??_LampSfas 0070  
                                ??_Supercar 0070                                     __ptext1 0106  
                                   __ptext2 012B                                     __ptext3 0069  
                                   __ptext4 011F                                     __ptext5 0125  
                                   __ptext6 0118                                     __ptext8 00F5  
                                   __ptext9 0096                       _OSCILLATOR_Initialize 0118  
                  ??_PIN_MANAGER_Initialize 0022                                   _IOCBFbits 0396  
                                 _IOCBNbits 0395                                   _IOCBPbits 0394  
                __size_of_SYSTEM_Initialize 000A                        end_of_initialization 0015  
                          ??_WDT_Initialize 0020                ??_IOCBF0_SetInterruptHandler 0022  
       __size_of_IOCBF0_SetInterruptHandler 0006                      ?_OSCILLATOR_Initialize 0070  
                       start_initialization 0015             __size_of_PIN_MANAGER_Initialize 002D  
                         __size_of_LampSfas 0017                    __size_of_PIN_MANAGER_IOC 0011  
    __end_of_IOCBF1_DefaultInterruptHandler 0130     __size_of_IOCBF1_DefaultInterruptHandler 0001  
            _IOCBF1_DefaultInterruptHandler 012F                           __size_of_Supercar 0050  
                                 ___latbits 0001                               __pcstackBANK0 0020  
                                 Supercar@i 0072                      _PIN_MANAGER_Initialize 0069  
              ??_INTERRUPT_InterruptManager 0077          __end_of_IOCBF0_SetInterruptHandler 012B  
                _IOCBF0_SetInterruptHandler 0125         __size_of_INTERRUPT_InterruptManager 000F  
                         ??_PIN_MANAGER_IOC 0077                                    _LampSfas 00DE  
                   ??_OSCILLATOR_Initialize 0020                                    _Supercar 0019  
                                  __ptext10 00DE                                    __ptext11 012F  
                                  __ptext12 00BA                                    __ptext13 0019  
                                  __ptext14 0130                ??_IOCBF1_SetInterruptHandler 0022  
                                _IOCBF0_ISR 00BA                                  _IOCBF1_ISR 0096  
                             __size_of_main 0008                                    int$flags 007E  
        __end_of_INTERRUPT_InterruptManager 0013                  _INTERRUPT_InterruptManager 0004  
       __size_of_IOCBF1_SetInterruptHandler 0006                                  _INTCONbits 000B  
                   __size_of_WDT_Initialize 0004                                    intlevel1 0000  
                   ?_PIN_MANAGER_Initialize 0070                                 IOCBF0_ISR@i 0075  
                               IOCBF1_ISR@i 0072                 ?_IOCBF0_SetInterruptHandler 0020  
                               ?_IOCBF0_ISR 0070                                 ?_IOCBF1_ISR 0070  
            __end_of_PIN_MANAGER_Initialize 0096            ??_IOCBF0_DefaultInterruptHandler 0070  
           ?_IOCBF0_DefaultInterruptHandler 0070                             _PIN_MANAGER_IOC 00F5  
