

Microchip MPLAB XC8 Assembler V2.31 build 20201012212115 
                                                                                               Thu Oct 14 10:46:05 2021

Microchip MPLAB XC8 C Compiler v2.31 (Free license) build 20201012212115 Og1 
     1                           	processor	16F1827
     2                           	pagewidth 120
     3                           	opt	flic
     4                           	psect	nvCOMMON,global,class=COMMON,space=1,delta=1,noexec
     5                           	psect	cinit,global,class=CODE,merge=1,delta=2
     6                           	psect	bssCOMMON,global,class=COMMON,space=1,delta=1,noexec
     7                           	psect	cstackCOMMON,global,class=COMMON,space=1,delta=1,noexec
     8                           	psect	maintext,global,class=CODE,merge=1,split=1,delta=2
     9                           	psect	text1,local,class=CODE,merge=1,delta=2
    10                           	psect	text2,local,class=CODE,merge=1,delta=2
    11                           	psect	text3,local,class=CODE,merge=1,delta=2
    12                           	psect	text4,local,class=CODE,merge=1,delta=2
    13                           	psect	text5,local,class=CODE,merge=1,delta=2
    14                           	psect	text6,local,class=CODE,merge=1,delta=2
    15                           	psect	intentry,global,class=CODE,delta=2
    16                           	psect	text8,local,class=CODE,merge=1,delta=2
    17                           	psect	text9,local,class=CODE,merge=1,delta=2
    18                           	psect	config,global,abs,ovrld,class=CONFIG,space=4,delta=2,noexec
    19                           	dabs	1,0x7E,2
    20  0000                     
    21                           ; Version 2.20
    22                           ; Generated 12/02/2020 GMT
    23                           ; 
    24                           ; Copyright © 2020, Microchip Technology Inc. and its subsidiaries ("Microchip")
    25                           ; All rights reserved.
    26                           ; 
    27                           ; This software is developed by Microchip Technology Inc. and its subsidiaries ("Microch
      +                          ip").
    28                           ; 
    29                           ; Redistribution and use in source and binary forms, with or without modification, are
    30                           ; permitted provided that the following conditions are met:
    31                           ; 
    32                           ;     1. Redistributions of source code must retain the above copyright notice, this lis
      +                          t of
    33                           ;        conditions and the following disclaimer.
    34                           ; 
    35                           ;     2. Redistributions in binary form must reproduce the above copyright notice, this 
      +                          list
    36                           ;        of conditions and the following disclaimer in the documentation and/or other
    37                           ;        materials provided with the distribution.
    38                           ; 
    39                           ;     3. Microchip's name may not be used to endorse or promote products derived from th
      +                          is
    40                           ;        software without specific prior written permission.
    41                           ; 
    42                           ; THIS SOFTWARE IS PROVIDED BY MICROCHIP "AS IS" AND ANY EXPRESS OR IMPLIED WARRANTIES,
    43                           ; INCLUDING, BUT NOT LIMITED TO, THE IMPLIED WARRANTIES OF MERCHANTABILITY AND FITNESS F
      +                          OR
    44                           ; PURPOSE ARE DISCLAIMED.  IN NO EVENT SHALL MICROCHIP BE LIABLE FOR ANY DIRECT, INDIREC
      +                          T,
    45                           ; INCIDENTAL, SPECIAL, EXEMPLARY, OR CONSEQUENTIAL DAMAGES (INCLUDING BUT NOT LIMITED TO
    46                           ; PROCUREMENT OF SUBSTITUTE GOODS OR SERVICES; LOSS OF USE, DATA OR PROFITS; OR BUSINESS
    47                           ; INTERRUPTION) HOWSOEVER CAUSED AND ON ANY THEORY OF LIABILITY, WHETHER IN CONTRACT, ST
      +                          RICT
    48                           ; LIABILITY, OR TORT (INCLUDING NEGLIGENCE OR OTHERWISE) ARISING IN ANY WAY OUT OF THE U
      +                          SE OF
    49                           ; THIS SOFTWARE, EVEN IF ADVISED OF THE POSSIBILITY OF SUCH DAMAGE.
    50                           ; 
    51                           ; 
    52                           ; Code-generator required, PIC16F1827 Definitions
    53                           ; 
    54                           ; SFR Addresses
    55  0000                     	;# 
    56  0001                     	;# 
    57  0002                     	;# 
    58  0003                     	;# 
    59  0004                     	;# 
    60  0005                     	;# 
    61  0006                     	;# 
    62  0007                     	;# 
    63  0008                     	;# 
    64  0009                     	;# 
    65  000A                     	;# 
    66  000B                     	;# 
    67  000C                     	;# 
    68  000D                     	;# 
    69  0011                     	;# 
    70  0012                     	;# 
    71  0013                     	;# 
    72  0014                     	;# 
    73  0015                     	;# 
    74  0016                     	;# 
    75  0016                     	;# 
    76  0017                     	;# 
    77  0018                     	;# 
    78  0019                     	;# 
    79  001A                     	;# 
    80  001B                     	;# 
    81  001C                     	;# 
    82  001E                     	;# 
    83  001F                     	;# 
    84  008C                     	;# 
    85  008D                     	;# 
    86  0091                     	;# 
    87  0092                     	;# 
    88  0093                     	;# 
    89  0094                     	;# 
    90  0095                     	;# 
    91  0096                     	;# 
    92  0097                     	;# 
    93  0098                     	;# 
    94  0099                     	;# 
    95  009A                     	;# 
    96  009B                     	;# 
    97  009B                     	;# 
    98  009C                     	;# 
    99  009D                     	;# 
   100  009E                     	;# 
   101  010C                     	;# 
   102  010D                     	;# 
   103  0111                     	;# 
   104  0112                     	;# 
   105  0113                     	;# 
   106  0114                     	;# 
   107  0115                     	;# 
   108  0116                     	;# 
   109  0117                     	;# 
   110  0118                     	;# 
   111  0119                     	;# 
   112  011A                     	;# 
   113  011B                     	;# 
   114  011D                     	;# 
   115  011E                     	;# 
   116  018C                     	;# 
   117  018D                     	;# 
   118  0191                     	;# 
   119  0191                     	;# 
   120  0192                     	;# 
   121  0193                     	;# 
   122  0193                     	;# 
   123  0193                     	;# 
   124  0194                     	;# 
   125  0195                     	;# 
   126  0196                     	;# 
   127  0199                     	;# 
   128  019A                     	;# 
   129  019B                     	;# 
   130  019B                     	;# 
   131  019B                     	;# 
   132  019B                     	;# 
   133  019C                     	;# 
   134  019C                     	;# 
   135  019D                     	;# 
   136  019E                     	;# 
   137  019F                     	;# 
   138  020C                     	;# 
   139  020D                     	;# 
   140  0211                     	;# 
   141  0211                     	;# 
   142  0212                     	;# 
   143  0212                     	;# 
   144  0213                     	;# 
   145  0213                     	;# 
   146  0214                     	;# 
   147  0214                     	;# 
   148  0215                     	;# 
   149  0215                     	;# 
   150  0215                     	;# 
   151  0216                     	;# 
   152  0216                     	;# 
   153  0217                     	;# 
   154  0217                     	;# 
   155  0219                     	;# 
   156  021A                     	;# 
   157  021B                     	;# 
   158  021C                     	;# 
   159  021D                     	;# 
   160  021E                     	;# 
   161  021F                     	;# 
   162  0291                     	;# 
   163  0291                     	;# 
   164  0292                     	;# 
   165  0293                     	;# 
   166  0294                     	;# 
   167  0295                     	;# 
   168  0295                     	;# 
   169  0296                     	;# 
   170  0298                     	;# 
   171  0298                     	;# 
   172  0299                     	;# 
   173  029A                     	;# 
   174  029B                     	;# 
   175  029C                     	;# 
   176  029C                     	;# 
   177  029D                     	;# 
   178  029E                     	;# 
   179  029E                     	;# 
   180  0311                     	;# 
   181  0311                     	;# 
   182  0312                     	;# 
   183  0313                     	;# 
   184  0318                     	;# 
   185  0318                     	;# 
   186  0319                     	;# 
   187  031A                     	;# 
   188  0394                     	;# 
   189  0395                     	;# 
   190  0396                     	;# 
   191  039A                     	;# 
   192  039C                     	;# 
   193  039D                     	;# 
   194  039E                     	;# 
   195  039F                     	;# 
   196  0415                     	;# 
   197  0416                     	;# 
   198  0417                     	;# 
   199  041C                     	;# 
   200  041D                     	;# 
   201  041E                     	;# 
   202  0FE4                     	;# 
   203  0FE5                     	;# 
   204  0FE6                     	;# 
   205  0FE7                     	;# 
   206  0FE8                     	;# 
   207  0FE9                     	;# 
   208  0FEA                     	;# 
   209  0FEB                     	;# 
   210  0FED                     	;# 
   211  0FEE                     	;# 
   212  0FEF                     	;# 
   213  0000                     	;# 
   214  0001                     	;# 
   215  0002                     	;# 
   216  0003                     	;# 
   217  0004                     	;# 
   218  0005                     	;# 
   219  0006                     	;# 
   220  0007                     	;# 
   221  0008                     	;# 
   222  0009                     	;# 
   223  000A                     	;# 
   224  000B                     	;# 
   225  000C                     	;# 
   226  000D                     	;# 
   227  0011                     	;# 
   228  0012                     	;# 
   229  0013                     	;# 
   230  0014                     	;# 
   231  0015                     	;# 
   232  0016                     	;# 
   233  0016                     	;# 
   234  0017                     	;# 
   235  0018                     	;# 
   236  0019                     	;# 
   237  001A                     	;# 
   238  001B                     	;# 
   239  001C                     	;# 
   240  001E                     	;# 
   241  001F                     	;# 
   242  008C                     	;# 
   243  008D                     	;# 
   244  0091                     	;# 
   245  0092                     	;# 
   246  0093                     	;# 
   247  0094                     	;# 
   248  0095                     	;# 
   249  0096                     	;# 
   250  0097                     	;# 
   251  0098                     	;# 
   252  0099                     	;# 
   253  009A                     	;# 
   254  009B                     	;# 
   255  009B                     	;# 
   256  009C                     	;# 
   257  009D                     	;# 
   258  009E                     	;# 
   259  010C                     	;# 
   260  010D                     	;# 
   261  0111                     	;# 
   262  0112                     	;# 
   263  0113                     	;# 
   264  0114                     	;# 
   265  0115                     	;# 
   266  0116                     	;# 
   267  0117                     	;# 
   268  0118                     	;# 
   269  0119                     	;# 
   270  011A                     	;# 
   271  011B                     	;# 
   272  011D                     	;# 
   273  011E                     	;# 
   274  018C                     	;# 
   275  018D                     	;# 
   276  0191                     	;# 
   277  0191                     	;# 
   278  0192                     	;# 
   279  0193                     	;# 
   280  0193                     	;# 
   281  0193                     	;# 
   282  0194                     	;# 
   283  0195                     	;# 
   284  0196                     	;# 
   285  0199                     	;# 
   286  019A                     	;# 
   287  019B                     	;# 
   288  019B                     	;# 
   289  019B                     	;# 
   290  019B                     	;# 
   291  019C                     	;# 
   292  019C                     	;# 
   293  019D                     	;# 
   294  019E                     	;# 
   295  019F                     	;# 
   296  020C                     	;# 
   297  020D                     	;# 
   298  0211                     	;# 
   299  0211                     	;# 
   300  0212                     	;# 
   301  0212                     	;# 
   302  0213                     	;# 
   303  0213                     	;# 
   304  0214                     	;# 
   305  0214                     	;# 
   306  0215                     	;# 
   307  0215                     	;# 
   308  0215                     	;# 
   309  0216                     	;# 
   310  0216                     	;# 
   311  0217                     	;# 
   312  0217                     	;# 
   313  0219                     	;# 
   314  021A                     	;# 
   315  021B                     	;# 
   316  021C                     	;# 
   317  021D                     	;# 
   318  021E                     	;# 
   319  021F                     	;# 
   320  0291                     	;# 
   321  0291                     	;# 
   322  0292                     	;# 
   323  0293                     	;# 
   324  0294                     	;# 
   325  0295                     	;# 
   326  0295                     	;# 
   327  0296                     	;# 
   328  0298                     	;# 
   329  0298                     	;# 
   330  0299                     	;# 
   331  029A                     	;# 
   332  029B                     	;# 
   333  029C                     	;# 
   334  029C                     	;# 
   335  029D                     	;# 
   336  029E                     	;# 
   337  029E                     	;# 
   338  0311                     	;# 
   339  0311                     	;# 
   340  0312                     	;# 
   341  0313                     	;# 
   342  0318                     	;# 
   343  0318                     	;# 
   344  0319                     	;# 
   345  031A                     	;# 
   346  0394                     	;# 
   347  0395                     	;# 
   348  0396                     	;# 
   349  039A                     	;# 
   350  039C                     	;# 
   351  039D                     	;# 
   352  039E                     	;# 
   353  039F                     	;# 
   354  0415                     	;# 
   355  0416                     	;# 
   356  0417                     	;# 
   357  041C                     	;# 
   358  041D                     	;# 
   359  041E                     	;# 
   360  0FE4                     	;# 
   361  0FE5                     	;# 
   362  0FE6                     	;# 
   363  0FE7                     	;# 
   364  0FE8                     	;# 
   365  0FE9                     	;# 
   366  0FEA                     	;# 
   367  0FEB                     	;# 
   368  0FED                     	;# 
   369  0FEE                     	;# 
   370  0FEF                     	;# 
   371  0000                     	;# 
   372  0001                     	;# 
   373  0002                     	;# 
   374  0003                     	;# 
   375  0004                     	;# 
   376  0005                     	;# 
   377  0006                     	;# 
   378  0007                     	;# 
   379  0008                     	;# 
   380  0009                     	;# 
   381  000A                     	;# 
   382  000B                     	;# 
   383  000C                     	;# 
   384  000D                     	;# 
   385  0011                     	;# 
   386  0012                     	;# 
   387  0013                     	;# 
   388  0014                     	;# 
   389  0015                     	;# 
   390  0016                     	;# 
   391  0016                     	;# 
   392  0017                     	;# 
   393  0018                     	;# 
   394  0019                     	;# 
   395  001A                     	;# 
   396  001B                     	;# 
   397  001C                     	;# 
   398  001E                     	;# 
   399  001F                     	;# 
   400  008C                     	;# 
   401  008D                     	;# 
   402  0091                     	;# 
   403  0092                     	;# 
   404  0093                     	;# 
   405  0094                     	;# 
   406  0095                     	;# 
   407  0096                     	;# 
   408  0097                     	;# 
   409  0098                     	;# 
   410  0099                     	;# 
   411  009A                     	;# 
   412  009B                     	;# 
   413  009B                     	;# 
   414  009C                     	;# 
   415  009D                     	;# 
   416  009E                     	;# 
   417  010C                     	;# 
   418  010D                     	;# 
   419  0111                     	;# 
   420  0112                     	;# 
   421  0113                     	;# 
   422  0114                     	;# 
   423  0115                     	;# 
   424  0116                     	;# 
   425  0117                     	;# 
   426  0118                     	;# 
   427  0119                     	;# 
   428  011A                     	;# 
   429  011B                     	;# 
   430  011D                     	;# 
   431  011E                     	;# 
   432  018C                     	;# 
   433  018D                     	;# 
   434  0191                     	;# 
   435  0191                     	;# 
   436  0192                     	;# 
   437  0193                     	;# 
   438  0193                     	;# 
   439  0193                     	;# 
   440  0194                     	;# 
   441  0195                     	;# 
   442  0196                     	;# 
   443  0199                     	;# 
   444  019A                     	;# 
   445  019B                     	;# 
   446  019B                     	;# 
   447  019B                     	;# 
   448  019B                     	;# 
   449  019C                     	;# 
   450  019C                     	;# 
   451  019D                     	;# 
   452  019E                     	;# 
   453  019F                     	;# 
   454  020C                     	;# 
   455  020D                     	;# 
   456  0211                     	;# 
   457  0211                     	;# 
   458  0212                     	;# 
   459  0212                     	;# 
   460  0213                     	;# 
   461  0213                     	;# 
   462  0214                     	;# 
   463  0214                     	;# 
   464  0215                     	;# 
   465  0215                     	;# 
   466  0215                     	;# 
   467  0216                     	;# 
   468  0216                     	;# 
   469  0217                     	;# 
   470  0217                     	;# 
   471  0219                     	;# 
   472  021A                     	;# 
   473  021B                     	;# 
   474  021C                     	;# 
   475  021D                     	;# 
   476  021E                     	;# 
   477  021F                     	;# 
   478  0291                     	;# 
   479  0291                     	;# 
   480  0292                     	;# 
   481  0293                     	;# 
   482  0294                     	;# 
   483  0295                     	;# 
   484  0295                     	;# 
   485  0296                     	;# 
   486  0298                     	;# 
   487  0298                     	;# 
   488  0299                     	;# 
   489  029A                     	;# 
   490  029B                     	;# 
   491  029C                     	;# 
   492  029C                     	;# 
   493  029D                     	;# 
   494  029E                     	;# 
   495  029E                     	;# 
   496  0311                     	;# 
   497  0311                     	;# 
   498  0312                     	;# 
   499  0313                     	;# 
   500  0318                     	;# 
   501  0318                     	;# 
   502  0319                     	;# 
   503  031A                     	;# 
   504  0394                     	;# 
   505  0395                     	;# 
   506  0396                     	;# 
   507  039A                     	;# 
   508  039C                     	;# 
   509  039D                     	;# 
   510  039E                     	;# 
   511  039F                     	;# 
   512  0415                     	;# 
   513  0416                     	;# 
   514  0417                     	;# 
   515  041C                     	;# 
   516  041D                     	;# 
   517  041E                     	;# 
   518  0FE4                     	;# 
   519  0FE5                     	;# 
   520  0FE6                     	;# 
   521  0FE7                     	;# 
   522  0FE8                     	;# 
   523  0FE9                     	;# 
   524  0FEA                     	;# 
   525  0FEB                     	;# 
   526  0FED                     	;# 
   527  0FEE                     	;# 
   528  0FEF                     	;# 
   529  0000                     	;# 
   530  0001                     	;# 
   531  0002                     	;# 
   532  0003                     	;# 
   533  0004                     	;# 
   534  0005                     	;# 
   535  0006                     	;# 
   536  0007                     	;# 
   537  0008                     	;# 
   538  0009                     	;# 
   539  000A                     	;# 
   540  000B                     	;# 
   541  000C                     	;# 
   542  000D                     	;# 
   543  0011                     	;# 
   544  0012                     	;# 
   545  0013                     	;# 
   546  0014                     	;# 
   547  0015                     	;# 
   548  0016                     	;# 
   549  0016                     	;# 
   550  0017                     	;# 
   551  0018                     	;# 
   552  0019                     	;# 
   553  001A                     	;# 
   554  001B                     	;# 
   555  001C                     	;# 
   556  001E                     	;# 
   557  001F                     	;# 
   558  008C                     	;# 
   559  008D                     	;# 
   560  0091                     	;# 
   561  0092                     	;# 
   562  0093                     	;# 
   563  0094                     	;# 
   564  0095                     	;# 
   565  0096                     	;# 
   566  0097                     	;# 
   567  0098                     	;# 
   568  0099                     	;# 
   569  009A                     	;# 
   570  009B                     	;# 
   571  009B                     	;# 
   572  009C                     	;# 
   573  009D                     	;# 
   574  009E                     	;# 
   575  010C                     	;# 
   576  010D                     	;# 
   577  0111                     	;# 
   578  0112                     	;# 
   579  0113                     	;# 
   580  0114                     	;# 
   581  0115                     	;# 
   582  0116                     	;# 
   583  0117                     	;# 
   584  0118                     	;# 
   585  0119                     	;# 
   586  011A                     	;# 
   587  011B                     	;# 
   588  011D                     	;# 
   589  011E                     	;# 
   590  018C                     	;# 
   591  018D                     	;# 
   592  0191                     	;# 
   593  0191                     	;# 
   594  0192                     	;# 
   595  0193                     	;# 
   596  0193                     	;# 
   597  0193                     	;# 
   598  0194                     	;# 
   599  0195                     	;# 
   600  0196                     	;# 
   601  0199                     	;# 
   602  019A                     	;# 
   603  019B                     	;# 
   604  019B                     	;# 
   605  019B                     	;# 
   606  019B                     	;# 
   607  019C                     	;# 
   608  019C                     	;# 
   609  019D                     	;# 
   610  019E                     	;# 
   611  019F                     	;# 
   612  020C                     	;# 
   613  020D                     	;# 
   614  0211                     	;# 
   615  0211                     	;# 
   616  0212                     	;# 
   617  0212                     	;# 
   618  0213                     	;# 
   619  0213                     	;# 
   620  0214                     	;# 
   621  0214                     	;# 
   622  0215                     	;# 
   623  0215                     	;# 
   624  0215                     	;# 
   625  0216                     	;# 
   626  0216                     	;# 
   627  0217                     	;# 
   628  0217                     	;# 
   629  0219                     	;# 
   630  021A                     	;# 
   631  021B                     	;# 
   632  021C                     	;# 
   633  021D                     	;# 
   634  021E                     	;# 
   635  021F                     	;# 
   636  0291                     	;# 
   637  0291                     	;# 
   638  0292                     	;# 
   639  0293                     	;# 
   640  0294                     	;# 
   641  0295                     	;# 
   642  0295                     	;# 
   643  0296                     	;# 
   644  0298                     	;# 
   645  0298                     	;# 
   646  0299                     	;# 
   647  029A                     	;# 
   648  029B                     	;# 
   649  029C                     	;# 
   650  029C                     	;# 
   651  029D                     	;# 
   652  029E                     	;# 
   653  029E                     	;# 
   654  0311                     	;# 
   655  0311                     	;# 
   656  0312                     	;# 
   657  0313                     	;# 
   658  0318                     	;# 
   659  0318                     	;# 
   660  0319                     	;# 
   661  031A                     	;# 
   662  0394                     	;# 
   663  0395                     	;# 
   664  0396                     	;# 
   665  039A                     	;# 
   666  039C                     	;# 
   667  039D                     	;# 
   668  039E                     	;# 
   669  039F                     	;# 
   670  0415                     	;# 
   671  0416                     	;# 
   672  0417                     	;# 
   673  041C                     	;# 
   674  041D                     	;# 
   675  041E                     	;# 
   676  0FE4                     	;# 
   677  0FE5                     	;# 
   678  0FE6                     	;# 
   679  0FE7                     	;# 
   680  0FE8                     	;# 
   681  0FE9                     	;# 
   682  0FEA                     	;# 
   683  0FEB                     	;# 
   684  0FED                     	;# 
   685  0FEE                     	;# 
   686  0FEF                     	;# 
   687  0000                     	;# 
   688  0001                     	;# 
   689  0002                     	;# 
   690  0003                     	;# 
   691  0004                     	;# 
   692  0005                     	;# 
   693  0006                     	;# 
   694  0007                     	;# 
   695  0008                     	;# 
   696  0009                     	;# 
   697  000A                     	;# 
   698  000B                     	;# 
   699  000C                     	;# 
   700  000D                     	;# 
   701  0011                     	;# 
   702  0012                     	;# 
   703  0013                     	;# 
   704  0014                     	;# 
   705  0015                     	;# 
   706  0016                     	;# 
   707  0016                     	;# 
   708  0017                     	;# 
   709  0018                     	;# 
   710  0019                     	;# 
   711  001A                     	;# 
   712  001B                     	;# 
   713  001C                     	;# 
   714  001E                     	;# 
   715  001F                     	;# 
   716  008C                     	;# 
   717  008D                     	;# 
   718  0091                     	;# 
   719  0092                     	;# 
   720  0093                     	;# 
   721  0094                     	;# 
   722  0095                     	;# 
   723  0096                     	;# 
   724  0097                     	;# 
   725  0098                     	;# 
   726  0099                     	;# 
   727  009A                     	;# 
   728  009B                     	;# 
   729  009B                     	;# 
   730  009C                     	;# 
   731  009D                     	;# 
   732  009E                     	;# 
   733  010C                     	;# 
   734  010D                     	;# 
   735  0111                     	;# 
   736  0112                     	;# 
   737  0113                     	;# 
   738  0114                     	;# 
   739  0115                     	;# 
   740  0116                     	;# 
   741  0117                     	;# 
   742  0118                     	;# 
   743  0119                     	;# 
   744  011A                     	;# 
   745  011B                     	;# 
   746  011D                     	;# 
   747  011E                     	;# 
   748  018C                     	;# 
   749  018D                     	;# 
   750  0191                     	;# 
   751  0191                     	;# 
   752  0192                     	;# 
   753  0193                     	;# 
   754  0193                     	;# 
   755  0193                     	;# 
   756  0194                     	;# 
   757  0195                     	;# 
   758  0196                     	;# 
   759  0199                     	;# 
   760  019A                     	;# 
   761  019B                     	;# 
   762  019B                     	;# 
   763  019B                     	;# 
   764  019B                     	;# 
   765  019C                     	;# 
   766  019C                     	;# 
   767  019D                     	;# 
   768  019E                     	;# 
   769  019F                     	;# 
   770  020C                     	;# 
   771  020D                     	;# 
   772  0211                     	;# 
   773  0211                     	;# 
   774  0212                     	;# 
   775  0212                     	;# 
   776  0213                     	;# 
   777  0213                     	;# 
   778  0214                     	;# 
   779  0214                     	;# 
   780  0215                     	;# 
   781  0215                     	;# 
   782  0215                     	;# 
   783  0216                     	;# 
   784  0216                     	;# 
   785  0217                     	;# 
   786  0217                     	;# 
   787  0219                     	;# 
   788  021A                     	;# 
   789  021B                     	;# 
   790  021C                     	;# 
   791  021D                     	;# 
   792  021E                     	;# 
   793  021F                     	;# 
   794  0291                     	;# 
   795  0291                     	;# 
   796  0292                     	;# 
   797  0293                     	;# 
   798  0294                     	;# 
   799  0295                     	;# 
   800  0295                     	;# 
   801  0296                     	;# 
   802  0298                     	;# 
   803  0298                     	;# 
   804  0299                     	;# 
   805  029A                     	;# 
   806  029B                     	;# 
   807  029C                     	;# 
   808  029C                     	;# 
   809  029D                     	;# 
   810  029E                     	;# 
   811  029E                     	;# 
   812  0311                     	;# 
   813  0311                     	;# 
   814  0312                     	;# 
   815  0313                     	;# 
   816  0318                     	;# 
   817  0318                     	;# 
   818  0319                     	;# 
   819  031A                     	;# 
   820  0394                     	;# 
   821  0395                     	;# 
   822  0396                     	;# 
   823  039A                     	;# 
   824  039C                     	;# 
   825  039D                     	;# 
   826  039E                     	;# 
   827  039F                     	;# 
   828  0415                     	;# 
   829  0416                     	;# 
   830  0417                     	;# 
   831  041C                     	;# 
   832  041D                     	;# 
   833  041E                     	;# 
   834  0FE4                     	;# 
   835  0FE5                     	;# 
   836  0FE6                     	;# 
   837  0FE7                     	;# 
   838  0FE8                     	;# 
   839  0FE9                     	;# 
   840  0FEA                     	;# 
   841  0FEB                     	;# 
   842  0FED                     	;# 
   843  0FEE                     	;# 
   844  0FEF                     	;# 
   845  0000                     	;# 
   846  0001                     	;# 
   847  0002                     	;# 
   848  0003                     	;# 
   849  0004                     	;# 
   850  0005                     	;# 
   851  0006                     	;# 
   852  0007                     	;# 
   853  0008                     	;# 
   854  0009                     	;# 
   855  000A                     	;# 
   856  000B                     	;# 
   857  000C                     	;# 
   858  000D                     	;# 
   859  0011                     	;# 
   860  0012                     	;# 
   861  0013                     	;# 
   862  0014                     	;# 
   863  0015                     	;# 
   864  0016                     	;# 
   865  0016                     	;# 
   866  0017                     	;# 
   867  0018                     	;# 
   868  0019                     	;# 
   869  001A                     	;# 
   870  001B                     	;# 
   871  001C                     	;# 
   872  001E                     	;# 
   873  001F                     	;# 
   874  008C                     	;# 
   875  008D                     	;# 
   876  0091                     	;# 
   877  0092                     	;# 
   878  0093                     	;# 
   879  0094                     	;# 
   880  0095                     	;# 
   881  0096                     	;# 
   882  0097                     	;# 
   883  0098                     	;# 
   884  0099                     	;# 
   885  009A                     	;# 
   886  009B                     	;# 
   887  009B                     	;# 
   888  009C                     	;# 
   889  009D                     	;# 
   890  009E                     	;# 
   891  010C                     	;# 
   892  010D                     	;# 
   893  0111                     	;# 
   894  0112                     	;# 
   895  0113                     	;# 
   896  0114                     	;# 
   897  0115                     	;# 
   898  0116                     	;# 
   899  0117                     	;# 
   900  0118                     	;# 
   901  0119                     	;# 
   902  011A                     	;# 
   903  011B                     	;# 
   904  011D                     	;# 
   905  011E                     	;# 
   906  018C                     	;# 
   907  018D                     	;# 
   908  0191                     	;# 
   909  0191                     	;# 
   910  0192                     	;# 
   911  0193                     	;# 
   912  0193                     	;# 
   913  0193                     	;# 
   914  0194                     	;# 
   915  0195                     	;# 
   916  0196                     	;# 
   917  0199                     	;# 
   918  019A                     	;# 
   919  019B                     	;# 
   920  019B                     	;# 
   921  019B                     	;# 
   922  019B                     	;# 
   923  019C                     	;# 
   924  019C                     	;# 
   925  019D                     	;# 
   926  019E                     	;# 
   927  019F                     	;# 
   928  020C                     	;# 
   929  020D                     	;# 
   930  0211                     	;# 
   931  0211                     	;# 
   932  0212                     	;# 
   933  0212                     	;# 
   934  0213                     	;# 
   935  0213                     	;# 
   936  0214                     	;# 
   937  0214                     	;# 
   938  0215                     	;# 
   939  0215                     	;# 
   940  0215                     	;# 
   941  0216                     	;# 
   942  0216                     	;# 
   943  0217                     	;# 
   944  0217                     	;# 
   945  0219                     	;# 
   946  021A                     	;# 
   947  021B                     	;# 
   948  021C                     	;# 
   949  021D                     	;# 
   950  021E                     	;# 
   951  021F                     	;# 
   952  0291                     	;# 
   953  0291                     	;# 
   954  0292                     	;# 
   955  0293                     	;# 
   956  0294                     	;# 
   957  0295                     	;# 
   958  0295                     	;# 
   959  0296                     	;# 
   960  0298                     	;# 
   961  0298                     	;# 
   962  0299                     	;# 
   963  029A                     	;# 
   964  029B                     	;# 
   965  029C                     	;# 
   966  029C                     	;# 
   967  029D                     	;# 
   968  029E                     	;# 
   969  029E                     	;# 
   970  0311                     	;# 
   971  0311                     	;# 
   972  0312                     	;# 
   973  0313                     	;# 
   974  0318                     	;# 
   975  0318                     	;# 
   976  0319                     	;# 
   977  031A                     	;# 
   978  0394                     	;# 
   979  0395                     	;# 
   980  0396                     	;# 
   981  039A                     	;# 
   982  039C                     	;# 
   983  039D                     	;# 
   984  039E                     	;# 
   985  039F                     	;# 
   986  0415                     	;# 
   987  0416                     	;# 
   988  0417                     	;# 
   989  041C                     	;# 
   990  041D                     	;# 
   991  041E                     	;# 
   992  0FE4                     	;# 
   993  0FE5                     	;# 
   994  0FE6                     	;# 
   995  0FE7                     	;# 
   996  0FE8                     	;# 
   997  0FE9                     	;# 
   998  0FEA                     	;# 
   999  0FEB                     	;# 
  1000  0FED                     	;# 
  1001  0FEE                     	;# 
  1002  0FEF                     	;# 
  1003                           
  1004                           	psect	nvCOMMON
  1005  0070                     __pnvCOMMON:
  1006  0070                     _TMR0_InterruptHandler:
  1007  0070                     	ds	2
  1008  0072                     _timer0ReloadVal:
  1009  0072                     	ds	1
  1010  0015                     _TMR0	set	21
  1011  000B                     _INTCONbits	set	11
  1012  0095                     _OPTION_REG	set	149
  1013  0097                     _WDTCON	set	151
  1014  0098                     _OSCTUNE	set	152
  1015  0099                     _OSCCON	set	153
  1016  0095                     _OPTION_REGbits	set	149
  1017  008D                     _TRISB	set	141
  1018  008C                     _TRISA	set	140
  1019  010D                     _LATBbits	set	269
  1020  0116                     _BORCON	set	278
  1021  011E                     _APFCON1	set	286
  1022  011D                     _APFCON0	set	285
  1023  010D                     _LATB	set	269
  1024  010C                     _LATA	set	268
  1025  018C                     _ANSELA	set	396
  1026  018D                     _ANSELB	set	397
  1027  020C                     _WPUA	set	524
  1028  020D                     _WPUB	set	525
  1029                           
  1030                           	psect	cinit
  1031  0015                     start_initialization:	
  1032                           ; #config settings
  1033                           
  1034  0015                     __initialization:
  1035                           
  1036                           ; Clear objects allocated to COMMON
  1037  0015  01F6               	clrf	__pbssCOMMON& (0+127)
  1038  0016  01F7               	clrf	(__pbssCOMMON+1)& (0+127)
  1039  0017                     end_of_initialization:	
  1040                           ;End of C runtime variable initialization code
  1041                           
  1042  0017                     __end_of__initialization:
  1043  0017  107E               	bcf	int$flags,0	;clear compiler interrupt flag (level 1)
  1044  0018  0020               	movlb	0
  1045  0019  3180  2886         	ljmp	_main	;jump to C main() function
  1046                           
  1047                           	psect	bssCOMMON
  1048  0076                     __pbssCOMMON:
  1049  0076                     _count:
  1050  0076                     	ds	2
  1051                           
  1052                           	psect	cstackCOMMON
  1053  0073                     __pcstackCOMMON:
  1054  0073                     ?_OSCILLATOR_Initialize:
  1055  0073                     ??_OSCILLATOR_Initialize:	
  1056                           ; 1 bytes @ 0x0
  1057                           
  1058  0073                     ?_WDT_Initialize:	
  1059                           ; 1 bytes @ 0x0
  1060                           
  1061  0073                     ??_WDT_Initialize:	
  1062                           ; 1 bytes @ 0x0
  1063                           
  1064  0073                     ?_TMR0_Initialize:	
  1065                           ; 1 bytes @ 0x0
  1066                           
  1067  0073                     ?_TMR0_SetInterruptHandler:	
  1068                           ; 1 bytes @ 0x0
  1069                           
  1070  0073                     ?_TMR0_DefaultInterruptHandler:	
  1071                           ; 1 bytes @ 0x0
  1072                           
  1073  0073                     ??_TMR0_DefaultInterruptHandler:	
  1074                           ; 1 bytes @ 0x0
  1075                           
  1076  0073                     ?_PIN_MANAGER_Initialize:	
  1077                           ; 1 bytes @ 0x0
  1078                           
  1079  0073                     ??_PIN_MANAGER_Initialize:	
  1080                           ; 1 bytes @ 0x0
  1081                           
  1082  0073                     ?_SYSTEM_Initialize:	
  1083                           ; 1 bytes @ 0x0
  1084                           
  1085  0073                     ?_main:	
  1086                           ; 1 bytes @ 0x0
  1087                           
  1088  0073                     ?_TMR0_ISR:	
  1089                           ; 1 bytes @ 0x0
  1090                           
  1091  0073                     ??_TMR0_ISR:	
  1092                           ; 1 bytes @ 0x0
  1093                           
  1094  0073                     ?_INTERRUPT_InterruptManager:	
  1095                           ; 1 bytes @ 0x0
  1096                           
  1097  0073                     ??_INTERRUPT_InterruptManager:	
  1098                           ; 1 bytes @ 0x0
  1099                           
  1100  0073                     TMR0_SetInterruptHandler@InterruptHandler:	
  1101                           ; 1 bytes @ 0x0
  1102                           
  1103                           
  1104                           ; 2 bytes @ 0x0
  1105  0073                     	ds	2
  1106  0075                     ??_TMR0_Initialize:
  1107  0075                     ??_TMR0_SetInterruptHandler:	
  1108                           ; 1 bytes @ 0x2
  1109                           
  1110                           
  1111                           ; 1 bytes @ 0x2
  1112  0075                     	ds	1
  1113  0076                     ??_SYSTEM_Initialize:
  1114  0076                     ??_main:	
  1115                           ; 1 bytes @ 0x3
  1116                           
  1117                           
  1118                           	psect	maintext
  1119  0086                     __pmaintext:	
  1120                           ; 1 bytes @ 0x3
  1121 ;;
  1122 ;;Main: autosize = 0, tempsize = 0, incstack = 0, save=0
  1123 ;;
  1124 ;; *************** function _main *****************
  1125 ;; Defined at:
  1126 ;;		line 49 in file "main.c"
  1127 ;; Parameters:    Size  Location     Type
  1128 ;;		None
  1129 ;; Auto vars:     Size  Location     Type
  1130 ;;		None
  1131 ;; Return value:  Size  Location     Type
  1132 ;;                  1    wreg      void 
  1133 ;; Registers used:
  1134 ;;		wreg, status,2, status,0, pclath, cstack
  1135 ;; Tracked objects:
  1136 ;;		On entry : B1F/0
  1137 ;;		On exit  : 0/0
  1138 ;;		Unchanged: 0/0
  1139 ;; Data sizes:     COMMON   BANK0   BANK1   BANK2   BANK3   BANK4
  1140 ;;      Params:         0       0       0       0       0       0
  1141 ;;      Locals:         0       0       0       0       0       0
  1142 ;;      Temps:          0       0       0       0       0       0
  1143 ;;      Totals:         0       0       0       0       0       0
  1144 ;;Total ram usage:        0 bytes
  1145 ;; Hardware stack levels required when called:    6
  1146 ;; This function calls:
  1147 ;;		_SYSTEM_Initialize
  1148 ;; This function is called by:
  1149 ;;		Startup code after reset
  1150 ;; This function uses a non-reentrant model
  1151 ;;
  1152                           
  1153                           
  1154                           ;psect for function _main
  1155  0086                     _main:
  1156  0086                     l815:	
  1157                           ;incstack = 0
  1158                           ; Regs used in _main: [wreg+status,2+status,0+pclath+cstack]
  1159                           
  1160                           
  1161                           ;main.c: 52:     SYSTEM_Initialize();
  1162  0086  3180  2079  3180   	fcall	_SYSTEM_Initialize
  1163  0089                     l817:
  1164                           
  1165                           ;main.c: 58:     (INTCONbits.GIE = 1);
  1166  0089  178B               	bsf	11,7	;volatile
  1167  008A                     l819:
  1168                           
  1169                           ;main.c: 61:     (INTCONbits.PEIE = 1);
  1170  008A  170B               	bsf	11,6	;volatile
  1171  008B                     l62:	
  1172                           ;main.c: 69:     while (1)
  1173                           
  1174  008B                     l63:	
  1175                           ;main.c: 70:     {;main.c: 72:     }
  1176                           
  1177  008B  288B               	goto	l62
  1178  008C  3180  2813         	ljmp	start
  1179  008E                     __end_of_main:
  1180                           
  1181                           	psect	text1
  1182  0079                     __ptext1:	
  1183 ;; *************** function _SYSTEM_Initialize *****************
  1184 ;; Defined at:
  1185 ;;		line 50 in file "mcc_generated_files/mcc.c"
  1186 ;; Parameters:    Size  Location     Type
  1187 ;;		None
  1188 ;; Auto vars:     Size  Location     Type
  1189 ;;		None
  1190 ;; Return value:  Size  Location     Type
  1191 ;;                  1    wreg      void 
  1192 ;; Registers used:
  1193 ;;		wreg, status,2, status,0, pclath, cstack
  1194 ;; Tracked objects:
  1195 ;;		On entry : 0/0
  1196 ;;		On exit  : 0/0
  1197 ;;		Unchanged: 0/0
  1198 ;; Data sizes:     COMMON   BANK0   BANK1   BANK2   BANK3   BANK4
  1199 ;;      Params:         0       0       0       0       0       0
  1200 ;;      Locals:         0       0       0       0       0       0
  1201 ;;      Temps:          0       0       0       0       0       0
  1202 ;;      Totals:         0       0       0       0       0       0
  1203 ;;Total ram usage:        0 bytes
  1204 ;; Hardware stack levels used:    1
  1205 ;; Hardware stack levels required when called:    5
  1206 ;; This function calls:
  1207 ;;		_OSCILLATOR_Initialize
  1208 ;;		_PIN_MANAGER_Initialize
  1209 ;;		_TMR0_Initialize
  1210 ;;		_WDT_Initialize
  1211 ;; This function is called by:
  1212 ;;		_main
  1213 ;; This function uses a non-reentrant model
  1214 ;;
  1215                           
  1216                           
  1217                           ;psect for function _SYSTEM_Initialize
  1218  0079                     _SYSTEM_Initialize:
  1219  0079                     l813:	
  1220                           ;incstack = 0
  1221                           ; Regs used in _SYSTEM_Initialize: [wreg+status,2+status,0+pclath+cstack]
  1222                           
  1223                           
  1224                           ;mcc_generated_files/mcc.c: 53:     PIN_MANAGER_Initialize();
  1225  0079  3180  2065  3180   	fcall	_PIN_MANAGER_Initialize
  1226                           
  1227                           ;mcc_generated_files/mcc.c: 54:     OSCILLATOR_Initialize();
  1228  007C  3180  208E  3180   	fcall	_OSCILLATOR_Initialize
  1229                           
  1230                           ;mcc_generated_files/mcc.c: 55:     WDT_Initialize();
  1231  007F  3180  209A  3180   	fcall	_WDT_Initialize
  1232                           
  1233                           ;mcc_generated_files/mcc.c: 56:     TMR0_Initialize();
  1234  0082  3180  204F  3180   	fcall	_TMR0_Initialize
  1235  0085                     l47:
  1236  0085  0008               	return
  1237  0086                     __end_of_SYSTEM_Initialize:
  1238                           
  1239                           	psect	text2
  1240  009A                     __ptext2:	
  1241 ;; *************** function _WDT_Initialize *****************
  1242 ;; Defined at:
  1243 ;;		line 69 in file "mcc_generated_files/mcc.c"
  1244 ;; Parameters:    Size  Location     Type
  1245 ;;		None
  1246 ;; Auto vars:     Size  Location     Type
  1247 ;;		None
  1248 ;; Return value:  Size  Location     Type
  1249 ;;                  1    wreg      void 
  1250 ;; Registers used:
  1251 ;;		wreg
  1252 ;; Tracked objects:
  1253 ;;		On entry : 0/0
  1254 ;;		On exit  : 0/0
  1255 ;;		Unchanged: 0/0
  1256 ;; Data sizes:     COMMON   BANK0   BANK1   BANK2   BANK3   BANK4
  1257 ;;      Params:         0       0       0       0       0       0
  1258 ;;      Locals:         0       0       0       0       0       0
  1259 ;;      Temps:          0       0       0       0       0       0
  1260 ;;      Totals:         0       0       0       0       0       0
  1261 ;;Total ram usage:        0 bytes
  1262 ;; Hardware stack levels used:    1
  1263 ;; Hardware stack levels required when called:    3
  1264 ;; This function calls:
  1265 ;;		Nothing
  1266 ;; This function is called by:
  1267 ;;		_SYSTEM_Initialize
  1268 ;; This function uses a non-reentrant model
  1269 ;;
  1270                           
  1271                           
  1272                           ;psect for function _WDT_Initialize
  1273  009A                     _WDT_Initialize:
  1274  009A                     l749:	
  1275                           ;incstack = 0
  1276                           ; Regs used in _WDT_Initialize: [wreg]
  1277                           
  1278                           
  1279                           ;mcc_generated_files/mcc.c: 72:     WDTCON = 0x16;
  1280  009A  3016               	movlw	22
  1281  009B  0021               	movlb	1	; select bank1
  1282  009C  0097               	movwf	23	;volatile
  1283  009D                     l53:
  1284  009D  0008               	return
  1285  009E                     __end_of_WDT_Initialize:
  1286                           
  1287                           	psect	text3
  1288  004F                     __ptext3:	
  1289 ;; *************** function _TMR0_Initialize *****************
  1290 ;; Defined at:
  1291 ;;		line 65 in file "mcc_generated_files/tmr0.c"
  1292 ;; Parameters:    Size  Location     Type
  1293 ;;		None
  1294 ;; Auto vars:     Size  Location     Type
  1295 ;;		None
  1296 ;; Return value:  Size  Location     Type
  1297 ;;                  1    wreg      void 
  1298 ;; Registers used:
  1299 ;;		wreg, status,2, status,0, pclath, cstack
  1300 ;; Tracked objects:
  1301 ;;		On entry : 0/0
  1302 ;;		On exit  : 0/0
  1303 ;;		Unchanged: 0/0
  1304 ;; Data sizes:     COMMON   BANK0   BANK1   BANK2   BANK3   BANK4
  1305 ;;      Params:         0       0       0       0       0       0
  1306 ;;      Locals:         0       0       0       0       0       0
  1307 ;;      Temps:          1       0       0       0       0       0
  1308 ;;      Totals:         1       0       0       0       0       0
  1309 ;;Total ram usage:        1 bytes
  1310 ;; Hardware stack levels used:    1
  1311 ;; Hardware stack levels required when called:    4
  1312 ;; This function calls:
  1313 ;;		_TMR0_SetInterruptHandler
  1314 ;; This function is called by:
  1315 ;;		_SYSTEM_Initialize
  1316 ;; This function uses a non-reentrant model
  1317 ;;
  1318                           
  1319                           
  1320                           ;psect for function _TMR0_Initialize
  1321  004F                     _TMR0_Initialize:
  1322  004F                     l801:	
  1323                           ;incstack = 0
  1324                           ; Regs used in _TMR0_Initialize: [wreg+status,2+status,0+pclath+cstack]
  1325                           
  1326                           
  1327                           ;mcc_generated_files/tmr0.c: 70:     OPTION_REG = (uint8_t)((OPTION_REG & 0xC0) | (0xD7 
      +                          & 0x3F));
  1328  004F  0021               	movlb	1	; select bank1
  1329  0050  0815               	movf	21,w	;volatile
  1330  0051  39C0               	andlw	192
  1331  0052  3817               	iorlw	23
  1332  0053  0095               	movwf	21	;volatile
  1333  0054                     l803:
  1334                           
  1335                           ;mcc_generated_files/tmr0.c: 73:     TMR0 = 0x3D;
  1336  0054  303D               	movlw	61
  1337  0055  0020               	movlb	0	; select bank0
  1338  0056  0095               	movwf	21	;volatile
  1339  0057                     l805:
  1340                           
  1341                           ;mcc_generated_files/tmr0.c: 76:     timer0ReloadVal= 61;
  1342  0057  303D               	movlw	61
  1343  0058  00F5               	movwf	??_TMR0_Initialize
  1344  0059  0875               	movf	??_TMR0_Initialize,w
  1345  005A  00F2               	movwf	_timer0ReloadVal	;volatile
  1346  005B                     l807:
  1347                           
  1348                           ;mcc_generated_files/tmr0.c: 79:     INTCONbits.TMR0IF = 0;
  1349  005B  110B               	bcf	11,2	;volatile
  1350  005C                     l809:
  1351                           
  1352                           ;mcc_generated_files/tmr0.c: 82:     INTCONbits.TMR0IE = 1;
  1353  005C  168B               	bsf	11,5	;volatile
  1354  005D                     l811:
  1355                           
  1356                           ;mcc_generated_files/tmr0.c: 85:     TMR0_SetInterruptHandler(TMR0_DefaultInterruptHandl
      +                          er);
  1357  005D  309E               	movlw	low _TMR0_DefaultInterruptHandler
  1358  005E  00F3               	movwf	TMR0_SetInterruptHandler@InterruptHandler
  1359  005F  3000               	movlw	high _TMR0_DefaultInterruptHandler
  1360  0060  00F4               	movwf	TMR0_SetInterruptHandler@InterruptHandler+1
  1361  0061  3180  2095  3180   	fcall	_TMR0_SetInterruptHandler
  1362  0064                     l84:
  1363  0064  0008               	return
  1364  0065                     __end_of_TMR0_Initialize:
  1365                           
  1366                           	psect	text4
  1367  0095                     __ptext4:	
  1368 ;; *************** function _TMR0_SetInterruptHandler *****************
  1369 ;; Defined at:
  1370 ;;		line 132 in file "mcc_generated_files/tmr0.c"
  1371 ;; Parameters:    Size  Location     Type
  1372 ;;  InterruptHan    2    0[COMMON] PTR FTN()void 
  1373 ;;		 -> TMR0_DefaultInterruptHandler(1), 
  1374 ;; Auto vars:     Size  Location     Type
  1375 ;;		None
  1376 ;; Return value:  Size  Location     Type
  1377 ;;                  1    wreg      void 
  1378 ;; Registers used:
  1379 ;;		wreg
  1380 ;; Tracked objects:
  1381 ;;		On entry : 0/0
  1382 ;;		On exit  : 0/0
  1383 ;;		Unchanged: 0/0
  1384 ;; Data sizes:     COMMON   BANK0   BANK1   BANK2   BANK3   BANK4
  1385 ;;      Params:         2       0       0       0       0       0
  1386 ;;      Locals:         0       0       0       0       0       0
  1387 ;;      Temps:          0       0       0       0       0       0
  1388 ;;      Totals:         2       0       0       0       0       0
  1389 ;;Total ram usage:        2 bytes
  1390 ;; Hardware stack levels used:    1
  1391 ;; Hardware stack levels required when called:    3
  1392 ;; This function calls:
  1393 ;;		Nothing
  1394 ;; This function is called by:
  1395 ;;		_TMR0_Initialize
  1396 ;; This function uses a non-reentrant model
  1397 ;;
  1398                           
  1399                           
  1400                           ;psect for function _TMR0_SetInterruptHandler
  1401  0095                     _TMR0_SetInterruptHandler:
  1402  0095                     l799:	
  1403                           ;incstack = 0
  1404                           ; Regs used in _TMR0_SetInterruptHandler: [wreg]
  1405                           
  1406                           
  1407                           ;mcc_generated_files/tmr0.c: 133:     TMR0_InterruptHandler = InterruptHandler;
  1408  0095  0874               	movf	TMR0_SetInterruptHandler@InterruptHandler+1,w
  1409  0096  00F1               	movwf	_TMR0_InterruptHandler+1
  1410  0097  0873               	movf	TMR0_SetInterruptHandler@InterruptHandler,w
  1411  0098  00F0               	movwf	_TMR0_InterruptHandler
  1412  0099                     l107:
  1413  0099  0008               	return
  1414  009A                     __end_of_TMR0_SetInterruptHandler:
  1415                           
  1416                           	psect	text5
  1417  0065                     __ptext5:	
  1418 ;; *************** function _PIN_MANAGER_Initialize *****************
  1419 ;; Defined at:
  1420 ;;		line 55 in file "mcc_generated_files/pin_manager.c"
  1421 ;; Parameters:    Size  Location     Type
  1422 ;;		None
  1423 ;; Auto vars:     Size  Location     Type
  1424 ;;		None
  1425 ;; Return value:  Size  Location     Type
  1426 ;;                  1    wreg      void 
  1427 ;; Registers used:
  1428 ;;		wreg, status,2
  1429 ;; Tracked objects:
  1430 ;;		On entry : 0/0
  1431 ;;		On exit  : 0/0
  1432 ;;		Unchanged: 0/0
  1433 ;; Data sizes:     COMMON   BANK0   BANK1   BANK2   BANK3   BANK4
  1434 ;;      Params:         0       0       0       0       0       0
  1435 ;;      Locals:         0       0       0       0       0       0
  1436 ;;      Temps:          0       0       0       0       0       0
  1437 ;;      Totals:         0       0       0       0       0       0
  1438 ;;Total ram usage:        0 bytes
  1439 ;; Hardware stack levels used:    1
  1440 ;; Hardware stack levels required when called:    3
  1441 ;; This function calls:
  1442 ;;		Nothing
  1443 ;; This function is called by:
  1444 ;;		_SYSTEM_Initialize
  1445 ;; This function uses a non-reentrant model
  1446 ;;
  1447                           
  1448                           
  1449                           ;psect for function _PIN_MANAGER_Initialize
  1450  0065                     _PIN_MANAGER_Initialize:
  1451  0065                     l731:	
  1452                           ;incstack = 0
  1453                           ; Regs used in _PIN_MANAGER_Initialize: [wreg+status,2]
  1454                           
  1455                           
  1456                           ;mcc_generated_files/pin_manager.c: 60:     LATA = 0x00;
  1457  0065  0022               	movlb	2	; select bank2
  1458  0066  018C               	clrf	12	;volatile
  1459                           
  1460                           ;mcc_generated_files/pin_manager.c: 61:     LATB = 0x00;
  1461  0067  018D               	clrf	13	;volatile
  1462  0068                     l733:
  1463                           
  1464                           ;mcc_generated_files/pin_manager.c: 66:     TRISA = 0xFF;
  1465  0068  30FF               	movlw	255
  1466  0069  0021               	movlb	1	; select bank1
  1467  006A  008C               	movwf	12	;volatile
  1468  006B                     l735:
  1469                           
  1470                           ;mcc_generated_files/pin_manager.c: 67:     TRISB = 0x00;
  1471  006B  018D               	clrf	13	;volatile
  1472  006C                     l737:
  1473                           
  1474                           ;mcc_generated_files/pin_manager.c: 72:     ANSELB = 0x00;
  1475  006C  0023               	movlb	3	; select bank3
  1476  006D  018D               	clrf	13	;volatile
  1477  006E                     l739:
  1478                           
  1479                           ;mcc_generated_files/pin_manager.c: 73:     ANSELA = 0x1F;
  1480  006E  301F               	movlw	31
  1481  006F  008C               	movwf	12	;volatile
  1482                           
  1483                           ;mcc_generated_files/pin_manager.c: 78:     WPUB = 0x00;
  1484  0070  0024               	movlb	4	; select bank4
  1485  0071  018D               	clrf	13	;volatile
  1486                           
  1487                           ;mcc_generated_files/pin_manager.c: 79:     WPUA = 0x00;
  1488  0072  018C               	clrf	12	;volatile
  1489  0073                     l741:
  1490                           
  1491                           ;mcc_generated_files/pin_manager.c: 80:     OPTION_REGbits.nWPUEN = 1;
  1492  0073  0021               	movlb	1	; select bank1
  1493  0074  1795               	bsf	21,7	;volatile
  1494                           
  1495                           ;mcc_generated_files/pin_manager.c: 86:     APFCON0 = 0x00;
  1496  0075  0022               	movlb	2	; select bank2
  1497  0076  019D               	clrf	29	;volatile
  1498                           
  1499                           ;mcc_generated_files/pin_manager.c: 87:     APFCON1 = 0x00;
  1500  0077  019E               	clrf	30	;volatile
  1501  0078                     l25:
  1502  0078  0008               	return
  1503  0079                     __end_of_PIN_MANAGER_Initialize:
  1504                           
  1505                           	psect	text6
  1506  008E                     __ptext6:	
  1507 ;; *************** function _OSCILLATOR_Initialize *****************
  1508 ;; Defined at:
  1509 ;;		line 59 in file "mcc_generated_files/mcc.c"
  1510 ;; Parameters:    Size  Location     Type
  1511 ;;		None
  1512 ;; Auto vars:     Size  Location     Type
  1513 ;;		None
  1514 ;; Return value:  Size  Location     Type
  1515 ;;                  1    wreg      void 
  1516 ;; Registers used:
  1517 ;;		wreg, status,2
  1518 ;; Tracked objects:
  1519 ;;		On entry : 0/0
  1520 ;;		On exit  : 0/0
  1521 ;;		Unchanged: 0/0
  1522 ;; Data sizes:     COMMON   BANK0   BANK1   BANK2   BANK3   BANK4
  1523 ;;      Params:         0       0       0       0       0       0
  1524 ;;      Locals:         0       0       0       0       0       0
  1525 ;;      Temps:          0       0       0       0       0       0
  1526 ;;      Totals:         0       0       0       0       0       0
  1527 ;;Total ram usage:        0 bytes
  1528 ;; Hardware stack levels used:    1
  1529 ;; Hardware stack levels required when called:    3
  1530 ;; This function calls:
  1531 ;;		Nothing
  1532 ;; This function is called by:
  1533 ;;		_SYSTEM_Initialize
  1534 ;; This function uses a non-reentrant model
  1535 ;;
  1536                           
  1537                           
  1538                           ;psect for function _OSCILLATOR_Initialize
  1539  008E                     _OSCILLATOR_Initialize:
  1540  008E                     l743:	
  1541                           ;incstack = 0
  1542                           ; Regs used in _OSCILLATOR_Initialize: [wreg+status,2]
  1543                           
  1544                           
  1545                           ;mcc_generated_files/mcc.c: 62:     OSCCON = 0x6A;
  1546  008E  306A               	movlw	106
  1547  008F  0021               	movlb	1	; select bank1
  1548  0090  0099               	movwf	25	;volatile
  1549  0091                     l745:
  1550                           
  1551                           ;mcc_generated_files/mcc.c: 64:     OSCTUNE = 0x00;
  1552  0091  0198               	clrf	24	;volatile
  1553  0092                     l747:
  1554                           
  1555                           ;mcc_generated_files/mcc.c: 66:     BORCON = 0x00;
  1556  0092  0022               	movlb	2	; select bank2
  1557  0093  0196               	clrf	22	;volatile
  1558  0094                     l50:
  1559  0094  0008               	return
  1560  0095                     __end_of_OSCILLATOR_Initialize:
  1561                           
  1562                           	psect	intentry
  1563  0004                     __pintentry:	
  1564 ;; *************** function _INTERRUPT_InterruptManager *****************
  1565 ;; Defined at:
  1566 ;;		line 52 in file "mcc_generated_files/interrupt_manager.c"
  1567 ;; Parameters:    Size  Location     Type
  1568 ;;		None
  1569 ;; Auto vars:     Size  Location     Type
  1570 ;;		None
  1571 ;; Return value:  Size  Location     Type
  1572 ;;                  1    wreg      void 
  1573 ;; Registers used:
  1574 ;;		wreg, status,2, status,0, pclath, cstack
  1575 ;; Tracked objects:
  1576 ;;		On entry : 0/0
  1577 ;;		On exit  : 0/0
  1578 ;;		Unchanged: 0/0
  1579 ;; Data sizes:     COMMON   BANK0   BANK1   BANK2   BANK3   BANK4
  1580 ;;      Params:         0       0       0       0       0       0
  1581 ;;      Locals:         0       0       0       0       0       0
  1582 ;;      Temps:          0       0       0       0       0       0
  1583 ;;      Totals:         0       0       0       0       0       0
  1584 ;;Total ram usage:        0 bytes
  1585 ;; Hardware stack levels used:    1
  1586 ;; Hardware stack levels required when called:    2
  1587 ;; This function calls:
  1588 ;;		_TMR0_ISR
  1589 ;; This function is called by:
  1590 ;;		Interrupt level 1
  1591 ;; This function uses a non-reentrant model
  1592 ;;
  1593                           
  1594  0004                     _INTERRUPT_InterruptManager:
  1595                           
  1596                           ;incstack = 0
  1597  0004  147E               	bsf	int$flags,0	;set compiler interrupt flag (level 1)
  1598                           
  1599                           ; Regs used in _INTERRUPT_InterruptManager: [wreg+status,2+status,0+pclath+cstack]
  1600  0005  3180               	pagesel	$
  1601  0006                     i1l793:
  1602                           
  1603                           ;mcc_generated_files/interrupt_manager.c: 55:     if(INTCONbits.TMR0IE == 1 && INTCONbit
      +                          s.TMR0IF == 1)
  1604  0006  1E8B               	btfss	11,5	;volatile
  1605  0007  2809               	goto	u7_21
  1606  0008  280A               	goto	u7_20
  1607  0009                     u7_21:
  1608  0009  2811               	goto	i1l121
  1609  000A                     u7_20:
  1610  000A                     i1l795:
  1611  000A  1D0B               	btfss	11,2	;volatile
  1612  000B  280D               	goto	u8_21
  1613  000C  280E               	goto	u8_20
  1614  000D                     u8_21:
  1615  000D  2811               	goto	i1l121
  1616  000E                     u8_20:
  1617  000E                     i1l797:
  1618                           
  1619                           ;mcc_generated_files/interrupt_manager.c: 56:     {;mcc_generated_files/interrupt_manage
      +                          r.c: 57:         TMR0_ISR();
  1620  000E  3180  201B  3180   	fcall	_TMR0_ISR
  1621  0011                     i1l121:	
  1622                           ;mcc_generated_files/interrupt_manager.c: 58:     }
  1623                           
  1624  0011  107E               	bcf	int$flags,0	;clear compiler interrupt flag (level 1)
  1625  0012  0009               	retfie
  1626  0013                     __end_of_INTERRUPT_InterruptManager:
  1627                           
  1628                           	psect	text8
  1629  001B                     __ptext8:	
  1630 ;; *************** function _TMR0_ISR *****************
  1631 ;; Defined at:
  1632 ;;		line 111 in file "mcc_generated_files/tmr0.c"
  1633 ;; Parameters:    Size  Location     Type
  1634 ;;		None
  1635 ;; Auto vars:     Size  Location     Type
  1636 ;;		None
  1637 ;; Return value:  Size  Location     Type
  1638 ;;                  1    wreg      void 
  1639 ;; Registers used:
  1640 ;;		wreg, status,2, status,0, pclath, cstack
  1641 ;; Tracked objects:
  1642 ;;		On entry : 0/0
  1643 ;;		On exit  : 0/0
  1644 ;;		Unchanged: 0/0
  1645 ;; Data sizes:     COMMON   BANK0   BANK1   BANK2   BANK3   BANK4
  1646 ;;      Params:         0       0       0       0       0       0
  1647 ;;      Locals:         0       0       0       0       0       0
  1648 ;;      Temps:          0       0       0       0       0       0
  1649 ;;      Totals:         0       0       0       0       0       0
  1650 ;;Total ram usage:        0 bytes
  1651 ;; Hardware stack levels used:    1
  1652 ;; Hardware stack levels required when called:    1
  1653 ;; This function calls:
  1654 ;;		Absolute function
  1655 ;;		_TMR0_DefaultInterruptHandler
  1656 ;; This function is called by:
  1657 ;;		_INTERRUPT_InterruptManager
  1658 ;; This function uses a non-reentrant model
  1659 ;;
  1660                           
  1661                           
  1662                           ;psect for function _TMR0_ISR
  1663  001B                     _TMR0_ISR:
  1664  001B                     i1l765:	
  1665                           ;incstack = 0
  1666                           ; Regs used in _TMR0_ISR: [wreg+status,2+status,0+pclath+cstack]
  1667                           
  1668  001B  3001               	movlw	1
  1669  001C  07F6               	addwf	_count,f
  1670  001D  3000               	movlw	0
  1671  001E  3DF7               	addwfc	_count+1,f
  1672  001F                     i1l767:
  1673                           
  1674                           ;mcc_generated_files/tmr0.c: 115:     INTCONbits.TMR0IF = 0;
  1675  001F  110B               	bcf	11,2	;volatile
  1676                           
  1677                           ;mcc_generated_files/tmr0.c: 117:     TMR0 = timer0ReloadVal;
  1678  0020  0872               	movf	_timer0ReloadVal,w	;volatile
  1679  0021  0020               	movlb	0	; select bank0
  1680  0022  0095               	movwf	21	;volatile
  1681  0023                     i1l769:
  1682                           
  1683                           ;mcc_generated_files/tmr0.c: 119:     if(TMR0_InterruptHandler)
  1684  0023  0870               	movf	_TMR0_InterruptHandler,w
  1685  0024  0471               	iorwf	_TMR0_InterruptHandler+1,w
  1686  0025  1903               	btfsc	3,2
  1687  0026  2828               	goto	u1_21
  1688  0027  2829               	goto	u1_20
  1689  0028                     u1_21:
  1690  0028  282E               	goto	i1l773
  1691  0029                     u1_20:
  1692  0029                     i1l771:
  1693                           
  1694                           ;mcc_generated_files/tmr0.c: 120:     {;mcc_generated_files/tmr0.c: 121:         TMR0_In
      +                          terruptHandler();
  1695  0029  0871               	movf	_TMR0_InterruptHandler+1,w
  1696  002A  008A               	movwf	10
  1697  002B  0870               	movf	_TMR0_InterruptHandler,w
  1698  002C  000A               	callw
  1699  002D  3180               	pagesel	$
  1700  002E                     i1l773:
  1701                           
  1702                           ;mcc_generated_files/tmr0.c: 123:     if(count==100){
  1703  002E  3064               	movlw	100
  1704  002F  0676               	xorwf	_count,w
  1705  0030  0477               	iorwf	_count+1,w
  1706  0031  1D03               	btfss	3,2
  1707  0032  2834               	goto	u2_21
  1708  0033  2835               	goto	u2_20
  1709  0034                     u2_21:
  1710  0034  284E               	goto	i1l104
  1711  0035                     u2_20:
  1712  0035                     i1l775:
  1713  0035  1003               	clrc
  1714  0036  0022               	movlb	2	; select bank2
  1715  0037  1F8D               	btfss	13,7	;volatile
  1716  0038  1403               	setc
  1717  0039  1803               	btfsc	3,0
  1718  003A  283C               	goto	u3_21
  1719  003B  283F               	goto	u3_20
  1720  003C                     u3_21:
  1721  003C  0022               	movlb	2	; select bank2
  1722  003D  178D               	bsf	13,7	;volatile
  1723  003E  2841               	goto	u4_24
  1724  003F                     u3_20:
  1725  003F  0022               	movlb	2	; select bank2
  1726  0040  138D               	bcf	13,7	;volatile
  1727  0041                     u4_24:
  1728  0041                     i1l102:	
  1729                           ;mcc_generated_files/tmr0.c: 125:         do { LATBbits.LATB6 = ~LATBbits.LATB6; } while
      +                          (0);
  1730                           
  1731  0041  1003               	clrc
  1732  0042  1F0D               	btfss	13,6	;volatile
  1733  0043  1403               	setc
  1734  0044  1803               	btfsc	3,0
  1735  0045  2847               	goto	u5_21
  1736  0046  284A               	goto	u5_20
  1737  0047                     u5_21:
  1738  0047  0022               	movlb	2	; select bank2
  1739  0048  170D               	bsf	13,6	;volatile
  1740  0049  284C               	goto	u6_24
  1741  004A                     u5_20:
  1742  004A  0022               	movlb	2	; select bank2
  1743  004B  130D               	bcf	13,6	;volatile
  1744  004C                     u6_24:
  1745  004C                     i1l777:
  1746                           
  1747                           ;mcc_generated_files/tmr0.c: 126:         count=0;
  1748  004C  01F6               	clrf	_count
  1749  004D  01F7               	clrf	_count+1
  1750  004E                     i1l104:
  1751  004E  0008               	return
  1752  004F                     __end_of_TMR0_ISR:
  1753                           
  1754                           	psect	text9
  1755  009E                     __ptext9:	
  1756 ;; *************** function _TMR0_DefaultInterruptHandler *****************
  1757 ;; Defined at:
  1758 ;;		line 136 in file "mcc_generated_files/tmr0.c"
  1759 ;; Parameters:    Size  Location     Type
  1760 ;;		None
  1761 ;; Auto vars:     Size  Location     Type
  1762 ;;		None
  1763 ;; Return value:  Size  Location     Type
  1764 ;;                  1    wreg      void 
  1765 ;; Registers used:
  1766 ;;		None
  1767 ;; Tracked objects:
  1768 ;;		On entry : 0/0
  1769 ;;		On exit  : 0/0
  1770 ;;		Unchanged: 0/0
  1771 ;; Data sizes:     COMMON   BANK0   BANK1   BANK2   BANK3   BANK4
  1772 ;;      Params:         0       0       0       0       0       0
  1773 ;;      Locals:         0       0       0       0       0       0
  1774 ;;      Temps:          0       0       0       0       0       0
  1775 ;;      Totals:         0       0       0       0       0       0
  1776 ;;Total ram usage:        0 bytes
  1777 ;; Hardware stack levels used:    1
  1778 ;; This function calls:
  1779 ;;		Nothing
  1780 ;; This function is called by:
  1781 ;;		_TMR0_Initialize
  1782 ;;		_TMR0_ISR
  1783 ;; This function uses a non-reentrant model
  1784 ;;
  1785                           
  1786                           
  1787                           ;psect for function _TMR0_DefaultInterruptHandler
  1788  009E                     _TMR0_DefaultInterruptHandler:
  1789  009E                     i1l110:	
  1790                           ;incstack = 0
  1791                           ; Regs used in _TMR0_DefaultInterruptHandler: []
  1792                           
  1793  009E  0008               	return
  1794  009F                     __end_of_TMR0_DefaultInterruptHandler:
  1795  007E                     btemp	set	126	;btemp
  1796  007E                     int$flags	set	126
  1797  007E                     wtemp0	set	126
  1798                           
  1799                           	psect	config
  1800                           
  1801                           ;Config register CONFIG1 @ 0x8007
  1802                           ;	Oscillator Selection
  1803                           ;	FOSC = INTOSC, INTOSC oscillator: I/O function on CLKIN pin
  1804                           ;	Watchdog Timer Enable
  1805                           ;	WDTE = OFF, WDT disabled
  1806                           ;	Power-up Timer Enable
  1807                           ;	PWRTE = OFF, PWRT disabled
  1808                           ;	MCLR Pin Function Select
  1809                           ;	MCLRE = ON, MCLR/VPP pin function is MCLR
  1810                           ;	Flash Program Memory Code Protection
  1811                           ;	CP = OFF, Program memory code protection is disabled
  1812                           ;	Data Memory Code Protection
  1813                           ;	CPD = OFF, Data memory code protection is disabled
  1814                           ;	Brown-out Reset Enable
  1815                           ;	BOREN = ON, Brown-out Reset enabled
  1816                           ;	Clock Out Enable
  1817                           ;	CLKOUTEN = OFF, CLKOUT function is disabled. I/O or oscillator function on the CLKOUT 
      +                          pin
  1818                           ;	Internal/External Switchover
  1819                           ;	IESO = ON, Internal/External Switchover mode is enabled
  1820                           ;	Fail-Safe Clock Monitor Enable
  1821                           ;	FCMEN = ON, Fail-Safe Clock Monitor is enabled
  1822  8007                     	org	32775
  1823  8007  3FE4               	dw	16356
  1824                           
  1825                           ;Config register CONFIG2 @ 0x8008
  1826                           ;	Flash Memory Self-Write Protection
  1827                           ;	WRT = OFF, Write protection off
  1828                           ;	PLL Enable
  1829                           ;	PLLEN = OFF, 4x PLL disabled
  1830                           ;	Stack Overflow/Underflow Reset Enable
  1831                           ;	STVREN = ON, Stack Overflow or Underflow will cause a Reset
  1832                           ;	Brown-out Reset Voltage Selection
  1833                           ;	BORV = LO, Brown-out Reset Voltage (Vbor), low trip point selected.
  1834                           ;	Low-Voltage Programming Enable
  1835                           ;	LVP = ON, Low-voltage programming enabled
  1836  8008                     	org	32776
  1837  8008  3EFF               	dw	16127

Data Sizes:
    Strings     0
    Constant    0
    Data        0
    BSS         2
    Persistent  35
    Stack       0

Auto Spaces:
    Space          Size  Autos    Used
    COMMON           14      3       8
    BANK0            80      0       0
    BANK1            80      0       0
    BANK2            80      0       0
    BANK3            80      0       0
    BANK4            48      0       0

Pointer List with Targets:

    TMR0_SetInterruptHandler@InterruptHandler	PTR FTN()void  size(2) Largest target is 1
		 -> TMR0_DefaultInterruptHandler(), 

    TMR0_InterruptHandler	PTR FTN()void  size(2) Largest target is 1
		 -> Absolute function(), TMR0_DefaultInterruptHandler(), 


Critical Paths under _main in COMMON

    _SYSTEM_Initialize->_TMR0_Initialize
    _TMR0_Initialize->_TMR0_SetInterruptHandler

Critical Paths under _INTERRUPT_InterruptManager in COMMON

    None.

Critical Paths under _main in BANK0

    None.

Critical Paths under _INTERRUPT_InterruptManager in BANK0

    None.

Critical Paths under _main in BANK1

    None.

Critical Paths under _INTERRUPT_InterruptManager in BANK1

    None.

Critical Paths under _main in BANK2

    None.

Critical Paths under _INTERRUPT_InterruptManager in BANK2

    None.

Critical Paths under _main in BANK3

    None.

Critical Paths under _INTERRUPT_InterruptManager in BANK3

    None.

Critical Paths under _main in BANK4

    None.

Critical Paths under _INTERRUPT_InterruptManager in BANK4

    None.

Call Graph Tables:

 ---------------------------------------------------------------------------------
 (Depth) Function   	        Calls       Base Space   Used Autos Params    Refs
 ---------------------------------------------------------------------------------
 (0) _main                                                 0     0      0      98
                  _SYSTEM_Initialize
 ---------------------------------------------------------------------------------
 (1) _SYSTEM_Initialize                                    0     0      0      98
              _OSCILLATOR_Initialize
             _PIN_MANAGER_Initialize
                    _TMR0_Initialize
                     _WDT_Initialize
 ---------------------------------------------------------------------------------
 (2) _WDT_Initialize                                       0     0      0       0
 ---------------------------------------------------------------------------------
 (2) _TMR0_Initialize                                      1     1      0      98
                                              2 COMMON     1     1      0
           _TMR0_SetInterruptHandler
 ---------------------------------------------------------------------------------
 (3) _TMR0_SetInterruptHandler                             2     0      2      98
                                              0 COMMON     2     0      2
 ---------------------------------------------------------------------------------
 (2) _PIN_MANAGER_Initialize                               0     0      0       0
 ---------------------------------------------------------------------------------
 (2) _OSCILLATOR_Initialize                                0     0      0       0
 ---------------------------------------------------------------------------------
 Estimated maximum stack depth 3
 ---------------------------------------------------------------------------------
 (Depth) Function   	        Calls       Base Space   Used Autos Params    Refs
 ---------------------------------------------------------------------------------
 (4) _INTERRUPT_InterruptManager                           0     0      0       0
                           _TMR0_ISR
 ---------------------------------------------------------------------------------
 (5) _TMR0_ISR                                             0     0      0       0
                   Absolute function *
       _TMR0_DefaultInterruptHandler *
 ---------------------------------------------------------------------------------
 (6) _TMR0_DefaultInterruptHandler                         0     0      0       0
 ---------------------------------------------------------------------------------
 (6) Absolute function(Fake)                               0     0      0       0
 ---------------------------------------------------------------------------------
 Estimated maximum stack depth 6
 ---------------------------------------------------------------------------------

 Call Graph Graphs:

 _main (ROOT)
   _SYSTEM_Initialize
     _OSCILLATOR_Initialize
     _PIN_MANAGER_Initialize
     _TMR0_Initialize
       _TMR0_SetInterruptHandler
     _WDT_Initialize

 _INTERRUPT_InterruptManager (ROOT)
   _TMR0_ISR
     Absolute function(Fake) *
     _TMR0_DefaultInterruptHandler *

 Address spaces:
Name               Size   Autos  Total    Cost      Usage
BIGRAM             170      0       0       0        0.0%
EEDATA             100      0       0       0        0.0%
NULL                 0      0       0       0        0.0%
CODE                 0      0       0       0        0.0%
BITCOMMON            E      0       0       1        0.0%
BITSFR0              0      0       0       1        0.0%
SFR0                 0      0       0       1        0.0%
COMMON               E      3       8       2       57.1%
BITSFR1              0      0       0       2        0.0%
SFR1                 0      0       0       2        0.0%
BITSFR2              0      0       0       3        0.0%
SFR2                 0      0       0       3        0.0%
STACK                0      0       0       3        0.0%
BITSFR3              0      0       0       4        0.0%
SFR3                 0      0       0       4        0.0%
ABS                  0      0       8       4        0.0%
BITBANK0            50      0       0       5        0.0%
BITSFR4              0      0       0       5        0.0%
SFR4                 0      0       0       5        0.0%
BANK0               50      0       0       6        0.0%
BITSFR5              0      0       0       6        0.0%
SFR5                 0      0       0       6        0.0%
BITBANK1            50      0       0       7        0.0%
BITSFR6              0      0       0       7        0.0%
SFR6                 0      0       0       7        0.0%
BANK1               50      0       0       8        0.0%
BITSFR7              0      0       0       8        0.0%
SFR7                 0      0       0       8        0.0%
BITBANK2            50      0       0       9        0.0%
BITSFR8              0      0       0       9        0.0%
SFR8                 0      0       0       9        0.0%
BANK2               50      0       0      10        0.0%
BITSFR9              0      0       0      10        0.0%
SFR9                 0      0       0      10        0.0%
BITBANK3            50      0       0      11        0.0%
BITSFR10             0      0       0      11        0.0%
SFR10                0      0       0      11        0.0%
BANK3               50      0       0      12        0.0%
BITSFR11             0      0       0      12        0.0%
SFR11                0      0       0      12        0.0%
BITBANK4            30      0       0      13        0.0%
BITSFR12             0      0       0      13        0.0%
SFR12                0      0       0      13        0.0%
BANK4               30      0       0      14        0.0%
BITSFR13             0      0       0      14        0.0%
SFR13                0      0       0      14        0.0%
BITSFR14             0      0       0      15        0.0%
SFR14                0      0       0      15        0.0%
DATA                 0      0       8      15        0.0%
BITSFR15             0      0       0      16        0.0%
SFR15                0      0       0      16        0.0%
BITSFR16             0      0       0      17        0.0%
SFR16                0      0       0      17        0.0%
BITSFR17             0      0       0      18        0.0%
SFR17                0      0       0      18        0.0%
BITSFR18             0      0       0      19        0.0%
SFR18                0      0       0      19        0.0%
BITSFR19             0      0       0      20        0.0%
SFR19                0      0       0      20        0.0%
BITSFR20             0      0       0      21        0.0%
SFR20                0      0       0      21        0.0%
BITSFR21             0      0       0      22        0.0%
SFR21                0      0       0      22        0.0%
BITSFR22             0      0       0      23        0.0%
SFR22                0      0       0      23        0.0%
BITSFR23             0      0       0      24        0.0%
SFR23                0      0       0      24        0.0%
BITSFR24             0      0       0      25        0.0%
SFR24                0      0       0      25        0.0%
BITSFR25             0      0       0      26        0.0%
SFR25                0      0       0      26        0.0%
BITSFR26             0      0       0      27        0.0%
SFR26                0      0       0      27        0.0%
BITSFR27             0      0       0      28        0.0%
SFR27                0      0       0      28        0.0%
BITSFR28             0      0       0      29        0.0%
SFR28                0      0       0      29        0.0%
BITSFR29             0      0       0      30        0.0%
SFR29                0      0       0      30        0.0%
BITSFR30             0      0       0      31        0.0%
SFR30                0      0       0      31        0.0%
BITSFR31             0      0       0      32        0.0%
SFR31                0      0       0      32        0.0%


Microchip Technology PIC Macro Assembler V2.31 build 20201012212115 
Symbol Table                                                                                   Thu Oct 14 10:46:05 2021

                                      l25 0078                                        l50 0094  
                                      l53 009D                                        l62 008B  
                                      l47 0085                                        l63 008B  
                                      l84 0064                           _timer0ReloadVal 0072  
                                     l107 0099                                       l801 004F  
                                     l731 0065                                       l811 005D  
                                     l803 0054                                       l741 0073  
                                     l733 0068                                       l805 0057  
                                     l813 0079                                       l743 008E  
                                     l735 006B                                       l807 005B  
                                     l815 0086                                       l745 0091  
                                     l737 006C                                       l809 005C  
                                     l817 0089                                       l747 0092  
                                     l739 006E                                       l819 008A  
                                     l749 009A                                       l799 0095  
                                    _LATA 010C                                      _LATB 010D  
                                    _TMR0 0015                                      _WPUA 020C  
                                    _WPUB 020D                                      u1_20 0029  
                                    u1_21 0028                                      u2_20 0035  
                                    u2_21 0034                                      u3_20 003F  
                                    u3_21 003C                                      u4_24 0041  
                                    u5_20 004A                                      u5_21 0047  
                                    u6_24 004C                                      u7_20 000A  
                                    u7_21 0009                                      u8_20 000E  
                                    u8_21 000D                                      _main 0086  
                                    btemp 007E                                      start 0013  
                 __end_of_TMR0_Initialize 0065            ??_TMR0_DefaultInterruptHandler 0073  
          __size_of_OSCILLATOR_Initialize 0007             __end_of_OSCILLATOR_Initialize 0095  
                                   ?_main 0073                                     i1l110 009E  
                                   i1l102 0041                                     i1l104 004E  
                                   i1l121 0011                                     i1l771 0029  
                                   i1l773 002E                                     i1l765 001B  
                                   i1l775 0035                                     i1l767 001F  
                                   i1l777 004C                                     i1l769 0023  
                                   i1l793 0006                                     i1l795 000A  
                                   i1l797 000E                                     _TRISA 008C  
                                   _TRISB 008D         __size_of_TMR0_SetInterruptHandler 0005  
               ?_TMR0_SetInterruptHandler 0073                          __end_of_TMR0_ISR 004F  
                          _WDT_Initialize 009A                                     _count 0076  
                                   pclath 000A                                     status 0003  
                                   wtemp0 007E                           __initialization 0015  
                            __end_of_main 008E               ?_INTERRUPT_InterruptManager 0073  
                                  ??_main 0076                    __end_of_WDT_Initialize 009E  
                                  _ANSELA 018C                                    _ANSELB 018D  
                                  _BORCON 0116                                    _OSCCON 0099  
                                  _WDTCON 0097                          ?_TMR0_Initialize 0073  
                         ?_WDT_Initialize 0073  TMR0_SetInterruptHandler@InterruptHandler 0073  
                       _SYSTEM_Initialize 0079                   __end_of__initialization 0017  
                      ?_SYSTEM_Initialize 0073                            __pcstackCOMMON 0073  
                     ??_SYSTEM_Initialize 0076                                 ?_TMR0_ISR 0073  
                          _OPTION_REGbits 0095                 __end_of_SYSTEM_Initialize 0086  
                              __pnvCOMMON 0070                                __pmaintext 0086  
        __end_of_TMR0_SetInterruptHandler 009A                                ??_TMR0_ISR 0073  
                              __pintentry 0004                                   _APFCON0 011D  
                                 _APFCON1 011E                                   _OSCTUNE 0098  
                                 __ptext1 0079                                   __ptext2 009A  
                                 __ptext3 004F                                   __ptext4 0095  
                                 __ptext5 0065                                   __ptext6 008E  
                                 __ptext8 001B                                   __ptext9 009E  
                   _OSCILLATOR_Initialize 008E                  ??_PIN_MANAGER_Initialize 0073  
              __size_of_SYSTEM_Initialize 000D                      end_of_initialization 0017  
                        ??_WDT_Initialize 0073                  _TMR0_SetInterruptHandler 0095  
                       __size_of_TMR0_ISR 0034                    ?_OSCILLATOR_Initialize 0073  
                     start_initialization 0015                  __size_of_TMR0_Initialize 0016  
         __size_of_PIN_MANAGER_Initialize 0014                               __pbssCOMMON 0076  
                               ___latbits 0001                     _TMR0_InterruptHandler 0070  
                  _PIN_MANAGER_Initialize 0065              ??_INTERRUPT_InterruptManager 0073  
                       ??_TMR0_Initialize 0075                                  _LATBbits 010D  
     __size_of_INTERRUPT_InterruptManager 000F                ??_TMR0_SetInterruptHandler 0075  
                                _TMR0_ISR 001B                   ??_OSCILLATOR_Initialize 0073  
                           __size_of_main 0008      __end_of_TMR0_DefaultInterruptHandler 009F  
   __size_of_TMR0_DefaultInterruptHandler 0001              _TMR0_DefaultInterruptHandler 009E  
                                int$flags 007E        __end_of_INTERRUPT_InterruptManager 0013  
              _INTERRUPT_InterruptManager 0004                                _INTCONbits 000B  
                 __size_of_WDT_Initialize 0004                                  intlevel1 0000  
                 ?_PIN_MANAGER_Initialize 0073             ?_TMR0_DefaultInterruptHandler 0073  
                              _OPTION_REG 0095                           _TMR0_Initialize 004F  
          __end_of_PIN_MANAGER_Initialize 0079  
