

Microchip MPLAB XC8 Assembler V2.31 build 20201012212115 
                                                                                               Thu Dec 09 09:56:48 2021

Microchip MPLAB XC8 C Compiler v2.31 (Free license) build 20201012212115 Og1 
     1                           	processor	16F1827
     2                           	pagewidth 120
     3                           	opt	flic
     4                           	psect	cinit,global,class=CODE,merge=1,delta=2
     5                           	psect	bssBANK0,global,class=BANK0,space=1,delta=1,noexec
     6                           	psect	cstackCOMMON,global,class=COMMON,space=1,delta=1,noexec
     7                           	psect	cstackBANK0,global,class=BANK0,space=1,delta=1,noexec
     8                           	psect	maintext,global,class=CODE,merge=1,split=1,delta=2
     9                           	psect	text1,local,class=CODE,merge=1,delta=2,group=1
    10                           	psect	text2,local,class=CODE,merge=1,delta=2,group=1
    11                           	psect	text3,local,class=CODE,merge=1,delta=2,group=1
    12                           	psect	text4,local,class=CODE,merge=1,delta=2,group=1
    13                           	psect	text5,local,class=CODE,merge=1,delta=2
    14                           	psect	text6,local,class=CODE,merge=1,delta=2
    15                           	psect	text7,local,class=CODE,merge=1,delta=2
    16                           	psect	text8,local,class=CODE,merge=1,delta=2
    17                           	psect	text9,local,class=CODE,merge=1,delta=2
    18                           	psect	text10,local,class=CODE,merge=1,delta=2
    19                           	psect	config,global,abs,ovrld,class=CONFIG,space=4,delta=2,noexec
    20                           	dabs	1,0x7E,2
    21  0000                     
    22                           ; Version 2.20
    23                           ; Generated 12/02/2020 GMT
    24                           ; 
    25                           ; Copyright © 2020, Microchip Technology Inc. and its subsidiaries ("Microchip")
    26                           ; All rights reserved.
    27                           ; 
    28                           ; This software is developed by Microchip Technology Inc. and its subsidiaries ("Microch
      +                          ip").
    29                           ; 
    30                           ; Redistribution and use in source and binary forms, with or without modification, are
    31                           ; permitted provided that the following conditions are met:
    32                           ; 
    33                           ;     1. Redistributions of source code must retain the above copyright notice, this lis
      +                          t of
    34                           ;        conditions and the following disclaimer.
    35                           ; 
    36                           ;     2. Redistributions in binary form must reproduce the above copyright notice, this 
      +                          list
    37                           ;        of conditions and the following disclaimer in the documentation and/or other
    38                           ;        materials provided with the distribution.
    39                           ; 
    40                           ;     3. Microchip's name may not be used to endorse or promote products derived from th
      +                          is
    41                           ;        software without specific prior written permission.
    42                           ; 
    43                           ; THIS SOFTWARE IS PROVIDED BY MICROCHIP "AS IS" AND ANY EXPRESS OR IMPLIED WARRANTIES,
    44                           ; INCLUDING, BUT NOT LIMITED TO, THE IMPLIED WARRANTIES OF MERCHANTABILITY AND FITNESS F
      +                          OR
    45                           ; PURPOSE ARE DISCLAIMED.  IN NO EVENT SHALL MICROCHIP BE LIABLE FOR ANY DIRECT, INDIREC
      +                          T,
    46                           ; INCIDENTAL, SPECIAL, EXEMPLARY, OR CONSEQUENTIAL DAMAGES (INCLUDING BUT NOT LIMITED TO
    47                           ; PROCUREMENT OF SUBSTITUTE GOODS OR SERVICES; LOSS OF USE, DATA OR PROFITS; OR BUSINESS
    48                           ; INTERRUPTION) HOWSOEVER CAUSED AND ON ANY THEORY OF LIABILITY, WHETHER IN CONTRACT, ST
      +                          RICT
    49                           ; LIABILITY, OR TORT (INCLUDING NEGLIGENCE OR OTHERWISE) ARISING IN ANY WAY OUT OF THE U
      +                          SE OF
    50                           ; THIS SOFTWARE, EVEN IF ADVISED OF THE POSSIBILITY OF SUCH DAMAGE.
    51                           ; 
    52                           ; 
    53                           ; Code-generator required, PIC16F1827 Definitions
    54                           ; 
    55                           ; SFR Addresses
    56  0000                     	;# 
    57  0001                     	;# 
    58  0002                     	;# 
    59  0003                     	;# 
    60  0004                     	;# 
    61  0005                     	;# 
    62  0006                     	;# 
    63  0007                     	;# 
    64  0008                     	;# 
    65  0009                     	;# 
    66  000A                     	;# 
    67  000B                     	;# 
    68  000C                     	;# 
    69  000D                     	;# 
    70  0011                     	;# 
    71  0012                     	;# 
    72  0013                     	;# 
    73  0014                     	;# 
    74  0015                     	;# 
    75  0016                     	;# 
    76  0016                     	;# 
    77  0017                     	;# 
    78  0018                     	;# 
    79  0019                     	;# 
    80  001A                     	;# 
    81  001B                     	;# 
    82  001C                     	;# 
    83  001E                     	;# 
    84  001F                     	;# 
    85  008C                     	;# 
    86  008D                     	;# 
    87  0091                     	;# 
    88  0092                     	;# 
    89  0093                     	;# 
    90  0094                     	;# 
    91  0095                     	;# 
    92  0096                     	;# 
    93  0097                     	;# 
    94  0098                     	;# 
    95  0099                     	;# 
    96  009A                     	;# 
    97  009B                     	;# 
    98  009B                     	;# 
    99  009C                     	;# 
   100  009D                     	;# 
   101  009E                     	;# 
   102  010C                     	;# 
   103  010D                     	;# 
   104  0111                     	;# 
   105  0112                     	;# 
   106  0113                     	;# 
   107  0114                     	;# 
   108  0115                     	;# 
   109  0116                     	;# 
   110  0117                     	;# 
   111  0118                     	;# 
   112  0119                     	;# 
   113  011A                     	;# 
   114  011B                     	;# 
   115  011D                     	;# 
   116  011E                     	;# 
   117  018C                     	;# 
   118  018D                     	;# 
   119  0191                     	;# 
   120  0191                     	;# 
   121  0192                     	;# 
   122  0193                     	;# 
   123  0193                     	;# 
   124  0193                     	;# 
   125  0194                     	;# 
   126  0195                     	;# 
   127  0196                     	;# 
   128  0199                     	;# 
   129  019A                     	;# 
   130  019B                     	;# 
   131  019B                     	;# 
   132  019B                     	;# 
   133  019B                     	;# 
   134  019C                     	;# 
   135  019C                     	;# 
   136  019D                     	;# 
   137  019E                     	;# 
   138  019F                     	;# 
   139  020C                     	;# 
   140  020D                     	;# 
   141  0211                     	;# 
   142  0211                     	;# 
   143  0212                     	;# 
   144  0212                     	;# 
   145  0213                     	;# 
   146  0213                     	;# 
   147  0214                     	;# 
   148  0214                     	;# 
   149  0215                     	;# 
   150  0215                     	;# 
   151  0215                     	;# 
   152  0216                     	;# 
   153  0216                     	;# 
   154  0217                     	;# 
   155  0217                     	;# 
   156  0219                     	;# 
   157  021A                     	;# 
   158  021B                     	;# 
   159  021C                     	;# 
   160  021D                     	;# 
   161  021E                     	;# 
   162  021F                     	;# 
   163  0291                     	;# 
   164  0291                     	;# 
   165  0292                     	;# 
   166  0293                     	;# 
   167  0294                     	;# 
   168  0295                     	;# 
   169  0295                     	;# 
   170  0296                     	;# 
   171  0298                     	;# 
   172  0298                     	;# 
   173  0299                     	;# 
   174  029A                     	;# 
   175  029B                     	;# 
   176  029C                     	;# 
   177  029C                     	;# 
   178  029D                     	;# 
   179  029E                     	;# 
   180  029E                     	;# 
   181  0311                     	;# 
   182  0311                     	;# 
   183  0312                     	;# 
   184  0313                     	;# 
   185  0318                     	;# 
   186  0318                     	;# 
   187  0319                     	;# 
   188  031A                     	;# 
   189  0394                     	;# 
   190  0395                     	;# 
   191  0396                     	;# 
   192  039A                     	;# 
   193  039C                     	;# 
   194  039D                     	;# 
   195  039E                     	;# 
   196  039F                     	;# 
   197  0415                     	;# 
   198  0416                     	;# 
   199  0417                     	;# 
   200  041C                     	;# 
   201  041D                     	;# 
   202  041E                     	;# 
   203  0FE4                     	;# 
   204  0FE5                     	;# 
   205  0FE6                     	;# 
   206  0FE7                     	;# 
   207  0FE8                     	;# 
   208  0FE9                     	;# 
   209  0FEA                     	;# 
   210  0FEB                     	;# 
   211  0FED                     	;# 
   212  0FEE                     	;# 
   213  0FEF                     	;# 
   214  0000                     	;# 
   215  0001                     	;# 
   216  0002                     	;# 
   217  0003                     	;# 
   218  0004                     	;# 
   219  0005                     	;# 
   220  0006                     	;# 
   221  0007                     	;# 
   222  0008                     	;# 
   223  0009                     	;# 
   224  000A                     	;# 
   225  000B                     	;# 
   226  000C                     	;# 
   227  000D                     	;# 
   228  0011                     	;# 
   229  0012                     	;# 
   230  0013                     	;# 
   231  0014                     	;# 
   232  0015                     	;# 
   233  0016                     	;# 
   234  0016                     	;# 
   235  0017                     	;# 
   236  0018                     	;# 
   237  0019                     	;# 
   238  001A                     	;# 
   239  001B                     	;# 
   240  001C                     	;# 
   241  001E                     	;# 
   242  001F                     	;# 
   243  008C                     	;# 
   244  008D                     	;# 
   245  0091                     	;# 
   246  0092                     	;# 
   247  0093                     	;# 
   248  0094                     	;# 
   249  0095                     	;# 
   250  0096                     	;# 
   251  0097                     	;# 
   252  0098                     	;# 
   253  0099                     	;# 
   254  009A                     	;# 
   255  009B                     	;# 
   256  009B                     	;# 
   257  009C                     	;# 
   258  009D                     	;# 
   259  009E                     	;# 
   260  010C                     	;# 
   261  010D                     	;# 
   262  0111                     	;# 
   263  0112                     	;# 
   264  0113                     	;# 
   265  0114                     	;# 
   266  0115                     	;# 
   267  0116                     	;# 
   268  0117                     	;# 
   269  0118                     	;# 
   270  0119                     	;# 
   271  011A                     	;# 
   272  011B                     	;# 
   273  011D                     	;# 
   274  011E                     	;# 
   275  018C                     	;# 
   276  018D                     	;# 
   277  0191                     	;# 
   278  0191                     	;# 
   279  0192                     	;# 
   280  0193                     	;# 
   281  0193                     	;# 
   282  0193                     	;# 
   283  0194                     	;# 
   284  0195                     	;# 
   285  0196                     	;# 
   286  0199                     	;# 
   287  019A                     	;# 
   288  019B                     	;# 
   289  019B                     	;# 
   290  019B                     	;# 
   291  019B                     	;# 
   292  019C                     	;# 
   293  019C                     	;# 
   294  019D                     	;# 
   295  019E                     	;# 
   296  019F                     	;# 
   297  020C                     	;# 
   298  020D                     	;# 
   299  0211                     	;# 
   300  0211                     	;# 
   301  0212                     	;# 
   302  0212                     	;# 
   303  0213                     	;# 
   304  0213                     	;# 
   305  0214                     	;# 
   306  0214                     	;# 
   307  0215                     	;# 
   308  0215                     	;# 
   309  0215                     	;# 
   310  0216                     	;# 
   311  0216                     	;# 
   312  0217                     	;# 
   313  0217                     	;# 
   314  0219                     	;# 
   315  021A                     	;# 
   316  021B                     	;# 
   317  021C                     	;# 
   318  021D                     	;# 
   319  021E                     	;# 
   320  021F                     	;# 
   321  0291                     	;# 
   322  0291                     	;# 
   323  0292                     	;# 
   324  0293                     	;# 
   325  0294                     	;# 
   326  0295                     	;# 
   327  0295                     	;# 
   328  0296                     	;# 
   329  0298                     	;# 
   330  0298                     	;# 
   331  0299                     	;# 
   332  029A                     	;# 
   333  029B                     	;# 
   334  029C                     	;# 
   335  029C                     	;# 
   336  029D                     	;# 
   337  029E                     	;# 
   338  029E                     	;# 
   339  0311                     	;# 
   340  0311                     	;# 
   341  0312                     	;# 
   342  0313                     	;# 
   343  0318                     	;# 
   344  0318                     	;# 
   345  0319                     	;# 
   346  031A                     	;# 
   347  0394                     	;# 
   348  0395                     	;# 
   349  0396                     	;# 
   350  039A                     	;# 
   351  039C                     	;# 
   352  039D                     	;# 
   353  039E                     	;# 
   354  039F                     	;# 
   355  0415                     	;# 
   356  0416                     	;# 
   357  0417                     	;# 
   358  041C                     	;# 
   359  041D                     	;# 
   360  041E                     	;# 
   361  0FE4                     	;# 
   362  0FE5                     	;# 
   363  0FE6                     	;# 
   364  0FE7                     	;# 
   365  0FE8                     	;# 
   366  0FE9                     	;# 
   367  0FEA                     	;# 
   368  0FEB                     	;# 
   369  0FED                     	;# 
   370  0FEE                     	;# 
   371  0FEF                     	;# 
   372  0000                     	;# 
   373  0001                     	;# 
   374  0002                     	;# 
   375  0003                     	;# 
   376  0004                     	;# 
   377  0005                     	;# 
   378  0006                     	;# 
   379  0007                     	;# 
   380  0008                     	;# 
   381  0009                     	;# 
   382  000A                     	;# 
   383  000B                     	;# 
   384  000C                     	;# 
   385  000D                     	;# 
   386  0011                     	;# 
   387  0012                     	;# 
   388  0013                     	;# 
   389  0014                     	;# 
   390  0015                     	;# 
   391  0016                     	;# 
   392  0016                     	;# 
   393  0017                     	;# 
   394  0018                     	;# 
   395  0019                     	;# 
   396  001A                     	;# 
   397  001B                     	;# 
   398  001C                     	;# 
   399  001E                     	;# 
   400  001F                     	;# 
   401  008C                     	;# 
   402  008D                     	;# 
   403  0091                     	;# 
   404  0092                     	;# 
   405  0093                     	;# 
   406  0094                     	;# 
   407  0095                     	;# 
   408  0096                     	;# 
   409  0097                     	;# 
   410  0098                     	;# 
   411  0099                     	;# 
   412  009A                     	;# 
   413  009B                     	;# 
   414  009B                     	;# 
   415  009C                     	;# 
   416  009D                     	;# 
   417  009E                     	;# 
   418  010C                     	;# 
   419  010D                     	;# 
   420  0111                     	;# 
   421  0112                     	;# 
   422  0113                     	;# 
   423  0114                     	;# 
   424  0115                     	;# 
   425  0116                     	;# 
   426  0117                     	;# 
   427  0118                     	;# 
   428  0119                     	;# 
   429  011A                     	;# 
   430  011B                     	;# 
   431  011D                     	;# 
   432  011E                     	;# 
   433  018C                     	;# 
   434  018D                     	;# 
   435  0191                     	;# 
   436  0191                     	;# 
   437  0192                     	;# 
   438  0193                     	;# 
   439  0193                     	;# 
   440  0193                     	;# 
   441  0194                     	;# 
   442  0195                     	;# 
   443  0196                     	;# 
   444  0199                     	;# 
   445  019A                     	;# 
   446  019B                     	;# 
   447  019B                     	;# 
   448  019B                     	;# 
   449  019B                     	;# 
   450  019C                     	;# 
   451  019C                     	;# 
   452  019D                     	;# 
   453  019E                     	;# 
   454  019F                     	;# 
   455  020C                     	;# 
   456  020D                     	;# 
   457  0211                     	;# 
   458  0211                     	;# 
   459  0212                     	;# 
   460  0212                     	;# 
   461  0213                     	;# 
   462  0213                     	;# 
   463  0214                     	;# 
   464  0214                     	;# 
   465  0215                     	;# 
   466  0215                     	;# 
   467  0215                     	;# 
   468  0216                     	;# 
   469  0216                     	;# 
   470  0217                     	;# 
   471  0217                     	;# 
   472  0219                     	;# 
   473  021A                     	;# 
   474  021B                     	;# 
   475  021C                     	;# 
   476  021D                     	;# 
   477  021E                     	;# 
   478  021F                     	;# 
   479  0291                     	;# 
   480  0291                     	;# 
   481  0292                     	;# 
   482  0293                     	;# 
   483  0294                     	;# 
   484  0295                     	;# 
   485  0295                     	;# 
   486  0296                     	;# 
   487  0298                     	;# 
   488  0298                     	;# 
   489  0299                     	;# 
   490  029A                     	;# 
   491  029B                     	;# 
   492  029C                     	;# 
   493  029C                     	;# 
   494  029D                     	;# 
   495  029E                     	;# 
   496  029E                     	;# 
   497  0311                     	;# 
   498  0311                     	;# 
   499  0312                     	;# 
   500  0313                     	;# 
   501  0318                     	;# 
   502  0318                     	;# 
   503  0319                     	;# 
   504  031A                     	;# 
   505  0394                     	;# 
   506  0395                     	;# 
   507  0396                     	;# 
   508  039A                     	;# 
   509  039C                     	;# 
   510  039D                     	;# 
   511  039E                     	;# 
   512  039F                     	;# 
   513  0415                     	;# 
   514  0416                     	;# 
   515  0417                     	;# 
   516  041C                     	;# 
   517  041D                     	;# 
   518  041E                     	;# 
   519  0FE4                     	;# 
   520  0FE5                     	;# 
   521  0FE6                     	;# 
   522  0FE7                     	;# 
   523  0FE8                     	;# 
   524  0FE9                     	;# 
   525  0FEA                     	;# 
   526  0FEB                     	;# 
   527  0FED                     	;# 
   528  0FEE                     	;# 
   529  0FEF                     	;# 
   530  0000                     	;# 
   531  0001                     	;# 
   532  0002                     	;# 
   533  0003                     	;# 
   534  0004                     	;# 
   535  0005                     	;# 
   536  0006                     	;# 
   537  0007                     	;# 
   538  0008                     	;# 
   539  0009                     	;# 
   540  000A                     	;# 
   541  000B                     	;# 
   542  000C                     	;# 
   543  000D                     	;# 
   544  0011                     	;# 
   545  0012                     	;# 
   546  0013                     	;# 
   547  0014                     	;# 
   548  0015                     	;# 
   549  0016                     	;# 
   550  0016                     	;# 
   551  0017                     	;# 
   552  0018                     	;# 
   553  0019                     	;# 
   554  001A                     	;# 
   555  001B                     	;# 
   556  001C                     	;# 
   557  001E                     	;# 
   558  001F                     	;# 
   559  008C                     	;# 
   560  008D                     	;# 
   561  0091                     	;# 
   562  0092                     	;# 
   563  0093                     	;# 
   564  0094                     	;# 
   565  0095                     	;# 
   566  0096                     	;# 
   567  0097                     	;# 
   568  0098                     	;# 
   569  0099                     	;# 
   570  009A                     	;# 
   571  009B                     	;# 
   572  009B                     	;# 
   573  009C                     	;# 
   574  009D                     	;# 
   575  009E                     	;# 
   576  010C                     	;# 
   577  010D                     	;# 
   578  0111                     	;# 
   579  0112                     	;# 
   580  0113                     	;# 
   581  0114                     	;# 
   582  0115                     	;# 
   583  0116                     	;# 
   584  0117                     	;# 
   585  0118                     	;# 
   586  0119                     	;# 
   587  011A                     	;# 
   588  011B                     	;# 
   589  011D                     	;# 
   590  011E                     	;# 
   591  018C                     	;# 
   592  018D                     	;# 
   593  0191                     	;# 
   594  0191                     	;# 
   595  0192                     	;# 
   596  0193                     	;# 
   597  0193                     	;# 
   598  0193                     	;# 
   599  0194                     	;# 
   600  0195                     	;# 
   601  0196                     	;# 
   602  0199                     	;# 
   603  019A                     	;# 
   604  019B                     	;# 
   605  019B                     	;# 
   606  019B                     	;# 
   607  019B                     	;# 
   608  019C                     	;# 
   609  019C                     	;# 
   610  019D                     	;# 
   611  019E                     	;# 
   612  019F                     	;# 
   613  020C                     	;# 
   614  020D                     	;# 
   615  0211                     	;# 
   616  0211                     	;# 
   617  0212                     	;# 
   618  0212                     	;# 
   619  0213                     	;# 
   620  0213                     	;# 
   621  0214                     	;# 
   622  0214                     	;# 
   623  0215                     	;# 
   624  0215                     	;# 
   625  0215                     	;# 
   626  0216                     	;# 
   627  0216                     	;# 
   628  0217                     	;# 
   629  0217                     	;# 
   630  0219                     	;# 
   631  021A                     	;# 
   632  021B                     	;# 
   633  021C                     	;# 
   634  021D                     	;# 
   635  021E                     	;# 
   636  021F                     	;# 
   637  0291                     	;# 
   638  0291                     	;# 
   639  0292                     	;# 
   640  0293                     	;# 
   641  0294                     	;# 
   642  0295                     	;# 
   643  0295                     	;# 
   644  0296                     	;# 
   645  0298                     	;# 
   646  0298                     	;# 
   647  0299                     	;# 
   648  029A                     	;# 
   649  029B                     	;# 
   650  029C                     	;# 
   651  029C                     	;# 
   652  029D                     	;# 
   653  029E                     	;# 
   654  029E                     	;# 
   655  0311                     	;# 
   656  0311                     	;# 
   657  0312                     	;# 
   658  0313                     	;# 
   659  0318                     	;# 
   660  0318                     	;# 
   661  0319                     	;# 
   662  031A                     	;# 
   663  0394                     	;# 
   664  0395                     	;# 
   665  0396                     	;# 
   666  039A                     	;# 
   667  039C                     	;# 
   668  039D                     	;# 
   669  039E                     	;# 
   670  039F                     	;# 
   671  0415                     	;# 
   672  0416                     	;# 
   673  0417                     	;# 
   674  041C                     	;# 
   675  041D                     	;# 
   676  041E                     	;# 
   677  0FE4                     	;# 
   678  0FE5                     	;# 
   679  0FE6                     	;# 
   680  0FE7                     	;# 
   681  0FE8                     	;# 
   682  0FE9                     	;# 
   683  0FEA                     	;# 
   684  0FEB                     	;# 
   685  0FED                     	;# 
   686  0FEE                     	;# 
   687  0FEF                     	;# 
   688  0000                     	;# 
   689  0001                     	;# 
   690  0002                     	;# 
   691  0003                     	;# 
   692  0004                     	;# 
   693  0005                     	;# 
   694  0006                     	;# 
   695  0007                     	;# 
   696  0008                     	;# 
   697  0009                     	;# 
   698  000A                     	;# 
   699  000B                     	;# 
   700  000C                     	;# 
   701  000D                     	;# 
   702  0011                     	;# 
   703  0012                     	;# 
   704  0013                     	;# 
   705  0014                     	;# 
   706  0015                     	;# 
   707  0016                     	;# 
   708  0016                     	;# 
   709  0017                     	;# 
   710  0018                     	;# 
   711  0019                     	;# 
   712  001A                     	;# 
   713  001B                     	;# 
   714  001C                     	;# 
   715  001E                     	;# 
   716  001F                     	;# 
   717  008C                     	;# 
   718  008D                     	;# 
   719  0091                     	;# 
   720  0092                     	;# 
   721  0093                     	;# 
   722  0094                     	;# 
   723  0095                     	;# 
   724  0096                     	;# 
   725  0097                     	;# 
   726  0098                     	;# 
   727  0099                     	;# 
   728  009A                     	;# 
   729  009B                     	;# 
   730  009B                     	;# 
   731  009C                     	;# 
   732  009D                     	;# 
   733  009E                     	;# 
   734  010C                     	;# 
   735  010D                     	;# 
   736  0111                     	;# 
   737  0112                     	;# 
   738  0113                     	;# 
   739  0114                     	;# 
   740  0115                     	;# 
   741  0116                     	;# 
   742  0117                     	;# 
   743  0118                     	;# 
   744  0119                     	;# 
   745  011A                     	;# 
   746  011B                     	;# 
   747  011D                     	;# 
   748  011E                     	;# 
   749  018C                     	;# 
   750  018D                     	;# 
   751  0191                     	;# 
   752  0191                     	;# 
   753  0192                     	;# 
   754  0193                     	;# 
   755  0193                     	;# 
   756  0193                     	;# 
   757  0194                     	;# 
   758  0195                     	;# 
   759  0196                     	;# 
   760  0199                     	;# 
   761  019A                     	;# 
   762  019B                     	;# 
   763  019B                     	;# 
   764  019B                     	;# 
   765  019B                     	;# 
   766  019C                     	;# 
   767  019C                     	;# 
   768  019D                     	;# 
   769  019E                     	;# 
   770  019F                     	;# 
   771  020C                     	;# 
   772  020D                     	;# 
   773  0211                     	;# 
   774  0211                     	;# 
   775  0212                     	;# 
   776  0212                     	;# 
   777  0213                     	;# 
   778  0213                     	;# 
   779  0214                     	;# 
   780  0214                     	;# 
   781  0215                     	;# 
   782  0215                     	;# 
   783  0215                     	;# 
   784  0216                     	;# 
   785  0216                     	;# 
   786  0217                     	;# 
   787  0217                     	;# 
   788  0219                     	;# 
   789  021A                     	;# 
   790  021B                     	;# 
   791  021C                     	;# 
   792  021D                     	;# 
   793  021E                     	;# 
   794  021F                     	;# 
   795  0291                     	;# 
   796  0291                     	;# 
   797  0292                     	;# 
   798  0293                     	;# 
   799  0294                     	;# 
   800  0295                     	;# 
   801  0295                     	;# 
   802  0296                     	;# 
   803  0298                     	;# 
   804  0298                     	;# 
   805  0299                     	;# 
   806  029A                     	;# 
   807  029B                     	;# 
   808  029C                     	;# 
   809  029C                     	;# 
   810  029D                     	;# 
   811  029E                     	;# 
   812  029E                     	;# 
   813  0311                     	;# 
   814  0311                     	;# 
   815  0312                     	;# 
   816  0313                     	;# 
   817  0318                     	;# 
   818  0318                     	;# 
   819  0319                     	;# 
   820  031A                     	;# 
   821  0394                     	;# 
   822  0395                     	;# 
   823  0396                     	;# 
   824  039A                     	;# 
   825  039C                     	;# 
   826  039D                     	;# 
   827  039E                     	;# 
   828  039F                     	;# 
   829  0415                     	;# 
   830  0416                     	;# 
   831  0417                     	;# 
   832  041C                     	;# 
   833  041D                     	;# 
   834  041E                     	;# 
   835  0FE4                     	;# 
   836  0FE5                     	;# 
   837  0FE6                     	;# 
   838  0FE7                     	;# 
   839  0FE8                     	;# 
   840  0FE9                     	;# 
   841  0FEA                     	;# 
   842  0FEB                     	;# 
   843  0FED                     	;# 
   844  0FEE                     	;# 
   845  0FEF                     	;# 
   846  000D                     _PORTB	set	13
   847  000C                     _PORTAbits	set	12
   848  009D                     _ADCON0bits	set	157
   849  009D                     _ADCON0	set	157
   850  009C                     _ADRESH	set	156
   851  009E                     _ADCON1	set	158
   852  0097                     _WDTCON	set	151
   853  0098                     _OSCTUNE	set	152
   854  0099                     _OSCCON	set	153
   855  0095                     _OPTION_REGbits	set	149
   856  008D                     _TRISB	set	141
   857  008C                     _TRISA	set	140
   858  009B                     _ADRESL	set	155
   859  0116                     _BORCON	set	278
   860  011E                     _APFCON1	set	286
   861  011D                     _APFCON0	set	285
   862  010D                     _LATB	set	269
   863  010C                     _LATA	set	268
   864  018C                     _ANSELA	set	396
   865  018D                     _ANSELB	set	397
   866  020C                     _WPUA	set	524
   867  020D                     _WPUB	set	525
   868                           
   869                           	psect	cinit
   870  07F6                     start_initialization:	
   871                           ; #config settings
   872                           
   873  07F6                     __initialization:
   874                           
   875                           ; Clear objects allocated to BANK0
   876  07F6  0020               	movlb	0	; select bank0
   877  07F7  01BD               	clrf	__pbssBANK0& (0+127)
   878  07F8  01BE               	clrf	(__pbssBANK0+1)& (0+127)
   879  07F9  01BF               	clrf	(__pbssBANK0+2)& (0+127)
   880  07FA  01C0               	clrf	(__pbssBANK0+3)& (0+127)
   881  07FB  01C1               	clrf	(__pbssBANK0+4)& (0+127)
   882  07FC  01C2               	clrf	(__pbssBANK0+5)& (0+127)
   883  07FD                     end_of_initialization:	
   884                           ;End of C runtime variable initialization code
   885                           
   886  07FD                     __end_of__initialization:
   887  07FD  0020               	movlb	0
   888  07FE  3183  2BE4         	ljmp	_main	;jump to C main() function
   889                           
   890                           	psect	bssBANK0
   891  003D                     __pbssBANK0:
   892  003D                     _risultato:
   893  003D                     	ds	4
   894  0041                     _ADC_InterruptHandler:
   895  0041                     	ds	2
   896                           
   897                           	psect	cstackCOMMON
   898  0070                     __pcstackCOMMON:
   899  0070                     ?___flge:
   900  0070                     ?_OSCILLATOR_Initialize:	
   901                           ; 1 bit 
   902                           
   903  0070                     ??_OSCILLATOR_Initialize:	
   904                           ; 1 bytes @ 0x0
   905                           
   906  0070                     ?_WDT_Initialize:	
   907                           ; 1 bytes @ 0x0
   908                           
   909  0070                     ??_WDT_Initialize:	
   910                           ; 1 bytes @ 0x0
   911                           
   912  0070                     ?_ADC_Initialize:	
   913                           ; 1 bytes @ 0x0
   914                           
   915  0070                     ??_ADC_Initialize:	
   916                           ; 1 bytes @ 0x0
   917                           
   918  0070                     ?_PIN_MANAGER_Initialize:	
   919                           ; 1 bytes @ 0x0
   920                           
   921  0070                     ??_PIN_MANAGER_Initialize:	
   922                           ; 1 bytes @ 0x0
   923                           
   924  0070                     ?_SYSTEM_Initialize:	
   925                           ; 1 bytes @ 0x0
   926                           
   927  0070                     ??_SYSTEM_Initialize:	
   928                           ; 1 bytes @ 0x0
   929                           
   930  0070                     ?_ADC_StartConversion:	
   931                           ; 1 bytes @ 0x0
   932                           
   933  0070                     ??_ADC_StartConversion:	
   934                           ; 1 bytes @ 0x0
   935                           
   936  0070                     ?_main:	
   937                           ; 1 bytes @ 0x0
   938                           
   939  0070                     ?__Umul8_16:	
   940                           ; 1 bytes @ 0x0
   941                           
   942  0070                     ?___xxtofl:	
   943                           ; 2 bytes @ 0x0
   944                           
   945  0070                     __Umul8_16@multiplicand:	
   946                           ; 4 bytes @ 0x0
   947                           
   948  0070                     ___flge@ff1:	
   949                           ; 1 bytes @ 0x0
   950                           
   951  0070                     ___xxtofl@val:	
   952                           ; 4 bytes @ 0x0
   953                           
   954                           
   955                           ; 4 bytes @ 0x0
   956  0070                     	ds	2
   957  0072                     ??__Umul8_16:
   958                           
   959                           ; 1 bytes @ 0x2
   960  0072                     	ds	2
   961  0074                     ??___xxtofl:
   962  0074                     __Umul8_16@product:	
   963                           ; 1 bytes @ 0x4
   964                           
   965  0074                     ___flge@ff2:	
   966                           ; 2 bytes @ 0x4
   967                           
   968                           
   969                           ; 4 bytes @ 0x4
   970  0074                     	ds	2
   971  0076                     __Umul8_16@word_mpld:
   972                           
   973                           ; 2 bytes @ 0x6
   974  0076                     	ds	2
   975  0078                     ??___flge:
   976  0078                     __Umul8_16@multiplier:	
   977                           ; 1 bytes @ 0x8
   978                           
   979  0078                     ___xxtofl@sign:	
   980                           ; 1 bytes @ 0x8
   981                           
   982                           
   983                           ; 1 bytes @ 0x8
   984  0078                     	ds	1
   985  0079                     ___xxtofl@exp:
   986                           
   987                           ; 1 bytes @ 0x9
   988  0079                     	ds	1
   989  007A                     ___xxtofl@arg:
   990                           
   991                           ; 4 bytes @ 0xA
   992  007A                     	ds	4
   993                           
   994                           	psect	cstackBANK0
   995  0020                     __pcstackBANK0:
   996  0020                     ?___flmul:
   997  0020                     ___flmul@b:	
   998                           ; 4 bytes @ 0x0
   999                           
  1000                           
  1001                           ; 4 bytes @ 0x0
  1002  0020                     	ds	4
  1003  0024                     ___flmul@a:
  1004                           
  1005                           ; 4 bytes @ 0x4
  1006  0024                     	ds	4
  1007  0028                     ??___flmul:
  1008                           
  1009                           ; 1 bytes @ 0x8
  1010  0028                     	ds	5
  1011  002D                     ___flmul@sign:
  1012                           
  1013                           ; 1 bytes @ 0xD
  1014  002D                     	ds	1
  1015  002E                     ___flmul@grs:
  1016                           
  1017                           ; 4 bytes @ 0xE
  1018  002E                     	ds	4
  1019  0032                     ___flmul@aexp:
  1020                           
  1021                           ; 1 bytes @ 0x12
  1022  0032                     	ds	1
  1023  0033                     ___flmul@bexp:
  1024                           
  1025                           ; 1 bytes @ 0x13
  1026  0033                     	ds	1
  1027  0034                     ___flmul@prod:
  1028                           
  1029                           ; 4 bytes @ 0x14
  1030  0034                     	ds	4
  1031  0038                     ___flmul@temp:
  1032                           
  1033                           ; 2 bytes @ 0x18
  1034  0038                     	ds	2
  1035  003A                     ??_main:
  1036                           
  1037                           ; 1 bytes @ 0x1A
  1038  003A                     	ds	3
  1039                           
  1040                           	psect	maintext
  1041  03E4                     __pmaintext:	
  1042 ;;
  1043 ;;Main: autosize = 0, tempsize = 3, incstack = 0, save=0
  1044 ;;
  1045 ;; *************** function _main *****************
  1046 ;; Defined at:
  1047 ;;		line 37 in file "main.c"
  1048 ;; Parameters:    Size  Location     Type
  1049 ;;		None
  1050 ;; Auto vars:     Size  Location     Type
  1051 ;;		None
  1052 ;; Return value:  Size  Location     Type
  1053 ;;                  1    wreg      void 
  1054 ;; Registers used:
  1055 ;;		wreg, status,2, status,0, pclath, cstack
  1056 ;; Tracked objects:
  1057 ;;		On entry : B1F/0
  1058 ;;		On exit  : 0/0
  1059 ;;		Unchanged: 0/0
  1060 ;; Data sizes:     COMMON   BANK0   BANK1   BANK2   BANK3   BANK4
  1061 ;;      Params:         0       0       0       0       0       0
  1062 ;;      Locals:         0       0       0       0       0       0
  1063 ;;      Temps:          0       3       0       0       0       0
  1064 ;;      Totals:         0       3       0       0       0       0
  1065 ;;Total ram usage:        3 bytes
  1066 ;; Hardware stack levels required when called:    2
  1067 ;; This function calls:
  1068 ;;		_ADC_StartConversion
  1069 ;;		_SYSTEM_Initialize
  1070 ;;		___flge
  1071 ;;		___flmul
  1072 ;;		___xxtofl
  1073 ;; This function is called by:
  1074 ;;		Startup code after reset
  1075 ;; This function uses a non-reentrant model
  1076 ;;
  1077                           
  1078                           
  1079                           ;psect for function _main
  1080  03E4                     _main:
  1081  03E4                     l1276:	
  1082                           ;incstack = 0
  1083                           ; Regs used in _main: [wreg+status,2+status,0+pclath+cstack]
  1084                           
  1085                           
  1086                           ;main.c: 40:     SYSTEM_Initialize();
  1087  03E4  3183  239F  3183   	fcall	_SYSTEM_Initialize
  1088  03E7                     l1278:
  1089                           
  1090                           ;main.c: 58:     {;main.c: 59:         if(PORTAbits.RA2 == 1){
  1091  03E7  0020               	movlb	0	; select bank0
  1092  03E8  1D0C               	btfss	12,2	;volatile
  1093  03E9  2BEB               	goto	u1011
  1094  03EA  2BEC               	goto	u1010
  1095  03EB                     u1011:
  1096  03EB  2BE7               	goto	l1278
  1097  03EC                     u1010:
  1098  03EC                     l1280:
  1099                           
  1100                           ;main.c: 60:                 ADC_StartConversion();
  1101  03EC  3183  2389  3183   	fcall	_ADC_StartConversion
  1102  03EF                     l116:	
  1103                           ;main.c: 64:                 }
  1104                           
  1105                           
  1106                           ;main.c: 62:                 while(ADCON0bits.GO_nDONE == 1){
  1107  03EF  0021               	movlb	1	; select bank1
  1108  03F0  189D               	btfsc	29,1	;volatile
  1109  03F1  2BF3               	goto	u1021
  1110  03F2  2BF4               	goto	u1020
  1111  03F3                     u1021:
  1112  03F3  2BEF               	goto	l116
  1113  03F4                     u1020:
  1114  03F4                     l1282:
  1115                           
  1116                           ;main.c: 65:                 risultato = 0.0046 * (ADRESL + (256 * ADRESH));
  1117  03F4  303B               	movlw	59
  1118  03F5  0020               	movlb	0	; select bank0
  1119  03F6  00A3               	movwf	___flmul@b+3
  1120  03F7  3096               	movlw	150
  1121  03F8  00A2               	movwf	___flmul@b+2
  1122  03F9  30BB               	movlw	187
  1123  03FA  00A1               	movwf	___flmul@b+1
  1124  03FB  3099               	movlw	153
  1125  03FC  00A0               	movwf	___flmul@b
  1126  03FD  0021               	movlb	1	; select bank1
  1127  03FE  081C               	movf	28,w	;volatile
  1128  03FF  0020               	movlb	0	; select bank0
  1129  0400  00BA               	movwf	??_main
  1130  0401  01BB               	clrf	??_main+1
  1131  0402  083A               	movf	??_main,w
  1132  0403  00BB               	movwf	??_main+1
  1133  0404  01BA               	clrf	??_main
  1134  0405  0021               	movlb	1	; select bank1
  1135  0406  081B               	movf	27,w	;volatile
  1136  0407  0020               	movlb	0	; select bank0
  1137  0408  073A               	addwf	??_main,w
  1138  0409  00F0               	movwf	___xxtofl@val
  1139  040A  083B               	movf	??_main+1,w
  1140  040B  1803               	skipnc
  1141  040C  0A3B               	incf	??_main+1,w
  1142  040D  00F1               	movwf	___xxtofl@val+1
  1143  040E  01F2               	clrf	___xxtofl@val+2
  1144  040F  1BF1               	btfsc	___xxtofl@val+1,7
  1145  0410  03F2               	decf	___xxtofl@val+2,f
  1146  0411  0872               	movf	___xxtofl@val+2,w
  1147  0412  00F3               	movwf	___xxtofl@val+3
  1148  0413  3001               	movlw	1
  1149  0414  3184  24F3  3183   	fcall	___xxtofl
  1150  0417  0873               	movf	?___xxtofl+3,w
  1151  0418  0020               	movlb	0	; select bank0
  1152  0419  00A7               	movwf	___flmul@a+3
  1153  041A  0872               	movf	?___xxtofl+2,w
  1154  041B  00A6               	movwf	___flmul@a+2
  1155  041C  0871               	movf	?___xxtofl+1,w
  1156  041D  00A5               	movwf	___flmul@a+1
  1157  041E  0870               	movf	?___xxtofl,w
  1158  041F  00A4               	movwf	___flmul@a
  1159  0420  3185  259F  3183   	fcall	___flmul
  1160  0423  0020               	movlb	0	; select bank0
  1161  0424  0823               	movf	?___flmul+3,w
  1162  0425  00C0               	movwf	_risultato+3
  1163  0426  0822               	movf	?___flmul+2,w
  1164  0427  00BF               	movwf	_risultato+2
  1165  0428  0821               	movf	?___flmul+1,w
  1166  0429  00BE               	movwf	_risultato+1
  1167  042A  0820               	movf	?___flmul,w
  1168  042B  00BD               	movwf	_risultato
  1169                           
  1170                           ;main.c: 66:                 if(risultato >= 3.4){
  1171  042C  0840               	movf	_risultato+3,w
  1172  042D  00F3               	movwf	___flge@ff1+3
  1173  042E  083F               	movf	_risultato+2,w
  1174  042F  00F2               	movwf	___flge@ff1+2
  1175  0430  083E               	movf	_risultato+1,w
  1176  0431  00F1               	movwf	___flge@ff1+1
  1177  0432  083D               	movf	_risultato,w
  1178  0433  00F0               	movwf	___flge@ff1
  1179  0434  3040               	movlw	64
  1180  0435  00F7               	movwf	___flge@ff2+3
  1181  0436  3059               	movlw	89
  1182  0437  00F6               	movwf	___flge@ff2+2
  1183  0438  3099               	movlw	153
  1184  0439  00F5               	movwf	___flge@ff2+1
  1185  043A  309A               	movlw	154
  1186  043B  00F4               	movwf	___flge@ff2
  1187  043C  3184  2469  3183   	fcall	___flge
  1188  043F  1C03               	btfss	3,0
  1189  0440  2C42               	goto	u1031
  1190  0441  2C43               	goto	u1030
  1191  0442                     u1031:
  1192  0442  2C62               	goto	l1290
  1193  0443                     u1030:
  1194  0443                     l1284:
  1195                           
  1196                           ;main.c: 67:                         PORTB=0b11111111;
  1197  0443  30FF               	movlw	255
  1198  0444  0020               	movlb	0	; select bank0
  1199  0445  008D               	movwf	13	;volatile
  1200                           
  1201                           ;main.c: 68:                         _delay((unsigned long)((250)*(4000000/4000.0)));
  1202  0446  3002               	movlw	2
  1203  0447  0020               	movlb	0	; select bank0
  1204  0448  00BB               	movwf	??_main+1
  1205  0449  3045               	movlw	69
  1206  044A  00BA               	movwf	??_main
  1207  044B  30A9               	movlw	169
  1208  044C                     u1047:
  1209  044C  0B89               	decfsz	9,f
  1210  044D  2C4C               	goto	u1047
  1211  044E  0BBA               	decfsz	??_main,f
  1212  044F  2C4C               	goto	u1047
  1213  0450  0BBB               	decfsz	??_main+1,f
  1214  0451  2C4C               	goto	u1047
  1215  0452  3200               	nop2
  1216  0453                     l1286:
  1217                           
  1218                           ;main.c: 69:                         PORTB=0b00000000;
  1219  0453  0020               	movlb	0	; select bank0
  1220  0454  018D               	clrf	13	;volatile
  1221  0455                     l1288:
  1222                           
  1223                           ;main.c: 70:                         _delay((unsigned long)((250)*(4000000/4000.0)));
  1224  0455  3002               	movlw	2
  1225  0456  0020               	movlb	0	; select bank0
  1226  0457  00BB               	movwf	??_main+1
  1227  0458  3045               	movlw	69
  1228  0459  00BA               	movwf	??_main
  1229  045A  30A9               	movlw	169
  1230  045B                     u1057:
  1231  045B  0B89               	decfsz	9,f
  1232  045C  2C5B               	goto	u1057
  1233  045D  0BBA               	decfsz	??_main,f
  1234  045E  2C5B               	goto	u1057
  1235  045F  0BBB               	decfsz	??_main+1,f
  1236  0460  2C5B               	goto	u1057
  1237  0461  3200               	nop2
  1238  0462                     l1290:
  1239                           
  1240                           ;main.c: 72:                 PORTB=ADRESL;
  1241  0462  0021               	movlb	1	; select bank1
  1242  0463  081B               	movf	27,w	;volatile
  1243  0464  0020               	movlb	0	; select bank0
  1244  0465  008D               	movwf	13	;volatile
  1245  0466  2BE7               	goto	l1278
  1246  0467  3180  2802         	ljmp	start
  1247  0469                     __end_of_main:
  1248                           
  1249                           	psect	text1
  1250  04F3                     __ptext1:	
  1251 ;; *************** function ___xxtofl *****************
  1252 ;; Defined at:
  1253 ;;		line 10 in file "C:\Program Files\Microchip\xc8\v2.31\pic\sources\c99\common\xxtofl.c"
  1254 ;; Parameters:    Size  Location     Type
  1255 ;;  sign            1    wreg     unsigned char 
  1256 ;;  val             4    0[COMMON] long 
  1257 ;; Auto vars:     Size  Location     Type
  1258 ;;  sign            1    8[COMMON] unsigned char 
  1259 ;;  arg             4   10[COMMON] unsigned long 
  1260 ;;  exp             1    9[COMMON] unsigned char 
  1261 ;; Return value:  Size  Location     Type
  1262 ;;                  4    0[COMMON] unsigned char 
  1263 ;; Registers used:
  1264 ;;		wreg, status,2, status,0
  1265 ;; Tracked objects:
  1266 ;;		On entry : 0/0
  1267 ;;		On exit  : 0/0
  1268 ;;		Unchanged: 0/0
  1269 ;; Data sizes:     COMMON   BANK0   BANK1   BANK2   BANK3   BANK4
  1270 ;;      Params:         4       0       0       0       0       0
  1271 ;;      Locals:         6       0       0       0       0       0
  1272 ;;      Temps:          4       0       0       0       0       0
  1273 ;;      Totals:        14       0       0       0       0       0
  1274 ;;Total ram usage:       14 bytes
  1275 ;; Hardware stack levels used:    1
  1276 ;; This function calls:
  1277 ;;		Nothing
  1278 ;; This function is called by:
  1279 ;;		_main
  1280 ;; This function uses a non-reentrant model
  1281 ;;
  1282                           
  1283                           
  1284                           ;psect for function ___xxtofl
  1285  04F3                     ___xxtofl:
  1286                           
  1287                           ;incstack = 0
  1288                           ; Regs used in ___xxtofl: [wreg+status,2+status,0]
  1289                           ;___xxtofl@sign stored from wreg
  1290  04F3  00F8               	movwf	___xxtofl@sign
  1291  04F4                     l1232:
  1292  04F4  0878               	movf	___xxtofl@sign,w
  1293  04F5  1903               	btfsc	3,2
  1294  04F6  2CF8               	goto	u871
  1295  04F7  2CF9               	goto	u870
  1296  04F8                     u871:
  1297  04F8  2D0D               	goto	l1238
  1298  04F9                     u870:
  1299  04F9                     l1234:
  1300  04F9  1FF3               	btfss	___xxtofl@val+3,7
  1301  04FA  2CFC               	goto	u881
  1302  04FB  2CFD               	goto	u880
  1303  04FC                     u881:
  1304  04FC  2D0D               	goto	l1238
  1305  04FD                     u880:
  1306  04FD                     l1236:
  1307  04FD  0970               	comf	___xxtofl@val,w
  1308  04FE  00FA               	movwf	___xxtofl@arg
  1309  04FF  0971               	comf	___xxtofl@val+1,w
  1310  0500  00FB               	movwf	___xxtofl@arg+1
  1311  0501  0972               	comf	___xxtofl@val+2,w
  1312  0502  00FC               	movwf	___xxtofl@arg+2
  1313  0503  0973               	comf	___xxtofl@val+3,w
  1314  0504  00FD               	movwf	___xxtofl@arg+3
  1315  0505  0AFA               	incf	___xxtofl@arg,f
  1316  0506  1903               	skipnz
  1317  0507  0AFB               	incf	___xxtofl@arg+1,f
  1318  0508  1903               	skipnz
  1319  0509  0AFC               	incf	___xxtofl@arg+2,f
  1320  050A  1903               	skipnz
  1321  050B  0AFD               	incf	___xxtofl@arg+3,f
  1322  050C  2D15               	goto	l713
  1323  050D                     l1238:
  1324  050D  0873               	movf	___xxtofl@val+3,w
  1325  050E  00FD               	movwf	___xxtofl@arg+3
  1326  050F  0872               	movf	___xxtofl@val+2,w
  1327  0510  00FC               	movwf	___xxtofl@arg+2
  1328  0511  0871               	movf	___xxtofl@val+1,w
  1329  0512  00FB               	movwf	___xxtofl@arg+1
  1330  0513  0870               	movf	___xxtofl@val,w
  1331  0514  00FA               	movwf	___xxtofl@arg
  1332  0515                     l713:
  1333  0515  0873               	movf	___xxtofl@val+3,w
  1334  0516  0472               	iorwf	___xxtofl@val+2,w
  1335  0517  0471               	iorwf	___xxtofl@val+1,w
  1336  0518  0470               	iorwf	___xxtofl@val,w
  1337  0519  1D03               	skipz
  1338  051A  2D1C               	goto	u891
  1339  051B  2D1D               	goto	u890
  1340  051C                     u891:
  1341  051C  2D26               	goto	l1244
  1342  051D                     u890:
  1343  051D                     l1240:
  1344  051D  3000               	movlw	0
  1345  051E  00F3               	movwf	?___xxtofl+3
  1346  051F  3000               	movlw	0
  1347  0520  00F2               	movwf	?___xxtofl+2
  1348  0521  3000               	movlw	0
  1349  0522  00F1               	movwf	?___xxtofl+1
  1350  0523  3000               	movlw	0
  1351  0524  00F0               	movwf	?___xxtofl
  1352  0525  2D9E               	goto	l715
  1353  0526                     l1244:
  1354  0526  3096               	movlw	150
  1355  0527  00F4               	movwf	??___xxtofl
  1356  0528  0874               	movf	??___xxtofl,w
  1357  0529  00F9               	movwf	___xxtofl@exp
  1358  052A  2D36               	goto	l1248
  1359  052B                     l1246:
  1360  052B  3001               	movlw	1
  1361  052C  00F4               	movwf	??___xxtofl
  1362  052D  0874               	movf	??___xxtofl,w
  1363  052E  07F9               	addwf	___xxtofl@exp,f
  1364  052F  3001               	movlw	1
  1365  0530                     u905:
  1366  0530  36FD               	lsrf	___xxtofl@arg+3,f
  1367  0531  0CFC               	rrf	___xxtofl@arg+2,f
  1368  0532  0CFB               	rrf	___xxtofl@arg+1,f
  1369  0533  0CFA               	rrf	___xxtofl@arg,f
  1370  0534  0B89               	decfsz	9,f
  1371  0535  2D30               	goto	u905
  1372  0536                     l1248:
  1373  0536  30FE               	movlw	254
  1374  0537  057D               	andwf	___xxtofl@arg+3,w
  1375  0538  1D03               	btfss	3,2
  1376  0539  2D3B               	goto	u911
  1377  053A  2D3C               	goto	u910
  1378  053B                     u911:
  1379  053B  2D2B               	goto	l1246
  1380  053C                     u910:
  1381  053C  2D50               	goto	l719
  1382  053D                     l1250:
  1383  053D  3001               	movlw	1
  1384  053E  00F4               	movwf	??___xxtofl
  1385  053F  0874               	movf	??___xxtofl,w
  1386  0540  07F9               	addwf	___xxtofl@exp,f
  1387  0541                     l1252:
  1388  0541  3001               	movlw	1
  1389  0542  07FA               	addwf	___xxtofl@arg,f
  1390  0543  3000               	movlw	0
  1391  0544  3DFB               	addwfc	___xxtofl@arg+1,f
  1392  0545  3000               	movlw	0
  1393  0546  3DFC               	addwfc	___xxtofl@arg+2,f
  1394  0547  3000               	movlw	0
  1395  0548  3DFD               	addwfc	___xxtofl@arg+3,f
  1396  0549                     l1254:
  1397  0549  3001               	movlw	1
  1398  054A                     u925:
  1399  054A  36FD               	lsrf	___xxtofl@arg+3,f
  1400  054B  0CFC               	rrf	___xxtofl@arg+2,f
  1401  054C  0CFB               	rrf	___xxtofl@arg+1,f
  1402  054D  0CFA               	rrf	___xxtofl@arg,f
  1403  054E  0B89               	decfsz	9,f
  1404  054F  2D4A               	goto	u925
  1405  0550                     l719:
  1406  0550  30FF               	movlw	255
  1407  0551  057D               	andwf	___xxtofl@arg+3,w
  1408  0552  1D03               	btfss	3,2
  1409  0553  2D55               	goto	u931
  1410  0554  2D56               	goto	u930
  1411  0555                     u931:
  1412  0555  2D3D               	goto	l1250
  1413  0556                     u930:
  1414  0556  2D60               	goto	l1258
  1415  0557                     l1256:
  1416  0557  3001               	movlw	1
  1417  0558  02F9               	subwf	___xxtofl@exp,f
  1418  0559  3001               	movlw	1
  1419  055A                     u945:
  1420  055A  35FA               	lslf	___xxtofl@arg,f
  1421  055B  0DFB               	rlf	___xxtofl@arg+1,f
  1422  055C  0DFC               	rlf	___xxtofl@arg+2,f
  1423  055D  0DFD               	rlf	___xxtofl@arg+3,f
  1424  055E  0B89               	decfsz	9,f
  1425  055F  2D5A               	goto	u945
  1426  0560                     l1258:
  1427  0560  1BFC               	btfsc	___xxtofl@arg+2,7
  1428  0561  2D63               	goto	u951
  1429  0562  2D64               	goto	u950
  1430  0563                     u951:
  1431  0563  2D6A               	goto	l726
  1432  0564                     u950:
  1433  0564                     l1260:
  1434  0564  3002               	movlw	2
  1435  0565  0279               	subwf	___xxtofl@exp,w
  1436  0566  1803               	skipnc
  1437  0567  2D69               	goto	u961
  1438  0568  2D6A               	goto	u960
  1439  0569                     u961:
  1440  0569  2D57               	goto	l1256
  1441  056A                     u960:
  1442  056A                     l726:
  1443  056A  1879               	btfsc	___xxtofl@exp,0
  1444  056B  2D6D               	goto	u971
  1445  056C  2D6E               	goto	u970
  1446  056D                     u971:
  1447  056D  2D76               	goto	l727
  1448  056E                     u970:
  1449  056E                     l1262:
  1450  056E  30FF               	movlw	255
  1451  056F  05FA               	andwf	___xxtofl@arg,f
  1452  0570  30FF               	movlw	255
  1453  0571  05FB               	andwf	___xxtofl@arg+1,f
  1454  0572  307F               	movlw	127
  1455  0573  05FC               	andwf	___xxtofl@arg+2,f
  1456  0574  30FF               	movlw	255
  1457  0575  05FD               	andwf	___xxtofl@arg+3,f
  1458  0576                     l727:
  1459  0576  1003               	clrc
  1460  0577  0CF9               	rrf	___xxtofl@exp,f
  1461  0578                     l1264:
  1462  0578  0879               	movf	___xxtofl@exp,w
  1463  0579  00F4               	movwf	??___xxtofl
  1464  057A  01F5               	clrf	??___xxtofl+1
  1465  057B  01F6               	clrf	??___xxtofl+2
  1466  057C  01F7               	clrf	??___xxtofl+3
  1467  057D  3018               	movlw	24
  1468  057E                     u985:
  1469  057E  35F4               	lslf	??___xxtofl,f
  1470  057F  0DF5               	rlf	??___xxtofl+1,f
  1471  0580  0DF6               	rlf	??___xxtofl+2,f
  1472  0581  0DF7               	rlf	??___xxtofl+3,f
  1473  0582                     u980:
  1474  0582  0B89               	decfsz	9,f
  1475  0583  2D7E               	goto	u985
  1476  0584  0874               	movf	??___xxtofl,w
  1477  0585  04FA               	iorwf	___xxtofl@arg,f
  1478  0586  0875               	movf	??___xxtofl+1,w
  1479  0587  04FB               	iorwf	___xxtofl@arg+1,f
  1480  0588  0876               	movf	??___xxtofl+2,w
  1481  0589  04FC               	iorwf	___xxtofl@arg+2,f
  1482  058A  0877               	movf	??___xxtofl+3,w
  1483  058B  04FD               	iorwf	___xxtofl@arg+3,f
  1484  058C                     l1266:
  1485  058C  0878               	movf	___xxtofl@sign,w
  1486  058D  1903               	btfsc	3,2
  1487  058E  2D90               	goto	u991
  1488  058F  2D91               	goto	u990
  1489  0590                     u991:
  1490  0590  2D96               	goto	l1272
  1491  0591                     u990:
  1492  0591                     l1268:
  1493  0591  1FF3               	btfss	___xxtofl@val+3,7
  1494  0592  2D94               	goto	u1001
  1495  0593  2D95               	goto	u1000
  1496  0594                     u1001:
  1497  0594  2D96               	goto	l1272
  1498  0595                     u1000:
  1499  0595                     l1270:
  1500  0595  17FD               	bsf	___xxtofl@arg+3,7
  1501  0596                     l1272:
  1502  0596  087D               	movf	___xxtofl@arg+3,w
  1503  0597  00F3               	movwf	?___xxtofl+3
  1504  0598  087C               	movf	___xxtofl@arg+2,w
  1505  0599  00F2               	movwf	?___xxtofl+2
  1506  059A  087B               	movf	___xxtofl@arg+1,w
  1507  059B  00F1               	movwf	?___xxtofl+1
  1508  059C  087A               	movf	___xxtofl@arg,w
  1509  059D  00F0               	movwf	?___xxtofl
  1510  059E                     l715:
  1511  059E  0008               	return
  1512  059F                     __end_of___xxtofl:
  1513                           
  1514                           	psect	text2
  1515  059F                     __ptext2:	
  1516 ;; *************** function ___flmul *****************
  1517 ;; Defined at:
  1518 ;;		line 8 in file "C:\Program Files\Microchip\xc8\v2.31\pic\sources\c99\common\sprcmul.c"
  1519 ;; Parameters:    Size  Location     Type
  1520 ;;  b               4    0[BANK0 ] unsigned char 
  1521 ;;  a               4    4[BANK0 ] unsigned char 
  1522 ;; Auto vars:     Size  Location     Type
  1523 ;;  prod            4   20[BANK0 ] struct .
  1524 ;;  grs             4   14[BANK0 ] unsigned long 
  1525 ;;  temp            2   24[BANK0 ] struct .
  1526 ;;  bexp            1   19[BANK0 ] unsigned char 
  1527 ;;  aexp            1   18[BANK0 ] unsigned char 
  1528 ;;  sign            1   13[BANK0 ] unsigned char 
  1529 ;; Return value:  Size  Location     Type
  1530 ;;                  4    0[BANK0 ] unsigned char 
  1531 ;; Registers used:
  1532 ;;		wreg, status,2, status,0, pclath, cstack
  1533 ;; Tracked objects:
  1534 ;;		On entry : 0/0
  1535 ;;		On exit  : 0/0
  1536 ;;		Unchanged: 0/0
  1537 ;; Data sizes:     COMMON   BANK0   BANK1   BANK2   BANK3   BANK4
  1538 ;;      Params:         0       8       0       0       0       0
  1539 ;;      Locals:         0      13       0       0       0       0
  1540 ;;      Temps:          0       5       0       0       0       0
  1541 ;;      Totals:         0      26       0       0       0       0
  1542 ;;Total ram usage:       26 bytes
  1543 ;; Hardware stack levels used:    1
  1544 ;; Hardware stack levels required when called:    1
  1545 ;; This function calls:
  1546 ;;		__Umul8_16
  1547 ;; This function is called by:
  1548 ;;		_main
  1549 ;; This function uses a non-reentrant model
  1550 ;;
  1551                           
  1552                           
  1553                           ;psect for function ___flmul
  1554  059F                     ___flmul:
  1555  059F                     l1092:	
  1556                           ;incstack = 0
  1557                           ; Regs used in ___flmul: [wreg+status,2+status,0+pclath+cstack]
  1558                           
  1559  059F  0020               	movlb	0	; select bank0
  1560  05A0  0823               	movf	___flmul@b+3,w
  1561  05A1  3980               	andlw	128
  1562  05A2  00A8               	movwf	??___flmul
  1563  05A3  0828               	movf	??___flmul,w
  1564  05A4  00AD               	movwf	___flmul@sign
  1565  05A5                     l1094:
  1566  05A5  3523               	lslf	___flmul@b+3,w
  1567  05A6  00A8               	movwf	??___flmul
  1568  05A7  0828               	movf	??___flmul,w
  1569  05A8  00B3               	movwf	___flmul@bexp
  1570  05A9                     l1096:
  1571  05A9  1FA2               	btfss	___flmul@b+2,7
  1572  05AA  2DAC               	goto	u611
  1573  05AB  2DAD               	goto	u610
  1574  05AC                     u611:
  1575  05AC  2DAE               	goto	l1100
  1576  05AD                     u610:
  1577  05AD                     l1098:
  1578  05AD  1433               	bsf	___flmul@bexp,0
  1579  05AE                     l1100:
  1580  05AE  0833               	movf	___flmul@bexp,w
  1581  05AF  1903               	btfsc	3,2
  1582  05B0  2DB2               	goto	u621
  1583  05B1  2DB3               	goto	u620
  1584  05B2                     u621:
  1585  05B2  2DC2               	goto	l1108
  1586  05B3                     u620:
  1587  05B3                     l1102:
  1588  05B3  0A33               	incf	___flmul@bexp,w
  1589  05B4  1D03               	btfss	3,2
  1590  05B5  2DB7               	goto	u631
  1591  05B6  2DB8               	goto	u630
  1592  05B7                     u631:
  1593  05B7  2DC0               	goto	l1106
  1594  05B8                     u630:
  1595  05B8                     l1104:
  1596  05B8  3000               	movlw	0
  1597  05B9  00A3               	movwf	___flmul@b+3
  1598  05BA  3000               	movlw	0
  1599  05BB  00A2               	movwf	___flmul@b+2
  1600  05BC  3000               	movlw	0
  1601  05BD  00A1               	movwf	___flmul@b+1
  1602  05BE  3000               	movlw	0
  1603  05BF  00A0               	movwf	___flmul@b
  1604  05C0                     l1106:
  1605  05C0  17A2               	bsf	___flmul@b+2,7
  1606  05C1  2DCA               	goto	l1110
  1607  05C2                     l1108:
  1608  05C2  3000               	movlw	0
  1609  05C3  00A3               	movwf	___flmul@b+3
  1610  05C4  3000               	movlw	0
  1611  05C5  00A2               	movwf	___flmul@b+2
  1612  05C6  3000               	movlw	0
  1613  05C7  00A1               	movwf	___flmul@b+1
  1614  05C8  3000               	movlw	0
  1615  05C9  00A0               	movwf	___flmul@b
  1616  05CA                     l1110:
  1617  05CA  0827               	movf	___flmul@a+3,w
  1618  05CB  3980               	andlw	128
  1619  05CC  00A8               	movwf	??___flmul
  1620  05CD  0828               	movf	??___flmul,w
  1621  05CE  06AD               	xorwf	___flmul@sign,f
  1622  05CF                     l1112:
  1623  05CF  3527               	lslf	___flmul@a+3,w
  1624  05D0  00A8               	movwf	??___flmul
  1625  05D1  0828               	movf	??___flmul,w
  1626  05D2  00B2               	movwf	___flmul@aexp
  1627  05D3                     l1114:
  1628  05D3  1FA6               	btfss	___flmul@a+2,7
  1629  05D4  2DD6               	goto	u641
  1630  05D5  2DD7               	goto	u640
  1631  05D6                     u641:
  1632  05D6  2DD8               	goto	l1118
  1633  05D7                     u640:
  1634  05D7                     l1116:
  1635  05D7  1432               	bsf	___flmul@aexp,0
  1636  05D8                     l1118:
  1637  05D8  0832               	movf	___flmul@aexp,w
  1638  05D9  1903               	btfsc	3,2
  1639  05DA  2DDC               	goto	u651
  1640  05DB  2DDD               	goto	u650
  1641  05DC                     u651:
  1642  05DC  2DEC               	goto	l1126
  1643  05DD                     u650:
  1644  05DD                     l1120:
  1645  05DD  0A32               	incf	___flmul@aexp,w
  1646  05DE  1D03               	btfss	3,2
  1647  05DF  2DE1               	goto	u661
  1648  05E0  2DE2               	goto	u660
  1649  05E1                     u661:
  1650  05E1  2DEA               	goto	l1124
  1651  05E2                     u660:
  1652  05E2                     l1122:
  1653  05E2  3000               	movlw	0
  1654  05E3  00A7               	movwf	___flmul@a+3
  1655  05E4  3000               	movlw	0
  1656  05E5  00A6               	movwf	___flmul@a+2
  1657  05E6  3000               	movlw	0
  1658  05E7  00A5               	movwf	___flmul@a+1
  1659  05E8  3000               	movlw	0
  1660  05E9  00A4               	movwf	___flmul@a
  1661  05EA                     l1124:
  1662  05EA  17A6               	bsf	___flmul@a+2,7
  1663  05EB  2DF4               	goto	l1128
  1664  05EC                     l1126:
  1665  05EC  3000               	movlw	0
  1666  05ED  00A7               	movwf	___flmul@a+3
  1667  05EE  3000               	movlw	0
  1668  05EF  00A6               	movwf	___flmul@a+2
  1669  05F0  3000               	movlw	0
  1670  05F1  00A5               	movwf	___flmul@a+1
  1671  05F2  3000               	movlw	0
  1672  05F3  00A4               	movwf	___flmul@a
  1673  05F4                     l1128:
  1674  05F4  0832               	movf	___flmul@aexp,w
  1675  05F5  1903               	btfsc	3,2
  1676  05F6  2DF8               	goto	u671
  1677  05F7  2DF9               	goto	u670
  1678  05F8                     u671:
  1679  05F8  2DFE               	goto	l1132
  1680  05F9                     u670:
  1681  05F9                     l1130:
  1682  05F9  0833               	movf	___flmul@bexp,w
  1683  05FA  1D03               	btfss	3,2
  1684  05FB  2DFD               	goto	u681
  1685  05FC  2DFE               	goto	u680
  1686  05FD                     u681:
  1687  05FD  2E07               	goto	l1136
  1688  05FE                     u680:
  1689  05FE                     l1132:
  1690  05FE  3000               	movlw	0
  1691  05FF  00A3               	movwf	?___flmul+3
  1692  0600  3000               	movlw	0
  1693  0601  00A2               	movwf	?___flmul+2
  1694  0602  3000               	movlw	0
  1695  0603  00A1               	movwf	?___flmul+1
  1696  0604  3000               	movlw	0
  1697  0605  00A0               	movwf	?___flmul
  1698  0606  2FF5               	goto	l669
  1699  0607                     l1136:
  1700  0607  0820               	movf	___flmul@b,w
  1701  0608  00A8               	movwf	??___flmul
  1702  0609  0828               	movf	??___flmul,w
  1703  060A  00F0               	movwf	__Umul8_16@multiplicand
  1704  060B  0826               	movf	___flmul@a+2,w
  1705  060C  3183  23C1  3185   	fcall	__Umul8_16
  1706  060F  0871               	movf	?__Umul8_16+1,w
  1707  0610  0020               	movlb	0	; select bank0
  1708  0611  00B9               	movwf	___flmul@temp+1
  1709  0612  0870               	movf	?__Umul8_16,w
  1710  0613  00B8               	movwf	___flmul@temp
  1711  0614                     l1138:
  1712  0614  0838               	movf	___flmul@temp,w
  1713  0615  00A8               	movwf	??___flmul
  1714  0616  01A9               	clrf	??___flmul+1
  1715  0617  01AA               	clrf	??___flmul+2
  1716  0618  01AB               	clrf	??___flmul+3
  1717  0619  082B               	movf	??___flmul+3,w
  1718  061A  00B1               	movwf	___flmul@grs+3
  1719  061B  082A               	movf	??___flmul+2,w
  1720  061C  00B0               	movwf	___flmul@grs+2
  1721  061D  0829               	movf	??___flmul+1,w
  1722  061E  00AF               	movwf	___flmul@grs+1
  1723  061F  0828               	movf	??___flmul,w
  1724  0620  00AE               	movwf	___flmul@grs
  1725  0621                     l1140:
  1726  0621  0839               	movf	___flmul@temp+1,w
  1727  0622  00A8               	movwf	??___flmul
  1728  0623  01A9               	clrf	??___flmul+1
  1729  0624  01AA               	clrf	??___flmul+2
  1730  0625  01AB               	clrf	??___flmul+3
  1731  0626  082B               	movf	??___flmul+3,w
  1732  0627  00B7               	movwf	___flmul@prod+3
  1733  0628  082A               	movf	??___flmul+2,w
  1734  0629  00B6               	movwf	___flmul@prod+2
  1735  062A  0829               	movf	??___flmul+1,w
  1736  062B  00B5               	movwf	___flmul@prod+1
  1737  062C  0828               	movf	??___flmul,w
  1738  062D  00B4               	movwf	___flmul@prod
  1739  062E  0821               	movf	___flmul@b+1,w
  1740  062F  00A8               	movwf	??___flmul
  1741  0630  0828               	movf	??___flmul,w
  1742  0631  00F0               	movwf	__Umul8_16@multiplicand
  1743  0632  0825               	movf	___flmul@a+1,w
  1744  0633  3183  23C1  3185   	fcall	__Umul8_16
  1745  0636  0871               	movf	?__Umul8_16+1,w
  1746  0637  0020               	movlb	0	; select bank0
  1747  0638  00B9               	movwf	___flmul@temp+1
  1748  0639  0870               	movf	?__Umul8_16,w
  1749  063A  00B8               	movwf	___flmul@temp
  1750  063B                     l1142:
  1751  063B  0838               	movf	___flmul@temp,w
  1752  063C  00A8               	movwf	??___flmul
  1753  063D  01A9               	clrf	??___flmul+1
  1754  063E  01AA               	clrf	??___flmul+2
  1755  063F  01AB               	clrf	??___flmul+3
  1756  0640  0828               	movf	??___flmul,w
  1757  0641  07AE               	addwf	___flmul@grs,f
  1758  0642  0829               	movf	??___flmul+1,w
  1759  0643  3DAF               	addwfc	___flmul@grs+1,f
  1760  0644  082A               	movf	??___flmul+2,w
  1761  0645  3DB0               	addwfc	___flmul@grs+2,f
  1762  0646  082B               	movf	??___flmul+3,w
  1763  0647  3DB1               	addwfc	___flmul@grs+3,f
  1764  0648                     l1144:
  1765  0648  0839               	movf	___flmul@temp+1,w
  1766  0649  00A8               	movwf	??___flmul
  1767  064A  01A9               	clrf	??___flmul+1
  1768  064B  01AA               	clrf	??___flmul+2
  1769  064C  01AB               	clrf	??___flmul+3
  1770  064D  0828               	movf	??___flmul,w
  1771  064E  07B4               	addwf	___flmul@prod,f
  1772  064F  0829               	movf	??___flmul+1,w
  1773  0650  3DB5               	addwfc	___flmul@prod+1,f
  1774  0651  082A               	movf	??___flmul+2,w
  1775  0652  3DB6               	addwfc	___flmul@prod+2,f
  1776  0653  082B               	movf	??___flmul+3,w
  1777  0654  3DB7               	addwfc	___flmul@prod+3,f
  1778  0655  0822               	movf	___flmul@b+2,w
  1779  0656  00A8               	movwf	??___flmul
  1780  0657  0828               	movf	??___flmul,w
  1781  0658  00F0               	movwf	__Umul8_16@multiplicand
  1782  0659  0824               	movf	___flmul@a,w
  1783  065A  3183  23C1  3185   	fcall	__Umul8_16
  1784  065D  0871               	movf	?__Umul8_16+1,w
  1785  065E  0020               	movlb	0	; select bank0
  1786  065F  00B9               	movwf	___flmul@temp+1
  1787  0660  0870               	movf	?__Umul8_16,w
  1788  0661  00B8               	movwf	___flmul@temp
  1789  0662                     l1146:
  1790  0662  0838               	movf	___flmul@temp,w
  1791  0663  00A8               	movwf	??___flmul
  1792  0664  01A9               	clrf	??___flmul+1
  1793  0665  01AA               	clrf	??___flmul+2
  1794  0666  01AB               	clrf	??___flmul+3
  1795  0667  0828               	movf	??___flmul,w
  1796  0668  07AE               	addwf	___flmul@grs,f
  1797  0669  0829               	movf	??___flmul+1,w
  1798  066A  3DAF               	addwfc	___flmul@grs+1,f
  1799  066B  082A               	movf	??___flmul+2,w
  1800  066C  3DB0               	addwfc	___flmul@grs+2,f
  1801  066D  082B               	movf	??___flmul+3,w
  1802  066E  3DB1               	addwfc	___flmul@grs+3,f
  1803  066F                     l1148:
  1804  066F  0839               	movf	___flmul@temp+1,w
  1805  0670  00A8               	movwf	??___flmul
  1806  0671  01A9               	clrf	??___flmul+1
  1807  0672  01AA               	clrf	??___flmul+2
  1808  0673  01AB               	clrf	??___flmul+3
  1809  0674  0828               	movf	??___flmul,w
  1810  0675  07B4               	addwf	___flmul@prod,f
  1811  0676  0829               	movf	??___flmul+1,w
  1812  0677  3DB5               	addwfc	___flmul@prod+1,f
  1813  0678  082A               	movf	??___flmul+2,w
  1814  0679  3DB6               	addwfc	___flmul@prod+2,f
  1815  067A  082B               	movf	??___flmul+3,w
  1816  067B  3DB7               	addwfc	___flmul@prod+3,f
  1817  067C                     l1150:
  1818  067C  3008               	movlw	8
  1819  067D                     u695:
  1820  067D  35AE               	lslf	___flmul@grs,f
  1821  067E  0DAF               	rlf	___flmul@grs+1,f
  1822  067F  0DB0               	rlf	___flmul@grs+2,f
  1823  0680  0DB1               	rlf	___flmul@grs+3,f
  1824  0681  0B89               	decfsz	9,f
  1825  0682  2E7D               	goto	u695
  1826  0683                     l1152:
  1827  0683  0821               	movf	___flmul@b+1,w
  1828  0684  00A8               	movwf	??___flmul
  1829  0685  0828               	movf	??___flmul,w
  1830  0686  00F0               	movwf	__Umul8_16@multiplicand
  1831  0687  0824               	movf	___flmul@a,w
  1832  0688  3183  23C1  3185   	fcall	__Umul8_16
  1833  068B  0871               	movf	?__Umul8_16+1,w
  1834  068C  0020               	movlb	0	; select bank0
  1835  068D  00B9               	movwf	___flmul@temp+1
  1836  068E  0870               	movf	?__Umul8_16,w
  1837  068F  00B8               	movwf	___flmul@temp
  1838  0690                     l1154:
  1839  0690  0838               	movf	___flmul@temp,w
  1840  0691  07AE               	addwf	___flmul@grs,f
  1841  0692  0839               	movf	___flmul@temp+1,w
  1842  0693  3DAF               	addwfc	___flmul@grs+1,f
  1843  0694  3000               	movlw	0
  1844  0695  3DB0               	addwfc	___flmul@grs+2,f
  1845  0696  3DB1               	addwfc	___flmul@grs+3,f
  1846  0697                     l1156:
  1847  0697  0820               	movf	___flmul@b,w
  1848  0698  00A8               	movwf	??___flmul
  1849  0699  0828               	movf	??___flmul,w
  1850  069A  00F0               	movwf	__Umul8_16@multiplicand
  1851  069B  0825               	movf	___flmul@a+1,w
  1852  069C  3183  23C1  3185   	fcall	__Umul8_16
  1853  069F  0871               	movf	?__Umul8_16+1,w
  1854  06A0  0020               	movlb	0	; select bank0
  1855  06A1  00B9               	movwf	___flmul@temp+1
  1856  06A2  0870               	movf	?__Umul8_16,w
  1857  06A3  00B8               	movwf	___flmul@temp
  1858  06A4                     l1158:
  1859  06A4  0838               	movf	___flmul@temp,w
  1860  06A5  07AE               	addwf	___flmul@grs,f
  1861  06A6  0839               	movf	___flmul@temp+1,w
  1862  06A7  3DAF               	addwfc	___flmul@grs+1,f
  1863  06A8  3000               	movlw	0
  1864  06A9  3DB0               	addwfc	___flmul@grs+2,f
  1865  06AA  3DB1               	addwfc	___flmul@grs+3,f
  1866  06AB                     l1160:
  1867  06AB  3008               	movlw	8
  1868  06AC                     u705:
  1869  06AC  35AE               	lslf	___flmul@grs,f
  1870  06AD  0DAF               	rlf	___flmul@grs+1,f
  1871  06AE  0DB0               	rlf	___flmul@grs+2,f
  1872  06AF  0DB1               	rlf	___flmul@grs+3,f
  1873  06B0  0B89               	decfsz	9,f
  1874  06B1  2EAC               	goto	u705
  1875  06B2  0820               	movf	___flmul@b,w
  1876  06B3  00A8               	movwf	??___flmul
  1877  06B4  0828               	movf	??___flmul,w
  1878  06B5  00F0               	movwf	__Umul8_16@multiplicand
  1879  06B6  0824               	movf	___flmul@a,w
  1880  06B7  3183  23C1  3185   	fcall	__Umul8_16
  1881  06BA  0871               	movf	?__Umul8_16+1,w
  1882  06BB  0020               	movlb	0	; select bank0
  1883  06BC  00B9               	movwf	___flmul@temp+1
  1884  06BD  0870               	movf	?__Umul8_16,w
  1885  06BE  00B8               	movwf	___flmul@temp
  1886  06BF                     l1162:
  1887  06BF  0838               	movf	___flmul@temp,w
  1888  06C0  07AE               	addwf	___flmul@grs,f
  1889  06C1  0839               	movf	___flmul@temp+1,w
  1890  06C2  3DAF               	addwfc	___flmul@grs+1,f
  1891  06C3  3000               	movlw	0
  1892  06C4  3DB0               	addwfc	___flmul@grs+2,f
  1893  06C5  3DB1               	addwfc	___flmul@grs+3,f
  1894  06C6                     l1164:
  1895  06C6  0821               	movf	___flmul@b+1,w
  1896  06C7  00A8               	movwf	??___flmul
  1897  06C8  0828               	movf	??___flmul,w
  1898  06C9  00F0               	movwf	__Umul8_16@multiplicand
  1899  06CA  0826               	movf	___flmul@a+2,w
  1900  06CB  3183  23C1  3185   	fcall	__Umul8_16
  1901  06CE  0871               	movf	?__Umul8_16+1,w
  1902  06CF  0020               	movlb	0	; select bank0
  1903  06D0  00B9               	movwf	___flmul@temp+1
  1904  06D1  0870               	movf	?__Umul8_16,w
  1905  06D2  00B8               	movwf	___flmul@temp
  1906  06D3  0838               	movf	___flmul@temp,w
  1907  06D4  07B4               	addwf	___flmul@prod,f
  1908  06D5  0839               	movf	___flmul@temp+1,w
  1909  06D6  3DB5               	addwfc	___flmul@prod+1,f
  1910  06D7  3000               	movlw	0
  1911  06D8  3DB6               	addwfc	___flmul@prod+2,f
  1912  06D9  3DB7               	addwfc	___flmul@prod+3,f
  1913  06DA                     l1166:
  1914  06DA  0822               	movf	___flmul@b+2,w
  1915  06DB  00A8               	movwf	??___flmul
  1916  06DC  0828               	movf	??___flmul,w
  1917  06DD  00F0               	movwf	__Umul8_16@multiplicand
  1918  06DE  0825               	movf	___flmul@a+1,w
  1919  06DF  3183  23C1  3185   	fcall	__Umul8_16
  1920  06E2  0871               	movf	?__Umul8_16+1,w
  1921  06E3  0020               	movlb	0	; select bank0
  1922  06E4  00B9               	movwf	___flmul@temp+1
  1923  06E5  0870               	movf	?__Umul8_16,w
  1924  06E6  00B8               	movwf	___flmul@temp
  1925  06E7                     l1168:
  1926  06E7  0838               	movf	___flmul@temp,w
  1927  06E8  07B4               	addwf	___flmul@prod,f
  1928  06E9  0839               	movf	___flmul@temp+1,w
  1929  06EA  3DB5               	addwfc	___flmul@prod+1,f
  1930  06EB  3000               	movlw	0
  1931  06EC  3DB6               	addwfc	___flmul@prod+2,f
  1932  06ED  3DB7               	addwfc	___flmul@prod+3,f
  1933  06EE  0822               	movf	___flmul@b+2,w
  1934  06EF  00A8               	movwf	??___flmul
  1935  06F0  0828               	movf	??___flmul,w
  1936  06F1  00F0               	movwf	__Umul8_16@multiplicand
  1937  06F2  0826               	movf	___flmul@a+2,w
  1938  06F3  3183  23C1  3185   	fcall	__Umul8_16
  1939  06F6  0871               	movf	?__Umul8_16+1,w
  1940  06F7  0020               	movlb	0	; select bank0
  1941  06F8  00B9               	movwf	___flmul@temp+1
  1942  06F9  0870               	movf	?__Umul8_16,w
  1943  06FA  00B8               	movwf	___flmul@temp
  1944  06FB                     l1170:
  1945  06FB  0838               	movf	___flmul@temp,w
  1946  06FC  00A8               	movwf	??___flmul
  1947  06FD  0839               	movf	___flmul@temp+1,w
  1948  06FE  00A9               	movwf	??___flmul+1
  1949  06FF  01AA               	clrf	??___flmul+2
  1950  0700  01AB               	clrf	??___flmul+3
  1951  0701  3008               	movlw	8
  1952  0702                     u715:
  1953  0702  35A8               	lslf	??___flmul,f
  1954  0703  0DA9               	rlf	??___flmul+1,f
  1955  0704  0DAA               	rlf	??___flmul+2,f
  1956  0705  0DAB               	rlf	??___flmul+3,f
  1957  0706                     u710:
  1958  0706  0B89               	decfsz	9,f
  1959  0707  2F02               	goto	u715
  1960  0708  0828               	movf	??___flmul,w
  1961  0709  07B4               	addwf	___flmul@prod,f
  1962  070A  0829               	movf	??___flmul+1,w
  1963  070B  3DB5               	addwfc	___flmul@prod+1,f
  1964  070C  082A               	movf	??___flmul+2,w
  1965  070D  3DB6               	addwfc	___flmul@prod+2,f
  1966  070E  082B               	movf	??___flmul+3,w
  1967  070F  3DB7               	addwfc	___flmul@prod+3,f
  1968  0710                     l1172:
  1969  0710  082E               	movf	___flmul@grs,w
  1970  0711  00A8               	movwf	??___flmul
  1971  0712  082F               	movf	___flmul@grs+1,w
  1972  0713  00A9               	movwf	??___flmul+1
  1973  0714  0830               	movf	___flmul@grs+2,w
  1974  0715  00AA               	movwf	??___flmul+2
  1975  0716  0831               	movf	___flmul@grs+3,w
  1976  0717  00AB               	movwf	??___flmul+3
  1977  0718  3018               	movlw	24
  1978  0719                     u725:
  1979  0719  36AB               	lsrf	??___flmul+3,f
  1980  071A  0CAA               	rrf	??___flmul+2,f
  1981  071B  0CA9               	rrf	??___flmul+1,f
  1982  071C  0CA8               	rrf	??___flmul,f
  1983  071D                     u720:
  1984  071D  0B89               	decfsz	9,f
  1985  071E  2F19               	goto	u725
  1986  071F  0828               	movf	??___flmul,w
  1987  0720  07B4               	addwf	___flmul@prod,f
  1988  0721  0829               	movf	??___flmul+1,w
  1989  0722  3DB5               	addwfc	___flmul@prod+1,f
  1990  0723  082A               	movf	??___flmul+2,w
  1991  0724  3DB6               	addwfc	___flmul@prod+2,f
  1992  0725  082B               	movf	??___flmul+3,w
  1993  0726  3DB7               	addwfc	___flmul@prod+3,f
  1994  0727                     l1174:
  1995  0727  3008               	movlw	8
  1996  0728                     u735:
  1997  0728  35AE               	lslf	___flmul@grs,f
  1998  0729  0DAF               	rlf	___flmul@grs+1,f
  1999  072A  0DB0               	rlf	___flmul@grs+2,f
  2000  072B  0DB1               	rlf	___flmul@grs+3,f
  2001  072C  0B89               	decfsz	9,f
  2002  072D  2F28               	goto	u735
  2003  072E                     l1176:
  2004  072E  0833               	movf	___flmul@bexp,w
  2005  072F  0732               	addwf	___flmul@aexp,w
  2006  0730  00A8               	movwf	??___flmul
  2007  0731  01A9               	clrf	??___flmul+1
  2008  0732  0DA9               	rlf	??___flmul+1,f
  2009  0733  0828               	movf	??___flmul,w
  2010  0734  3E82               	addlw	130
  2011  0735  00B8               	movwf	___flmul@temp
  2012  0736  30FF               	movlw	255
  2013  0737  3D29               	addwfc	??___flmul+1,w
  2014  0738  00B9               	movwf	___flmul@temp+1
  2015  0739  2F51               	goto	l1188
  2016  073A                     l1178:
  2017  073A  3001               	movlw	1
  2018  073B                     u745:
  2019  073B  35B4               	lslf	___flmul@prod,f
  2020  073C  0DB5               	rlf	___flmul@prod+1,f
  2021  073D  0DB6               	rlf	___flmul@prod+2,f
  2022  073E  0DB7               	rlf	___flmul@prod+3,f
  2023  073F  0B89               	decfsz	9,f
  2024  0740  2F3B               	goto	u745
  2025  0741                     l1180:
  2026  0741  1FB1               	btfss	___flmul@grs+3,7
  2027  0742  2F44               	goto	u751
  2028  0743  2F45               	goto	u750
  2029  0744                     u751:
  2030  0744  2F46               	goto	l1184
  2031  0745                     u750:
  2032  0745                     l1182:
  2033  0745  1434               	bsf	___flmul@prod,0
  2034  0746                     l1184:
  2035  0746  3001               	movlw	1
  2036  0747                     u765:
  2037  0747  35AE               	lslf	___flmul@grs,f
  2038  0748  0DAF               	rlf	___flmul@grs+1,f
  2039  0749  0DB0               	rlf	___flmul@grs+2,f
  2040  074A  0DB1               	rlf	___flmul@grs+3,f
  2041  074B  0B89               	decfsz	9,f
  2042  074C  2F47               	goto	u765
  2043  074D                     l1186:
  2044  074D  30FF               	movlw	255
  2045  074E  07B8               	addwf	___flmul@temp,f
  2046  074F  30FF               	movlw	255
  2047  0750  3DB9               	addwfc	___flmul@temp+1,f
  2048  0751                     l1188:
  2049  0751  1FB6               	btfss	___flmul@prod+2,7
  2050  0752  2F54               	goto	u771
  2051  0753  2F55               	goto	u770
  2052  0754                     u771:
  2053  0754  2F3A               	goto	l1178
  2054  0755                     u770:
  2055  0755                     l1190:
  2056  0755  01B2               	clrf	___flmul@aexp
  2057  0756                     l1192:
  2058  0756  1FB1               	btfss	___flmul@grs+3,7
  2059  0757  2F59               	goto	u781
  2060  0758  2F5A               	goto	u780
  2061  0759                     u781:
  2062  0759  2F76               	goto	l1200
  2063  075A                     u780:
  2064  075A                     l1194:
  2065  075A  30FF               	movlw	255
  2066  075B  052E               	andwf	___flmul@grs,w
  2067  075C  00A8               	movwf	??___flmul
  2068  075D  30FF               	movlw	255
  2069  075E  052F               	andwf	___flmul@grs+1,w
  2070  075F  00A9               	movwf	??___flmul+1
  2071  0760  30FF               	movlw	255
  2072  0761  0530               	andwf	___flmul@grs+2,w
  2073  0762  00AA               	movwf	??___flmul+2
  2074  0763  307F               	movlw	127
  2075  0764  0531               	andwf	___flmul@grs+3,w
  2076  0765  00AB               	movwf	??___flmul+3
  2077  0766  082B               	movf	??___flmul+3,w
  2078  0767  042A               	iorwf	??___flmul+2,w
  2079  0768  0429               	iorwf	??___flmul+1,w
  2080  0769  0428               	iorwf	??___flmul,w
  2081  076A  1903               	skipnz
  2082  076B  2F6D               	goto	u791
  2083  076C  2F6E               	goto	u790
  2084  076D                     u791:
  2085  076D  2F71               	goto	l675
  2086  076E                     u790:
  2087  076E                     l1196:
  2088  076E  01B2               	clrf	___flmul@aexp
  2089  076F  0AB2               	incf	___flmul@aexp,f
  2090  0770  2F76               	goto	l1200
  2091  0771                     l675:
  2092  0771  1C34               	btfss	___flmul@prod,0
  2093  0772  2F74               	goto	u801
  2094  0773  2F75               	goto	u800
  2095  0774                     u801:
  2096  0774  2F76               	goto	l1200
  2097  0775                     u800:
  2098  0775  2F6E               	goto	l1196
  2099  0776                     l1200:
  2100  0776  0832               	movf	___flmul@aexp,w
  2101  0777  1903               	btfsc	3,2
  2102  0778  2F7A               	goto	u811
  2103  0779  2F7B               	goto	u810
  2104  077A                     u811:
  2105  077A  2FA3               	goto	l1210
  2106  077B                     u810:
  2107  077B                     l1202:
  2108  077B  3001               	movlw	1
  2109  077C  07B4               	addwf	___flmul@prod,f
  2110  077D  3000               	movlw	0
  2111  077E  3DB5               	addwfc	___flmul@prod+1,f
  2112  077F  3000               	movlw	0
  2113  0780  3DB6               	addwfc	___flmul@prod+2,f
  2114  0781  3000               	movlw	0
  2115  0782  3DB7               	addwfc	___flmul@prod+3,f
  2116  0783                     l1204:
  2117  0783  1C37               	btfss	___flmul@prod+3,0
  2118  0784  2F86               	goto	u821
  2119  0785  2F87               	goto	u820
  2120  0786                     u821:
  2121  0786  2FA3               	goto	l1210
  2122  0787                     u820:
  2123  0787                     l1206:
  2124  0787  0834               	movf	___flmul@prod,w
  2125  0788  00A8               	movwf	??___flmul
  2126  0789  0835               	movf	___flmul@prod+1,w
  2127  078A  00A9               	movwf	??___flmul+1
  2128  078B  0836               	movf	___flmul@prod+2,w
  2129  078C  00AA               	movwf	??___flmul+2
  2130  078D  0837               	movf	___flmul@prod+3,w
  2131  078E  00AB               	movwf	??___flmul+3
  2132  078F  3001               	movlw	1
  2133  0790  00AC               	movwf	??___flmul+4
  2134  0791                     u835:
  2135  0791  37AB               	asrf	??___flmul+3,f
  2136  0792  0CAA               	rrf	??___flmul+2,f
  2137  0793  0CA9               	rrf	??___flmul+1,f
  2138  0794  0CA8               	rrf	??___flmul,f
  2139  0795                     u830:
  2140  0795  0BAC               	decfsz	??___flmul+4,f
  2141  0796  2F91               	goto	u835
  2142  0797  082B               	movf	??___flmul+3,w
  2143  0798  00B7               	movwf	___flmul@prod+3
  2144  0799  082A               	movf	??___flmul+2,w
  2145  079A  00B6               	movwf	___flmul@prod+2
  2146  079B  0829               	movf	??___flmul+1,w
  2147  079C  00B5               	movwf	___flmul@prod+1
  2148  079D  0828               	movf	??___flmul,w
  2149  079E  00B4               	movwf	___flmul@prod
  2150  079F                     l1208:
  2151  079F  3001               	movlw	1
  2152  07A0  07B8               	addwf	___flmul@temp,f
  2153  07A1  3000               	movlw	0
  2154  07A2  3DB9               	addwfc	___flmul@temp+1,f
  2155  07A3                     l1210:
  2156  07A3  0839               	movf	___flmul@temp+1,w
  2157  07A4  3A80               	xorlw	128
  2158  07A5  00A8               	movwf	??___flmul
  2159  07A6  3080               	movlw	128
  2160  07A7  0228               	subwf	??___flmul,w
  2161  07A8  1D03               	skipz
  2162  07A9  2FAC               	goto	u845
  2163  07AA  30FF               	movlw	255
  2164  07AB  0238               	subwf	___flmul@temp,w
  2165  07AC                     u845:
  2166  07AC  1C03               	skipc
  2167  07AD  2FAF               	goto	u841
  2168  07AE  2FB0               	goto	u840
  2169  07AF                     u841:
  2170  07AF  2FBA               	goto	l1214
  2171  07B0                     u840:
  2172  07B0                     l1212:
  2173  07B0  307F               	movlw	127
  2174  07B1  0020               	movlb	0	; select bank0
  2175  07B2  00B7               	movwf	___flmul@prod+3
  2176  07B3  3080               	movlw	128
  2177  07B4  00B6               	movwf	___flmul@prod+2
  2178  07B5  3000               	movlw	0
  2179  07B6  00B5               	movwf	___flmul@prod+1
  2180  07B7  3000               	movlw	0
  2181  07B8  00B4               	movwf	___flmul@prod
  2182  07B9  2FE9               	goto	l681
  2183  07BA                     l1214:
  2184  07BA  0020               	movlb	0	; select bank0
  2185  07BB  0839               	movf	___flmul@temp+1,w
  2186  07BC  3A80               	xorlw	128
  2187  07BD  00A8               	movwf	??___flmul
  2188  07BE  3080               	movlw	128
  2189  07BF  0228               	subwf	??___flmul,w
  2190  07C0  1D03               	skipz
  2191  07C1  2FC4               	goto	u855
  2192  07C2  3001               	movlw	1
  2193  07C3  0238               	subwf	___flmul@temp,w
  2194  07C4                     u855:
  2195  07C4  1803               	skipnc
  2196  07C5  2FC7               	goto	u851
  2197  07C6  2FC8               	goto	u850
  2198  07C7                     u851:
  2199  07C7  2FD3               	goto	l1220
  2200  07C8                     u850:
  2201  07C8                     l1216:
  2202  07C8  3000               	movlw	0
  2203  07C9  0020               	movlb	0	; select bank0
  2204  07CA  00B7               	movwf	___flmul@prod+3
  2205  07CB  3000               	movlw	0
  2206  07CC  00B6               	movwf	___flmul@prod+2
  2207  07CD  3000               	movlw	0
  2208  07CE  00B5               	movwf	___flmul@prod+1
  2209  07CF  3000               	movlw	0
  2210  07D0  00B4               	movwf	___flmul@prod
  2211  07D1                     l1218:
  2212  07D1  01AD               	clrf	___flmul@sign
  2213  07D2  2FE9               	goto	l681
  2214  07D3                     l1220:
  2215  07D3  0020               	movlb	0	; select bank0
  2216  07D4  0838               	movf	___flmul@temp,w
  2217  07D5  00A8               	movwf	??___flmul
  2218  07D6  0828               	movf	??___flmul,w
  2219  07D7  00B3               	movwf	___flmul@bexp
  2220  07D8  30FF               	movlw	255
  2221  07D9  05B4               	andwf	___flmul@prod,f
  2222  07DA  30FF               	movlw	255
  2223  07DB  05B5               	andwf	___flmul@prod+1,f
  2224  07DC  307F               	movlw	127
  2225  07DD  05B6               	andwf	___flmul@prod+2,f
  2226  07DE  3000               	movlw	0
  2227  07DF  05B7               	andwf	___flmul@prod+3,f
  2228  07E0                     l1222:
  2229  07E0  1C33               	btfss	___flmul@bexp,0
  2230  07E1  2FE3               	goto	u861
  2231  07E2  2FE4               	goto	u860
  2232  07E3                     u861:
  2233  07E3  2FE5               	goto	l1226
  2234  07E4                     u860:
  2235  07E4                     l1224:
  2236  07E4  17B6               	bsf	___flmul@prod+2,7
  2237  07E5                     l1226:
  2238  07E5  3633               	lsrf	___flmul@bexp,w
  2239  07E6  00A8               	movwf	??___flmul
  2240  07E7  0828               	movf	??___flmul,w
  2241  07E8  00B7               	movwf	___flmul@prod+3
  2242  07E9                     l681:
  2243  07E9  082D               	movf	___flmul@sign,w
  2244  07EA  00A8               	movwf	??___flmul
  2245  07EB  0828               	movf	??___flmul,w
  2246  07EC  04B7               	iorwf	___flmul@prod+3,f
  2247  07ED                     l1228:
  2248  07ED  0837               	movf	___flmul@prod+3,w
  2249  07EE  00A3               	movwf	?___flmul+3
  2250  07EF  0836               	movf	___flmul@prod+2,w
  2251  07F0  00A2               	movwf	?___flmul+2
  2252  07F1  0835               	movf	___flmul@prod+1,w
  2253  07F2  00A1               	movwf	?___flmul+1
  2254  07F3  0834               	movf	___flmul@prod,w
  2255  07F4  00A0               	movwf	?___flmul
  2256  07F5                     l669:
  2257  07F5  0008               	return
  2258  07F6                     __end_of___flmul:
  2259                           
  2260                           	psect	text3
  2261  03C1                     __ptext3:	
  2262 ;; *************** function __Umul8_16 *****************
  2263 ;; Defined at:
  2264 ;;		line 4 in file "C:\Program Files\Microchip\xc8\v2.31\pic\sources\c99\common\Umul8_16.c"
  2265 ;; Parameters:    Size  Location     Type
  2266 ;;  multiplier      1    wreg     unsigned char 
  2267 ;;  multiplicand    1    0[COMMON] unsigned char 
  2268 ;; Auto vars:     Size  Location     Type
  2269 ;;  multiplier      1    8[COMMON] unsigned char 
  2270 ;;  word_mpld       2    6[COMMON] unsigned int 
  2271 ;;  product         2    4[COMMON] unsigned int 
  2272 ;; Return value:  Size  Location     Type
  2273 ;;                  2    0[COMMON] unsigned int 
  2274 ;; Registers used:
  2275 ;;		wreg, status,2, status,0
  2276 ;; Tracked objects:
  2277 ;;		On entry : 0/0
  2278 ;;		On exit  : 0/0
  2279 ;;		Unchanged: 0/0
  2280 ;; Data sizes:     COMMON   BANK0   BANK1   BANK2   BANK3   BANK4
  2281 ;;      Params:         2       0       0       0       0       0
  2282 ;;      Locals:         5       0       0       0       0       0
  2283 ;;      Temps:          2       0       0       0       0       0
  2284 ;;      Totals:         9       0       0       0       0       0
  2285 ;;Total ram usage:        9 bytes
  2286 ;; Hardware stack levels used:    1
  2287 ;; This function calls:
  2288 ;;		Nothing
  2289 ;; This function is called by:
  2290 ;;		___flmul
  2291 ;; This function uses a non-reentrant model
  2292 ;;
  2293                           
  2294                           
  2295                           ;psect for function __Umul8_16
  2296  03C1                     __Umul8_16:
  2297                           
  2298                           ;incstack = 0
  2299                           ; Regs used in __Umul8_16: [wreg+status,2+status,0]
  2300                           ;__Umul8_16@multiplier stored from wreg
  2301  03C1  00F8               	movwf	__Umul8_16@multiplier
  2302  03C2                     l1054:
  2303  03C2  01F4               	clrf	__Umul8_16@product
  2304  03C3  01F5               	clrf	__Umul8_16@product+1
  2305  03C4                     l1056:
  2306  03C4  0870               	movf	__Umul8_16@multiplicand,w
  2307  03C5  00F2               	movwf	??__Umul8_16
  2308  03C6  01F3               	clrf	??__Umul8_16+1
  2309  03C7  0872               	movf	??__Umul8_16,w
  2310  03C8  00F6               	movwf	__Umul8_16@word_mpld
  2311  03C9  0873               	movf	??__Umul8_16+1,w
  2312  03CA  00F7               	movwf	__Umul8_16@word_mpld+1
  2313  03CB                     l1058:
  2314  03CB  1C78               	btfss	__Umul8_16@multiplier,0
  2315  03CC  2BCE               	goto	u531
  2316  03CD  2BCF               	goto	u530
  2317  03CE                     u531:
  2318  03CE  2BD3               	goto	l688
  2319  03CF                     u530:
  2320  03CF                     l1060:
  2321  03CF  0876               	movf	__Umul8_16@word_mpld,w
  2322  03D0  07F4               	addwf	__Umul8_16@product,f
  2323  03D1  0877               	movf	__Umul8_16@word_mpld+1,w
  2324  03D2  3DF5               	addwfc	__Umul8_16@product+1,f
  2325  03D3                     l688:
  2326  03D3  3001               	movlw	1
  2327  03D4                     u545:
  2328  03D4  35F6               	lslf	__Umul8_16@word_mpld,f
  2329  03D5  0DF7               	rlf	__Umul8_16@word_mpld+1,f
  2330  03D6  0B89               	decfsz	9,f
  2331  03D7  2BD4               	goto	u545
  2332  03D8  1003               	clrc
  2333  03D9  0CF8               	rrf	__Umul8_16@multiplier,f
  2334  03DA                     l1062:
  2335  03DA  0878               	movf	__Umul8_16@multiplier,w
  2336  03DB  1D03               	btfss	3,2
  2337  03DC  2BDE               	goto	u551
  2338  03DD  2BDF               	goto	u550
  2339  03DE                     u551:
  2340  03DE  2BCB               	goto	l1058
  2341  03DF                     u550:
  2342  03DF                     l1064:
  2343  03DF  0875               	movf	__Umul8_16@product+1,w
  2344  03E0  00F1               	movwf	?__Umul8_16+1
  2345  03E1  0874               	movf	__Umul8_16@product,w
  2346  03E2  00F0               	movwf	?__Umul8_16
  2347  03E3                     l690:
  2348  03E3  0008               	return
  2349  03E4                     __end_of__Umul8_16:
  2350                           
  2351                           	psect	text4
  2352  0469                     __ptext4:	
  2353 ;; *************** function ___flge *****************
  2354 ;; Defined at:
  2355 ;;		line 4 in file "C:\Program Files\Microchip\xc8\v2.31\pic\sources\c99\common\flge.c"
  2356 ;; Parameters:    Size  Location     Type
  2357 ;;  ff1             4    0[COMMON] unsigned int 
  2358 ;;  ff2             4    4[COMMON] unsigned int 
  2359 ;; Auto vars:     Size  Location     Type
  2360 ;;		None
  2361 ;; Return value:  Size  Location     Type
  2362 ;;		None               void
  2363 ;; Registers used:
  2364 ;;		wreg, status,2, status,0
  2365 ;; Tracked objects:
  2366 ;;		On entry : 0/0
  2367 ;;		On exit  : 0/0
  2368 ;;		Unchanged: 0/0
  2369 ;; Data sizes:     COMMON   BANK0   BANK1   BANK2   BANK3   BANK4
  2370 ;;      Params:         8       0       0       0       0       0
  2371 ;;      Locals:         0       0       0       0       0       0
  2372 ;;      Temps:          4       0       0       0       0       0
  2373 ;;      Totals:        12       0       0       0       0       0
  2374 ;;Total ram usage:       12 bytes
  2375 ;; Hardware stack levels used:    1
  2376 ;; This function calls:
  2377 ;;		Nothing
  2378 ;; This function is called by:
  2379 ;;		_main
  2380 ;; This function uses a non-reentrant model
  2381 ;;
  2382                           
  2383                           
  2384                           ;psect for function ___flge
  2385  0469                     ___flge:
  2386  0469                     l1072:	
  2387                           ;incstack = 0
  2388                           ; Regs used in ___flge: [wreg+status,2+status,0]
  2389                           
  2390  0469  3000               	movlw	0
  2391  046A  0570               	andwf	___flge@ff1,w
  2392  046B  00F8               	movwf	??___flge
  2393  046C  3000               	movlw	0
  2394  046D  0571               	andwf	___flge@ff1+1,w
  2395  046E  00F9               	movwf	??___flge+1
  2396  046F  3080               	movlw	128
  2397  0470  0572               	andwf	___flge@ff1+2,w
  2398  0471  00FA               	movwf	??___flge+2
  2399  0472  307F               	movlw	127
  2400  0473  0573               	andwf	___flge@ff1+3,w
  2401  0474  00FB               	movwf	??___flge+3
  2402  0475  087B               	movf	??___flge+3,w
  2403  0476  047A               	iorwf	??___flge+2,w
  2404  0477  0479               	iorwf	??___flge+1,w
  2405  0478  0478               	iorwf	??___flge,w
  2406  0479  1D03               	skipz
  2407  047A  2C7C               	goto	u561
  2408  047B  2C7D               	goto	u560
  2409  047C                     u561:
  2410  047C  2C85               	goto	l450
  2411  047D                     u560:
  2412  047D                     l1074:
  2413  047D  3000               	movlw	0
  2414  047E  00F3               	movwf	___flge@ff1+3
  2415  047F  3000               	movlw	0
  2416  0480  00F2               	movwf	___flge@ff1+2
  2417  0481  3000               	movlw	0
  2418  0482  00F1               	movwf	___flge@ff1+1
  2419  0483  3000               	movlw	0
  2420  0484  00F0               	movwf	___flge@ff1
  2421  0485                     l450:
  2422  0485  3000               	movlw	0
  2423  0486  0574               	andwf	___flge@ff2,w
  2424  0487  00F8               	movwf	??___flge
  2425  0488  3000               	movlw	0
  2426  0489  0575               	andwf	___flge@ff2+1,w
  2427  048A  00F9               	movwf	??___flge+1
  2428  048B  3080               	movlw	128
  2429  048C  0576               	andwf	___flge@ff2+2,w
  2430  048D  00FA               	movwf	??___flge+2
  2431  048E  307F               	movlw	127
  2432  048F  0577               	andwf	___flge@ff2+3,w
  2433  0490  00FB               	movwf	??___flge+3
  2434  0491  087B               	movf	??___flge+3,w
  2435  0492  047A               	iorwf	??___flge+2,w
  2436  0493  0479               	iorwf	??___flge+1,w
  2437  0494  0478               	iorwf	??___flge,w
  2438  0495  1D03               	skipz
  2439  0496  2C98               	goto	u571
  2440  0497  2C99               	goto	u570
  2441  0498                     u571:
  2442  0498  2CA1               	goto	l1078
  2443  0499                     u570:
  2444  0499                     l1076:
  2445  0499  3000               	movlw	0
  2446  049A  00F7               	movwf	___flge@ff2+3
  2447  049B  3000               	movlw	0
  2448  049C  00F6               	movwf	___flge@ff2+2
  2449  049D  3000               	movlw	0
  2450  049E  00F5               	movwf	___flge@ff2+1
  2451  049F  3000               	movlw	0
  2452  04A0  00F4               	movwf	___flge@ff2
  2453  04A1                     l1078:
  2454  04A1  1FF3               	btfss	___flge@ff1+3,7
  2455  04A2  2CA4               	goto	u581
  2456  04A3  2CA5               	goto	u580
  2457  04A4                     u581:
  2458  04A4  2CBD               	goto	l1082
  2459  04A5                     u580:
  2460  04A5                     l1080:
  2461  04A5  3000               	movlw	0
  2462  04A6  00F8               	movwf	??___flge
  2463  04A7  3000               	movlw	0
  2464  04A8  00F9               	movwf	??___flge+1
  2465  04A9  3000               	movlw	0
  2466  04AA  00FA               	movwf	??___flge+2
  2467  04AB  3080               	movlw	128
  2468  04AC  00FB               	movwf	??___flge+3
  2469  04AD  0870               	movf	___flge@ff1,w
  2470  04AE  02F8               	subwf	??___flge,f
  2471  04AF  0871               	movf	___flge@ff1+1,w
  2472  04B0  3BF9               	subwfb	??___flge+1,f
  2473  04B1  0872               	movf	___flge@ff1+2,w
  2474  04B2  3BFA               	subwfb	??___flge+2,f
  2475  04B3  0873               	movf	___flge@ff1+3,w
  2476  04B4  3BFB               	subwfb	??___flge+3,f
  2477  04B5  087B               	movf	??___flge+3,w
  2478  04B6  00F3               	movwf	___flge@ff1+3
  2479  04B7  087A               	movf	??___flge+2,w
  2480  04B8  00F2               	movwf	___flge@ff1+2
  2481  04B9  0879               	movf	??___flge+1,w
  2482  04BA  00F1               	movwf	___flge@ff1+1
  2483  04BB  0878               	movf	??___flge,w
  2484  04BC  00F0               	movwf	___flge@ff1
  2485  04BD                     l1082:
  2486  04BD  1FF7               	btfss	___flge@ff2+3,7
  2487  04BE  2CC0               	goto	u591
  2488  04BF  2CC1               	goto	u590
  2489  04C0                     u591:
  2490  04C0  2CD9               	goto	l453
  2491  04C1                     u590:
  2492  04C1                     l1084:
  2493  04C1  3000               	movlw	0
  2494  04C2  00F8               	movwf	??___flge
  2495  04C3  3000               	movlw	0
  2496  04C4  00F9               	movwf	??___flge+1
  2497  04C5  3000               	movlw	0
  2498  04C6  00FA               	movwf	??___flge+2
  2499  04C7  3080               	movlw	128
  2500  04C8  00FB               	movwf	??___flge+3
  2501  04C9  0874               	movf	___flge@ff2,w
  2502  04CA  02F8               	subwf	??___flge,f
  2503  04CB  0875               	movf	___flge@ff2+1,w
  2504  04CC  3BF9               	subwfb	??___flge+1,f
  2505  04CD  0876               	movf	___flge@ff2+2,w
  2506  04CE  3BFA               	subwfb	??___flge+2,f
  2507  04CF  0877               	movf	___flge@ff2+3,w
  2508  04D0  3BFB               	subwfb	??___flge+3,f
  2509  04D1  087B               	movf	??___flge+3,w
  2510  04D2  00F7               	movwf	___flge@ff2+3
  2511  04D3  087A               	movf	??___flge+2,w
  2512  04D4  00F6               	movwf	___flge@ff2+2
  2513  04D5  0879               	movf	??___flge+1,w
  2514  04D6  00F5               	movwf	___flge@ff2+1
  2515  04D7  0878               	movf	??___flge,w
  2516  04D8  00F4               	movwf	___flge@ff2
  2517  04D9                     l453:
  2518  04D9  3080               	movlw	128
  2519  04DA  06F3               	xorwf	___flge@ff1+3,f
  2520  04DB  3080               	movlw	128
  2521  04DC  06F7               	xorwf	___flge@ff2+3,f
  2522  04DD  0877               	movf	___flge@ff2+3,w
  2523  04DE  0273               	subwf	___flge@ff1+3,w
  2524  04DF  1D03               	skipz
  2525  04E0  2CEB               	goto	u605
  2526  04E1  0876               	movf	___flge@ff2+2,w
  2527  04E2  0272               	subwf	___flge@ff1+2,w
  2528  04E3  1D03               	skipz
  2529  04E4  2CEB               	goto	u605
  2530  04E5  0875               	movf	___flge@ff2+1,w
  2531  04E6  0271               	subwf	___flge@ff1+1,w
  2532  04E7  1D03               	skipz
  2533  04E8  2CEB               	goto	u605
  2534  04E9  0874               	movf	___flge@ff2,w
  2535  04EA  0270               	subwf	___flge@ff1,w
  2536  04EB                     u605:
  2537  04EB  1803               	skipnc
  2538  04EC  2CEE               	goto	u601
  2539  04ED  2CEF               	goto	u600
  2540  04EE                     u601:
  2541  04EE  2CF1               	goto	l1088
  2542  04EF                     u600:
  2543  04EF                     l1086:
  2544  04EF  1003               	clrc
  2545  04F0  2CF2               	goto	l458
  2546  04F1                     l1088:
  2547  04F1  1403               	setc
  2548  04F2                     l458:
  2549  04F2  0008               	return
  2550  04F3                     __end_of___flge:
  2551                           
  2552                           	psect	text5
  2553  039F                     __ptext5:	
  2554 ;; *************** function _SYSTEM_Initialize *****************
  2555 ;; Defined at:
  2556 ;;		line 50 in file "mcc_generated_files/mcc.c"
  2557 ;; Parameters:    Size  Location     Type
  2558 ;;		None
  2559 ;; Auto vars:     Size  Location     Type
  2560 ;;		None
  2561 ;; Return value:  Size  Location     Type
  2562 ;;                  1    wreg      void 
  2563 ;; Registers used:
  2564 ;;		wreg, status,2, status,0, pclath, cstack
  2565 ;; Tracked objects:
  2566 ;;		On entry : 0/0
  2567 ;;		On exit  : 0/0
  2568 ;;		Unchanged: 0/0
  2569 ;; Data sizes:     COMMON   BANK0   BANK1   BANK2   BANK3   BANK4
  2570 ;;      Params:         0       0       0       0       0       0
  2571 ;;      Locals:         0       0       0       0       0       0
  2572 ;;      Temps:          0       0       0       0       0       0
  2573 ;;      Totals:         0       0       0       0       0       0
  2574 ;;Total ram usage:        0 bytes
  2575 ;; Hardware stack levels used:    1
  2576 ;; Hardware stack levels required when called:    1
  2577 ;; This function calls:
  2578 ;;		_ADC_Initialize
  2579 ;;		_OSCILLATOR_Initialize
  2580 ;;		_PIN_MANAGER_Initialize
  2581 ;;		_WDT_Initialize
  2582 ;; This function is called by:
  2583 ;;		_main
  2584 ;; This function uses a non-reentrant model
  2585 ;;
  2586                           
  2587                           
  2588                           ;psect for function _SYSTEM_Initialize
  2589  039F                     _SYSTEM_Initialize:
  2590  039F                     l1068:	
  2591                           ;incstack = 0
  2592                           ; Regs used in _SYSTEM_Initialize: [wreg+status,2+status,0+pclath+cstack]
  2593                           
  2594                           
  2595                           ;mcc_generated_files/mcc.c: 53:     PIN_MANAGER_Initialize();
  2596  039F  3183  23AC  3183   	fcall	_PIN_MANAGER_Initialize
  2597                           
  2598                           ;mcc_generated_files/mcc.c: 54:     OSCILLATOR_Initialize();
  2599  03A2  3183  2390  3183   	fcall	_OSCILLATOR_Initialize
  2600                           
  2601                           ;mcc_generated_files/mcc.c: 55:     WDT_Initialize();
  2602  03A5  3183  238C  3183   	fcall	_WDT_Initialize
  2603                           
  2604                           ;mcc_generated_files/mcc.c: 56:     ADC_Initialize();
  2605  03A8  3183  2397  3183   	fcall	_ADC_Initialize
  2606  03AB                     l47:
  2607  03AB  0008               	return
  2608  03AC                     __end_of_SYSTEM_Initialize:
  2609                           
  2610                           	psect	text6
  2611  038C                     __ptext6:	
  2612 ;; *************** function _WDT_Initialize *****************
  2613 ;; Defined at:
  2614 ;;		line 69 in file "mcc_generated_files/mcc.c"
  2615 ;; Parameters:    Size  Location     Type
  2616 ;;		None
  2617 ;; Auto vars:     Size  Location     Type
  2618 ;;		None
  2619 ;; Return value:  Size  Location     Type
  2620 ;;                  1    wreg      void 
  2621 ;; Registers used:
  2622 ;;		wreg
  2623 ;; Tracked objects:
  2624 ;;		On entry : 0/0
  2625 ;;		On exit  : 0/0
  2626 ;;		Unchanged: 0/0
  2627 ;; Data sizes:     COMMON   BANK0   BANK1   BANK2   BANK3   BANK4
  2628 ;;      Params:         0       0       0       0       0       0
  2629 ;;      Locals:         0       0       0       0       0       0
  2630 ;;      Temps:          0       0       0       0       0       0
  2631 ;;      Totals:         0       0       0       0       0       0
  2632 ;;Total ram usage:        0 bytes
  2633 ;; Hardware stack levels used:    1
  2634 ;; This function calls:
  2635 ;;		Nothing
  2636 ;; This function is called by:
  2637 ;;		_SYSTEM_Initialize
  2638 ;; This function uses a non-reentrant model
  2639 ;;
  2640                           
  2641                           
  2642                           ;psect for function _WDT_Initialize
  2643  038C                     _WDT_Initialize:
  2644  038C                     l1046:	
  2645                           ;incstack = 0
  2646                           ; Regs used in _WDT_Initialize: [wreg]
  2647                           
  2648                           
  2649                           ;mcc_generated_files/mcc.c: 72:     WDTCON = 0x16;
  2650  038C  3016               	movlw	22
  2651  038D  0021               	movlb	1	; select bank1
  2652  038E  0097               	movwf	23	;volatile
  2653  038F                     l53:
  2654  038F  0008               	return
  2655  0390                     __end_of_WDT_Initialize:
  2656                           
  2657                           	psect	text7
  2658  03AC                     __ptext7:	
  2659 ;; *************** function _PIN_MANAGER_Initialize *****************
  2660 ;; Defined at:
  2661 ;;		line 55 in file "mcc_generated_files/pin_manager.c"
  2662 ;; Parameters:    Size  Location     Type
  2663 ;;		None
  2664 ;; Auto vars:     Size  Location     Type
  2665 ;;		None
  2666 ;; Return value:  Size  Location     Type
  2667 ;;                  1    wreg      void 
  2668 ;; Registers used:
  2669 ;;		wreg, status,2
  2670 ;; Tracked objects:
  2671 ;;		On entry : 0/0
  2672 ;;		On exit  : 0/0
  2673 ;;		Unchanged: 0/0
  2674 ;; Data sizes:     COMMON   BANK0   BANK1   BANK2   BANK3   BANK4
  2675 ;;      Params:         0       0       0       0       0       0
  2676 ;;      Locals:         0       0       0       0       0       0
  2677 ;;      Temps:          0       0       0       0       0       0
  2678 ;;      Totals:         0       0       0       0       0       0
  2679 ;;Total ram usage:        0 bytes
  2680 ;; Hardware stack levels used:    1
  2681 ;; This function calls:
  2682 ;;		Nothing
  2683 ;; This function is called by:
  2684 ;;		_SYSTEM_Initialize
  2685 ;; This function uses a non-reentrant model
  2686 ;;
  2687                           
  2688                           
  2689                           ;psect for function _PIN_MANAGER_Initialize
  2690  03AC                     _PIN_MANAGER_Initialize:
  2691  03AC                     l1024:	
  2692                           ;incstack = 0
  2693                           ; Regs used in _PIN_MANAGER_Initialize: [wreg+status,2]
  2694                           
  2695                           
  2696                           ;mcc_generated_files/pin_manager.c: 60:     LATA = 0x00;
  2697  03AC  0022               	movlb	2	; select bank2
  2698  03AD  018C               	clrf	12	;volatile
  2699                           
  2700                           ;mcc_generated_files/pin_manager.c: 61:     LATB = 0x00;
  2701  03AE  018D               	clrf	13	;volatile
  2702  03AF                     l1026:
  2703                           
  2704                           ;mcc_generated_files/pin_manager.c: 66:     TRISA = 0xFF;
  2705  03AF  30FF               	movlw	255
  2706  03B0  0021               	movlb	1	; select bank1
  2707  03B1  008C               	movwf	12	;volatile
  2708  03B2                     l1028:
  2709                           
  2710                           ;mcc_generated_files/pin_manager.c: 67:     TRISB = 0x00;
  2711  03B2  018D               	clrf	13	;volatile
  2712                           
  2713                           ;mcc_generated_files/pin_manager.c: 72:     ANSELB = 0xFE;
  2714  03B3  30FE               	movlw	254
  2715  03B4  0023               	movlb	3	; select bank3
  2716  03B5  008D               	movwf	13	;volatile
  2717                           
  2718                           ;mcc_generated_files/pin_manager.c: 73:     ANSELA = 0x1B;
  2719  03B6  301B               	movlw	27
  2720  03B7  008C               	movwf	12	;volatile
  2721  03B8                     l1030:
  2722                           
  2723                           ;mcc_generated_files/pin_manager.c: 78:     WPUB = 0x00;
  2724  03B8  0024               	movlb	4	; select bank4
  2725  03B9  018D               	clrf	13	;volatile
  2726  03BA                     l1032:
  2727                           
  2728                           ;mcc_generated_files/pin_manager.c: 79:     WPUA = 0x00;
  2729  03BA  018C               	clrf	12	;volatile
  2730  03BB                     l1034:
  2731                           
  2732                           ;mcc_generated_files/pin_manager.c: 80:     OPTION_REGbits.nWPUEN = 1;
  2733  03BB  0021               	movlb	1	; select bank1
  2734  03BC  1795               	bsf	21,7	;volatile
  2735  03BD                     l1036:
  2736                           
  2737                           ;mcc_generated_files/pin_manager.c: 86:     APFCON0 = 0x00;
  2738  03BD  0022               	movlb	2	; select bank2
  2739  03BE  019D               	clrf	29	;volatile
  2740  03BF                     l1038:
  2741                           
  2742                           ;mcc_generated_files/pin_manager.c: 87:     APFCON1 = 0x00;
  2743  03BF  019E               	clrf	30	;volatile
  2744  03C0                     l25:
  2745  03C0  0008               	return
  2746  03C1                     __end_of_PIN_MANAGER_Initialize:
  2747                           
  2748                           	psect	text8
  2749  0390                     __ptext8:	
  2750 ;; *************** function _OSCILLATOR_Initialize *****************
  2751 ;; Defined at:
  2752 ;;		line 59 in file "mcc_generated_files/mcc.c"
  2753 ;; Parameters:    Size  Location     Type
  2754 ;;		None
  2755 ;; Auto vars:     Size  Location     Type
  2756 ;;		None
  2757 ;; Return value:  Size  Location     Type
  2758 ;;                  1    wreg      void 
  2759 ;; Registers used:
  2760 ;;		wreg, status,2
  2761 ;; Tracked objects:
  2762 ;;		On entry : 0/0
  2763 ;;		On exit  : 0/0
  2764 ;;		Unchanged: 0/0
  2765 ;; Data sizes:     COMMON   BANK0   BANK1   BANK2   BANK3   BANK4
  2766 ;;      Params:         0       0       0       0       0       0
  2767 ;;      Locals:         0       0       0       0       0       0
  2768 ;;      Temps:          0       0       0       0       0       0
  2769 ;;      Totals:         0       0       0       0       0       0
  2770 ;;Total ram usage:        0 bytes
  2771 ;; Hardware stack levels used:    1
  2772 ;; This function calls:
  2773 ;;		Nothing
  2774 ;; This function is called by:
  2775 ;;		_SYSTEM_Initialize
  2776 ;; This function uses a non-reentrant model
  2777 ;;
  2778                           
  2779                           
  2780                           ;psect for function _OSCILLATOR_Initialize
  2781  0390                     _OSCILLATOR_Initialize:
  2782  0390                     l1040:	
  2783                           ;incstack = 0
  2784                           ; Regs used in _OSCILLATOR_Initialize: [wreg+status,2]
  2785                           
  2786                           
  2787                           ;mcc_generated_files/mcc.c: 62:     OSCCON = 0x6A;
  2788  0390  306A               	movlw	106
  2789  0391  0021               	movlb	1	; select bank1
  2790  0392  0099               	movwf	25	;volatile
  2791  0393                     l1042:
  2792                           
  2793                           ;mcc_generated_files/mcc.c: 64:     OSCTUNE = 0x00;
  2794  0393  0198               	clrf	24	;volatile
  2795  0394                     l1044:
  2796                           
  2797                           ;mcc_generated_files/mcc.c: 66:     BORCON = 0x00;
  2798  0394  0022               	movlb	2	; select bank2
  2799  0395  0196               	clrf	22	;volatile
  2800  0396                     l50:
  2801  0396  0008               	return
  2802  0397                     __end_of_OSCILLATOR_Initialize:
  2803                           
  2804                           	psect	text9
  2805  0397                     __ptext9:	
  2806 ;; *************** function _ADC_Initialize *****************
  2807 ;; Defined at:
  2808 ;;		line 67 in file "mcc_generated_files/adc.c"
  2809 ;; Parameters:    Size  Location     Type
  2810 ;;		None
  2811 ;; Auto vars:     Size  Location     Type
  2812 ;;		None
  2813 ;; Return value:  Size  Location     Type
  2814 ;;                  1    wreg      void 
  2815 ;; Registers used:
  2816 ;;		wreg, status,2
  2817 ;; Tracked objects:
  2818 ;;		On entry : 0/0
  2819 ;;		On exit  : 0/0
  2820 ;;		Unchanged: 0/0
  2821 ;; Data sizes:     COMMON   BANK0   BANK1   BANK2   BANK3   BANK4
  2822 ;;      Params:         0       0       0       0       0       0
  2823 ;;      Locals:         0       0       0       0       0       0
  2824 ;;      Temps:          0       0       0       0       0       0
  2825 ;;      Totals:         0       0       0       0       0       0
  2826 ;;Total ram usage:        0 bytes
  2827 ;; Hardware stack levels used:    1
  2828 ;; This function calls:
  2829 ;;		Nothing
  2830 ;; This function is called by:
  2831 ;;		_SYSTEM_Initialize
  2832 ;; This function uses a non-reentrant model
  2833 ;;
  2834                           
  2835                           
  2836                           ;psect for function _ADC_Initialize
  2837  0397                     _ADC_Initialize:
  2838  0397                     l1048:	
  2839                           ;incstack = 0
  2840                           ; Regs used in _ADC_Initialize: [wreg+status,2]
  2841                           
  2842                           
  2843                           ;mcc_generated_files/adc.c: 72:     ADCON1 = 0xC0;
  2844  0397  30C0               	movlw	192
  2845  0398  0021               	movlb	1	; select bank1
  2846  0399  009E               	movwf	30	;volatile
  2847  039A                     l1050:
  2848                           
  2849                           ;mcc_generated_files/adc.c: 75:     ADRESL = 0x00;
  2850  039A  019B               	clrf	27	;volatile
  2851  039B                     l1052:
  2852                           
  2853                           ;mcc_generated_files/adc.c: 78:     ADRESH = 0x00;
  2854  039B  019C               	clrf	28	;volatile
  2855                           
  2856                           ;mcc_generated_files/adc.c: 81:     ADCON0 = 0x01;
  2857  039C  3001               	movlw	1
  2858  039D  009D               	movwf	29	;volatile
  2859  039E                     l70:
  2860  039E  0008               	return
  2861  039F                     __end_of_ADC_Initialize:
  2862                           
  2863                           	psect	text10
  2864  0389                     __ptext10:	
  2865 ;; *************** function _ADC_StartConversion *****************
  2866 ;; Defined at:
  2867 ;;		line 93 in file "mcc_generated_files/adc.c"
  2868 ;; Parameters:    Size  Location     Type
  2869 ;;		None
  2870 ;; Auto vars:     Size  Location     Type
  2871 ;;		None
  2872 ;; Return value:  Size  Location     Type
  2873 ;;                  1    wreg      void 
  2874 ;; Registers used:
  2875 ;;		None
  2876 ;; Tracked objects:
  2877 ;;		On entry : 0/0
  2878 ;;		On exit  : 0/0
  2879 ;;		Unchanged: 0/0
  2880 ;; Data sizes:     COMMON   BANK0   BANK1   BANK2   BANK3   BANK4
  2881 ;;      Params:         0       0       0       0       0       0
  2882 ;;      Locals:         0       0       0       0       0       0
  2883 ;;      Temps:          0       0       0       0       0       0
  2884 ;;      Totals:         0       0       0       0       0       0
  2885 ;;Total ram usage:        0 bytes
  2886 ;; Hardware stack levels used:    1
  2887 ;; This function calls:
  2888 ;;		Nothing
  2889 ;; This function is called by:
  2890 ;;		_main
  2891 ;; This function uses a non-reentrant model
  2892 ;;
  2893                           
  2894                           
  2895                           ;psect for function _ADC_StartConversion
  2896  0389                     _ADC_StartConversion:
  2897  0389                     l1070:	
  2898                           ;incstack = 0
  2899                           ; Regs used in _ADC_StartConversion: []
  2900                           
  2901                           
  2902                           ;mcc_generated_files/adc.c: 96:     ADCON0bits.GO_nDONE = 1;
  2903  0389  0021               	movlb	1	; select bank1
  2904  038A  149D               	bsf	29,1	;volatile
  2905  038B                     l76:
  2906  038B  0008               	return
  2907  038C                     __end_of_ADC_StartConversion:
  2908  007E                     btemp	set	126	;btemp
  2909  007E                     wtemp0	set	126
  2910                           
  2911                           	psect	config
  2912                           
  2913                           ;Config register CONFIG1 @ 0x8007
  2914                           ;	Oscillator Selection
  2915                           ;	FOSC = INTOSC, INTOSC oscillator: I/O function on CLKIN pin
  2916                           ;	Watchdog Timer Enable
  2917                           ;	WDTE = OFF, WDT disabled
  2918                           ;	Power-up Timer Enable
  2919                           ;	PWRTE = OFF, PWRT disabled
  2920                           ;	MCLR Pin Function Select
  2921                           ;	MCLRE = ON, MCLR/VPP pin function is MCLR
  2922                           ;	Flash Program Memory Code Protection
  2923                           ;	CP = OFF, Program memory code protection is disabled
  2924                           ;	Data Memory Code Protection
  2925                           ;	CPD = OFF, Data memory code protection is disabled
  2926                           ;	Brown-out Reset Enable
  2927                           ;	BOREN = ON, Brown-out Reset enabled
  2928                           ;	Clock Out Enable
  2929                           ;	CLKOUTEN = OFF, CLKOUT function is disabled. I/O or oscillator function on the CLKOUT 
      +                          pin
  2930                           ;	Internal/External Switchover
  2931                           ;	IESO = ON, Internal/External Switchover mode is enabled
  2932                           ;	Fail-Safe Clock Monitor Enable
  2933                           ;	FCMEN = ON, Fail-Safe Clock Monitor is enabled
  2934  8007                     	org	32775
  2935  8007  3FE4               	dw	16356
  2936                           
  2937                           ;Config register CONFIG2 @ 0x8008
  2938                           ;	Flash Memory Self-Write Protection
  2939                           ;	WRT = OFF, Write protection off
  2940                           ;	PLL Enable
  2941                           ;	PLLEN = OFF, 4x PLL disabled
  2942                           ;	Stack Overflow/Underflow Reset Enable
  2943                           ;	STVREN = ON, Stack Overflow or Underflow will cause a Reset
  2944                           ;	Brown-out Reset Voltage Selection
  2945                           ;	BORV = LO, Brown-out Reset Voltage (Vbor), low trip point selected.
  2946                           ;	Low-Voltage Programming Enable
  2947                           ;	LVP = ON, Low-voltage programming enabled
  2948  8008                     	org	32776
  2949  8008  3EFF               	dw	16127

Data Sizes:
    Strings     0
    Constant    0
    Data        0
    BSS         6
    Persistent  32
    Stack       0

Auto Spaces:
    Space          Size  Autos    Used
    COMMON           14     14      14
    BANK0            80     29      35
    BANK1            80      0       0
    BANK2            80      0       0
    BANK3            80      0       0
    BANK4            48      0       0

Pointer List with Targets:

    ADC_InterruptHandler	PTR FTN()void  size(2) Largest target is 1
		 -> Absolute function(), 


Critical Paths under _main in COMMON

    _main->___xxtofl
    ___flmul->___xxtofl

Critical Paths under _main in BANK0

    _main->___flmul

Critical Paths under _main in BANK1

    None.

Critical Paths under _main in BANK2

    None.

Critical Paths under _main in BANK3

    None.

Critical Paths under _main in BANK4

    None.

Call Graph Tables:

 ---------------------------------------------------------------------------------
 (Depth) Function   	        Calls       Base Space   Used Autos Params    Refs
 ---------------------------------------------------------------------------------
 (0) _main                                                 3     3      0    3149
                                             26 BANK0      3     3      0
                _ADC_StartConversion
                  _SYSTEM_Initialize
                             ___flge
                            ___flmul
                           ___xxtofl
 ---------------------------------------------------------------------------------
 (1) ___xxtofl                                            14    10      4     398
                                              0 COMMON    14    10      4
 ---------------------------------------------------------------------------------
 (1) ___flmul                                             26    18      8    2417
                                              0 BANK0     26    18      8
                          __Umul8_16
                           ___xxtofl (ARG)
 ---------------------------------------------------------------------------------
 (2) __Umul8_16                                            9     7      2     799
                                              0 COMMON     9     7      2
 ---------------------------------------------------------------------------------
 (1) ___flge                                              12     4      8     334
                                              0 COMMON    12     4      8
 ---------------------------------------------------------------------------------
 (1) _SYSTEM_Initialize                                    0     0      0       0
                     _ADC_Initialize
              _OSCILLATOR_Initialize
             _PIN_MANAGER_Initialize
                     _WDT_Initialize
 ---------------------------------------------------------------------------------
 (2) _WDT_Initialize                                       0     0      0       0
 ---------------------------------------------------------------------------------
 (2) _PIN_MANAGER_Initialize                               0     0      0       0
 ---------------------------------------------------------------------------------
 (2) _OSCILLATOR_Initialize                                0     0      0       0
 ---------------------------------------------------------------------------------
 (2) _ADC_Initialize                                       0     0      0       0
 ---------------------------------------------------------------------------------
 (1) _ADC_StartConversion                                  0     0      0       0
 ---------------------------------------------------------------------------------
 Estimated maximum stack depth 2
 ---------------------------------------------------------------------------------

 Call Graph Graphs:

 _main (ROOT)
   _ADC_StartConversion
   _SYSTEM_Initialize
     _ADC_Initialize
     _OSCILLATOR_Initialize
     _PIN_MANAGER_Initialize
     _WDT_Initialize
   ___flge
   ___flmul
     __Umul8_16
     ___xxtofl (ARG)
   ___xxtofl

 Address spaces:
Name               Size   Autos  Total    Cost      Usage
BIGRAM             170      0       0       0        0.0%
EEDATA             100      0       0       0        0.0%
NULL                 0      0       0       0        0.0%
CODE                 0      0       0       0        0.0%
BITCOMMON            E      0       0       1        0.0%
BITSFR0              0      0       0       1        0.0%
SFR0                 0      0       0       1        0.0%
COMMON               E      E       E       2      100.0%
BITSFR1              0      0       0       2        0.0%
SFR1                 0      0       0       2        0.0%
BITSFR2              0      0       0       3        0.0%
SFR2                 0      0       0       3        0.0%
STACK                0      0       0       3        0.0%
BITSFR3              0      0       0       4        0.0%
SFR3                 0      0       0       4        0.0%
ABS                  0      0      31       4        0.0%
BITBANK0            50      0       0       5        0.0%
BITSFR4              0      0       0       5        0.0%
SFR4                 0      0       0       5        0.0%
BANK0               50     1D      23       6       43.8%
BITSFR5              0      0       0       6        0.0%
SFR5                 0      0       0       6        0.0%
BITBANK1            50      0       0       7        0.0%
BITSFR6              0      0       0       7        0.0%
SFR6                 0      0       0       7        0.0%
BANK1               50      0       0       8        0.0%
BITSFR7              0      0       0       8        0.0%
SFR7                 0      0       0       8        0.0%
BITBANK2            50      0       0       9        0.0%
BITSFR8              0      0       0       9        0.0%
SFR8                 0      0       0       9        0.0%
BANK2               50      0       0      10        0.0%
BITSFR9              0      0       0      10        0.0%
SFR9                 0      0       0      10        0.0%
BITBANK3            50      0       0      11        0.0%
BITSFR10             0      0       0      11        0.0%
SFR10                0      0       0      11        0.0%
BANK3               50      0       0      12        0.0%
BITSFR11             0      0       0      12        0.0%
SFR11                0      0       0      12        0.0%
BITBANK4            30      0       0      13        0.0%
BITSFR12             0      0       0      13        0.0%
SFR12                0      0       0      13        0.0%
BANK4               30      0       0      14        0.0%
BITSFR13             0      0       0      14        0.0%
SFR13                0      0       0      14        0.0%
BITSFR14             0      0       0      15        0.0%
SFR14                0      0       0      15        0.0%
DATA                 0      0      31      15        0.0%
BITSFR15             0      0       0      16        0.0%
SFR15                0      0       0      16        0.0%
BITSFR16             0      0       0      17        0.0%
SFR16                0      0       0      17        0.0%
BITSFR17             0      0       0      18        0.0%
SFR17                0      0       0      18        0.0%
BITSFR18             0      0       0      19        0.0%
SFR18                0      0       0      19        0.0%
BITSFR19             0      0       0      20        0.0%
SFR19                0      0       0      20        0.0%
BITSFR20             0      0       0      21        0.0%
SFR20                0      0       0      21        0.0%
BITSFR21             0      0       0      22        0.0%
SFR21                0      0       0      22        0.0%
BITSFR22             0      0       0      23        0.0%
SFR22                0      0       0      23        0.0%
BITSFR23             0      0       0      24        0.0%
SFR23                0      0       0      24        0.0%
BITSFR24             0      0       0      25        0.0%
SFR24                0      0       0      25        0.0%
BITSFR25             0      0       0      26        0.0%
SFR25                0      0       0      26        0.0%
BITSFR26             0      0       0      27        0.0%
SFR26                0      0       0      27        0.0%
BITSFR27             0      0       0      28        0.0%
SFR27                0      0       0      28        0.0%
BITSFR28             0      0       0      29        0.0%
SFR28                0      0       0      29        0.0%
BITSFR29             0      0       0      30        0.0%
SFR29                0      0       0      30        0.0%
BITSFR30             0      0       0      31        0.0%
SFR30                0      0       0      31        0.0%
BITSFR31             0      0       0      32        0.0%
SFR31                0      0       0      32        0.0%


Microchip Technology PIC Macro Assembler V2.31 build 20201012212115 
Symbol Table                                                                                   Thu Dec 09 09:56:48 2021

                             l25 03C0                               l50 0396                               l53 038F  
                             l70 039E                               l47 03AB                               l76 038B  
            __Umul8_16@word_mpld 0076                              l116 03EF                              l450 0485  
                            l453 04D9                              l713 0515                              l458 04F2  
                            l715 059E                              l726 056A                              l727 0576  
                            l719 0550                              l681 07E9                              l690 03E3  
                            l675 0771                              l669 07F5                              l688 03D3  
                            u600 04EF                              u601 04EE                              u530 03CF  
                            u610 05AD                              u531 03CE                              u611 05AC  
                            u620 05B3                              u605 04EB                              u621 05B2  
                            u550 03DF                              u710 0706                              u630 05B8  
                            u551 03DE                              u631 05B7                              u560 047D  
                            u800 0775                              u720 071D                              u640 05D7  
                            u561 047C                              u545 03D4                              u801 0774  
                            u705 06AC                              u641 05D6                              u570 0499  
                            u810 077B                              u650 05DD                              u571 0498  
                            u811 077A                              u715 0702                              u651 05DC  
                            u580 04A5                              u820 0787                              u660 05E2  
                            u581 04A4                              u821 0786                              u725 0719  
                            u661 05E1                              u590 04C1                              u830 0795  
                            u750 0745                              u670 05F9                              u910 053C  
                            u591 04C0                              u751 0744                              u735 0728  
                            u671 05F8                              u911 053B                              u840 07B0  
                            u680 05FE                              u841 07AF                              u745 073B  
                            u681 05FD                              u905 0530                              u850 07C8  
                            u770 0755                              u930 0556                              u851 07C7  
                            u835 0791                              u771 0754                              u931 0555  
                            u860 07E4                              u780 075A                              u861 07E3  
                            u845 07AC                              u781 0759                              u765 0747  
                            u925 054A                              u790 076E                              u950 0564  
                            u870 04F9                              u855 07C4                              u791 076D  
                            u695 067D                              u951 0563                              u871 04F8  
                            u960 056A                              u880 04FD                              u961 0569  
                            u945 055A                              u881 04FC                              u970 056E  
                            u890 051D                              u971 056D                              u891 051C  
                            u980 0582                              u990 0591                              u991 0590  
                            u985 057E                              wreg 0009                     ___flmul@aexp 0032  
                   ___flmul@bexp 0033                     ___flmul@sign 002D                     ___flmul@temp 0038  
                   ___flmul@prod 0034                             l1100 05AE                             l1030 03B8  
                           l1110 05CA                             l1102 05B3                             l1040 0390  
                           l1032 03BA                             l1024 03AC                             l1200 0776  
                           l1120 05DD                             l1112 05CF                             l1104 05B8  
                           l1050 039A                             l1042 0393                             l1034 03BB  
                           l1026 03AF                             l1202 077B                             l1210 07A3  
                           l1130 05F9                             l1122 05E2                             l1114 05D3  
                           l1106 05C0                             l1052 039B                             l1044 0394  
                           l1036 03BD                             l1028 03B2                             l1060 03CF  
                           l1220 07D3                             l1212 07B0                             l1204 0783  
                           l1140 0621                             l1132 05FE                             l1124 05EA  
                           l1116 05D7                             l1108 05C2                             l1070 0389  
                           l1038 03BF                             l1046 038C                             l1062 03DA  
                           l1054 03C2                             l1222 07E0                             l1214 07BA  
                           l1206 0787                             l1150 067C                             l1142 063B  
                           l1126 05EC                             l1118 05D8                             l1048 0397  
                           l1080 04A5                             l1072 0469                             l1064 03DF  
                           l1056 03C4                             l1224 07E4                             l1216 07C8  
                           l1208 079F                             l1160 06AB                             l1152 0683  
                           l1144 0648                             l1136 0607                             l1128 05F4  
                           l1240 051D                             l1232 04F4                             l1082 04BD  
                           l1074 047D                             l1058 03CB                             l1226 07E5  
                           l1218 07D1                             l1170 06FB                             l1162 06BF  
                           l1154 0690                             l1146 0662                             l1138 0614  
                           l1250 053D                             l1234 04F9                             l1068 039F  
                           l1084 04C1                             l1076 0499                             l1228 07ED  
                           l1180 0741                             l1172 0710                             l1164 06C6  
                           l1156 0697                             l1148 066F                             l1092 059F  
                           l1260 0564                             l1252 0541                             l1244 0526  
                           l1236 04FD                             l1086 04EF                             l1078 04A1  
                           l1190 0755                             l1182 0745                             l1174 0727  
                           l1166 06DA                             l1158 06A4                             l1094 05A5  
                           l1270 0595                             l1262 056E                             l1254 0549  
                           l1246 052B                             l1238 050D                             l1088 04F1  
                           l1192 0756                             l1184 0746                             l1176 072E  
                           l1168 06E7                             l1096 05A9                             l1272 0596  
                           l1264 0578                             l1256 0557                             l1248 0536  
                           l1280 03EC                             l1194 075A                             l1186 074D  
                           l1178 073A                             l1098 05AD                             l1266 058C  
                           l1258 0560                             l1290 0462                             l1282 03F4  
                           l1196 076E                             l1188 0751                             l1268 0591  
                           l1284 0443                             l1276 03E4                             l1286 0453  
                           l1278 03E7                             l1288 0455                             u1000 0595  
                           u1001 0594                             u1010 03EC                             u1011 03EB  
                           u1020 03F4                             u1021 03F3                             u1030 0443  
                           u1031 0442                             u1047 044C                             u1057 045B  
                           _LATA 010C                             _LATB 010D                             _WPUA 020C  
                           _WPUB 020D                             _main 03E4                             btemp 007E  
                           start 0002   __size_of_OSCILLATOR_Initialize 0007    __end_of_OSCILLATOR_Initialize 0397  
                          ?_main 0070                  __end_of___flmul 07F6                            _PORTB 000D  
                          _TRISA 008C                            _TRISB 008D                   _WDT_Initialize 038C  
                          status 0003                            wtemp0 007E                  __initialization 07F6  
                   __end_of_main 0469                           ??_main 003A           __end_of_WDT_Initialize 0390  
                         _ADCON0 009D                           _ADCON1 009E                           _ADRESH 009C  
                         _ADRESL 009B                           _ANSELA 018C                           _ANSELB 018D  
                         _BORCON 0116                           _OSCCON 0099                           _WDTCON 0097  
               __end_of___xxtofl 059F                           ___flge 0469                        ??___flmul 0028  
             __size_of__Umul8_16 0023                  ?_WDT_Initialize 0070                       ___flge@ff1 0070  
                     ___flge@ff2 0074                     ___xxtofl@arg 007A                     ___xxtofl@exp 0079  
              _SYSTEM_Initialize 039F                     ___xxtofl@val 0070          __end_of__initialization 07FD  
             ?_SYSTEM_Initialize 0070     __size_of_ADC_StartConversion 0003                   __pcstackCOMMON 0070  
            ??_SYSTEM_Initialize 0070                   _OPTION_REGbits 0095        __end_of_SYSTEM_Initialize 03AC  
                     __pbssBANK0 003D                __end_of__Umul8_16 03E4                       __pmaintext 03E4  
                        ?___flge 0070                          _APFCON0 011D                          _APFCON1 011E  
        __size_of_ADC_Initialize 0008                        ?___xxtofl 0070                          _OSCTUNE 0098  
           _ADC_InterruptHandler 0041                  __size_of___flge 008A                          ___flmul 059F  
                        __ptext1 04F3                          __ptext2 059F                          __ptext3 03C1  
                        __ptext4 0469                          __ptext5 039F                          __ptext6 038C  
                        __ptext7 03AC                          __ptext8 0390                          __ptext9 0397  
          _OSCILLATOR_Initialize 0390                       ??___xxtofl 0074         ??_PIN_MANAGER_Initialize 0070  
     __size_of_SYSTEM_Initialize 000D             end_of_initialization 07FD                 ??_WDT_Initialize 0070  
                      _PORTAbits 000C                    ___xxtofl@sign 0078              _ADC_StartConversion 0389  
                    ___flmul@grs 002E             ?_ADC_StartConversion 0070                   __end_of___flge 04F3  
                 _ADC_Initialize 0397           ?_OSCILLATOR_Initialize 0070              start_initialization 07F6  
__size_of_PIN_MANAGER_Initialize 0015            ??_ADC_StartConversion 0070                         ??___flge 0078  
         __end_of_ADC_Initialize 039F                        __Umul8_16 03C1                        ___flmul@a 0024  
                      ___flmul@b 0020                        ___latbits 0001                    __pcstackBANK0 0020  
              __size_of___xxtofl 00AC           _PIN_MANAGER_Initialize 03AC                         ?___flmul 0020  
                     ?__Umul8_16 0070                  ?_ADC_Initialize 0070                        _risultato 003D  
                     _ADCON0bits 009D          ??_OSCILLATOR_Initialize 0070                      ??__Umul8_16 0072  
               __size_of___flmul 0257                         ___xxtofl 04F3                         __ptext10 0389  
                  __size_of_main 0085          __size_of_WDT_Initialize 0004      __end_of_ADC_StartConversion 038C  
        ?_PIN_MANAGER_Initialize 0070                 ??_ADC_Initialize 0070           __Umul8_16@multiplicand 0070  
 __end_of_PIN_MANAGER_Initialize 03C1             __Umul8_16@multiplier 0078                __Umul8_16@product 0074  
