

Microchip MPLAB XC8 Assembler V2.35 build 20211206165544 
                                                                                               Thu Feb 24 10:31:20 2022

Microchip MPLAB XC8 C Compiler v2.35 (Free license) build 20211206165544 Og1 
     1                           	processor	16F1827
     2                           	pagewidth 120
     3                           	opt	flic
     4                           	psect	idataCOMMON,global,class=CODE,delta=2,noexec
     5                           	psect	nvBANK0,global,class=BANK0,space=1,delta=1,noexec
     6                           	psect	cinit,global,class=CODE,merge=1,delta=2
     7                           	psect	bssCOMMON,global,class=COMMON,space=1,delta=1,noexec
     8                           	psect	dataCOMMON,global,class=COMMON,space=1,delta=1,noexec
     9                           	psect	cstackCOMMON,global,class=COMMON,space=1,delta=1,noexec
    10                           	psect	cstackBANK0,global,class=BANK0,space=1,delta=1,noexec
    11                           	psect	maintext,global,class=CODE,merge=1,split=1,delta=2
    12                           	psect	text1,local,class=CODE,merge=1,delta=2
    13                           	psect	text2,local,class=CODE,merge=1,delta=2
    14                           	psect	text3,local,class=CODE,merge=1,delta=2
    15                           	psect	text4,local,class=CODE,merge=1,delta=2
    16                           	psect	text5,local,class=CODE,merge=1,delta=2
    17                           	psect	text6,local,class=CODE,merge=1,delta=2
    18                           	psect	text7,local,class=CODE,merge=1,delta=2
    19                           	psect	text8,local,class=CODE,merge=1,delta=2
    20                           	psect	intentry,global,class=CODE,delta=2
    21                           	psect	text10,local,class=CODE,merge=1,delta=2
    22                           	psect	text11,local,class=CODE,merge=1,delta=2
    23                           	psect	text12,local,class=CODE,merge=1,delta=2
    24                           	psect	idloc,global,abs,ovrld,class=IDLOC,space=5,delta=2,noexec
    25                           	psect	config,global,abs,ovrld,class=CONFIG,space=4,delta=2,noexec
    26                           	dabs	1,0x7E,2
    27  0000                     
    28                           ; Version 2.40
    29                           ; Generated 17/11/2021 GMT
    30                           ; 
    31                           ; Copyright © 2021, Microchip Technology Inc. and its subsidiaries ("Microchip")
    32                           ; All rights reserved.
    33                           ; 
    34                           ; This software is developed by Microchip Technology Inc. and its subsidiaries ("Microch
      +                          ip").
    35                           ; 
    36                           ; Redistribution and use in source and binary forms, with or without modification, are
    37                           ; permitted provided that the following conditions are met:
    38                           ; 
    39                           ;     1. Redistributions of source code must retain the above copyright notice, this lis
      +                          t of
    40                           ;        conditions and the following disclaimer.
    41                           ; 
    42                           ;     2. Redistributions in binary form must reproduce the above copyright notice, this 
      +                          list
    43                           ;        of conditions and the following disclaimer in the documentation and/or other
    44                           ;        materials provided with the distribution. Publication is not required when
    45                           ;        this file is used in an embedded application.
    46                           ; 
    47                           ;     3. Microchip's name may not be used to endorse or promote products derived from th
      +                          is
    48                           ;        software without specific prior written permission.
    49                           ; 
    50                           ; THIS SOFTWARE IS PROVIDED BY MICROCHIP "AS IS" AND ANY EXPRESS OR IMPLIED WARRANTIES,
    51                           ; INCLUDING, BUT NOT LIMITED TO, THE IMPLIED WARRANTIES OF MERCHANTABILITY AND FITNESS F
      +                          OR
    52                           ; PURPOSE ARE DISCLAIMED.  IN NO EVENT SHALL MICROCHIP BE LIABLE FOR ANY DIRECT, INDIREC
      +                          T,
    53                           ; INCIDENTAL, SPECIAL, EXEMPLARY, OR CONSEQUENTIAL DAMAGES (INCLUDING BUT NOT LIMITED TO
    54                           ; PROCUREMENT OF SUBSTITUTE GOODS OR SERVICES; LOSS OF USE, DATA OR PROFITS; OR BUSINESS
    55                           ; INTERRUPTION) HOWSOEVER CAUSED AND ON ANY THEORY OF LIABILITY, WHETHER IN CONTRACT, ST
      +                          RICT
    56                           ; LIABILITY, OR TORT (INCLUDING NEGLIGENCE OR OTHERWISE) ARISING IN ANY WAY OUT OF THE U
      +                          SE OF
    57                           ; THIS SOFTWARE, EVEN IF ADVISED OF THE POSSIBILITY OF SUCH DAMAGE.
    58                           ; 
    59                           ; 
    60                           ; Code-generator required, PIC16F1827 Definitions
    61                           ; 
    62                           ; SFR Addresses
    63  0000                     	;# 
    64  0001                     	;# 
    65  0002                     	;# 
    66  0003                     	;# 
    67  0004                     	;# 
    68  0005                     	;# 
    69  0006                     	;# 
    70  0007                     	;# 
    71  0008                     	;# 
    72  0009                     	;# 
    73  000A                     	;# 
    74  000B                     	;# 
    75  000C                     	;# 
    76  000D                     	;# 
    77  0011                     	;# 
    78  0012                     	;# 
    79  0013                     	;# 
    80  0014                     	;# 
    81  0015                     	;# 
    82  0016                     	;# 
    83  0016                     	;# 
    84  0017                     	;# 
    85  0018                     	;# 
    86  0019                     	;# 
    87  001A                     	;# 
    88  001B                     	;# 
    89  001C                     	;# 
    90  001E                     	;# 
    91  001F                     	;# 
    92  008C                     	;# 
    93  008D                     	;# 
    94  0091                     	;# 
    95  0092                     	;# 
    96  0093                     	;# 
    97  0094                     	;# 
    98  0095                     	;# 
    99  0096                     	;# 
   100  0097                     	;# 
   101  0098                     	;# 
   102  0099                     	;# 
   103  009A                     	;# 
   104  009B                     	;# 
   105  009B                     	;# 
   106  009C                     	;# 
   107  009D                     	;# 
   108  009E                     	;# 
   109  010C                     	;# 
   110  010D                     	;# 
   111  0111                     	;# 
   112  0112                     	;# 
   113  0113                     	;# 
   114  0114                     	;# 
   115  0115                     	;# 
   116  0116                     	;# 
   117  0117                     	;# 
   118  0118                     	;# 
   119  0119                     	;# 
   120  011A                     	;# 
   121  011B                     	;# 
   122  011D                     	;# 
   123  011E                     	;# 
   124  018C                     	;# 
   125  018D                     	;# 
   126  0191                     	;# 
   127  0191                     	;# 
   128  0192                     	;# 
   129  0193                     	;# 
   130  0193                     	;# 
   131  0193                     	;# 
   132  0194                     	;# 
   133  0195                     	;# 
   134  0196                     	;# 
   135  0199                     	;# 
   136  019A                     	;# 
   137  019B                     	;# 
   138  019B                     	;# 
   139  019B                     	;# 
   140  019B                     	;# 
   141  019C                     	;# 
   142  019C                     	;# 
   143  019D                     	;# 
   144  019E                     	;# 
   145  019F                     	;# 
   146  020C                     	;# 
   147  020D                     	;# 
   148  0211                     	;# 
   149  0211                     	;# 
   150  0212                     	;# 
   151  0212                     	;# 
   152  0213                     	;# 
   153  0213                     	;# 
   154  0214                     	;# 
   155  0214                     	;# 
   156  0215                     	;# 
   157  0215                     	;# 
   158  0215                     	;# 
   159  0216                     	;# 
   160  0216                     	;# 
   161  0217                     	;# 
   162  0217                     	;# 
   163  0219                     	;# 
   164  021A                     	;# 
   165  021B                     	;# 
   166  021C                     	;# 
   167  021D                     	;# 
   168  021E                     	;# 
   169  021F                     	;# 
   170  0291                     	;# 
   171  0291                     	;# 
   172  0292                     	;# 
   173  0293                     	;# 
   174  0294                     	;# 
   175  0295                     	;# 
   176  0295                     	;# 
   177  0296                     	;# 
   178  0298                     	;# 
   179  0298                     	;# 
   180  0299                     	;# 
   181  029A                     	;# 
   182  029B                     	;# 
   183  029C                     	;# 
   184  029C                     	;# 
   185  029D                     	;# 
   186  029E                     	;# 
   187  029E                     	;# 
   188  0311                     	;# 
   189  0311                     	;# 
   190  0312                     	;# 
   191  0313                     	;# 
   192  0318                     	;# 
   193  0318                     	;# 
   194  0319                     	;# 
   195  031A                     	;# 
   196  0394                     	;# 
   197  0395                     	;# 
   198  0396                     	;# 
   199  039A                     	;# 
   200  039C                     	;# 
   201  039D                     	;# 
   202  039E                     	;# 
   203  039F                     	;# 
   204  0415                     	;# 
   205  0416                     	;# 
   206  0417                     	;# 
   207  041C                     	;# 
   208  041D                     	;# 
   209  041E                     	;# 
   210  0FE4                     	;# 
   211  0FE5                     	;# 
   212  0FE6                     	;# 
   213  0FE7                     	;# 
   214  0FE8                     	;# 
   215  0FE9                     	;# 
   216  0FEA                     	;# 
   217  0FEB                     	;# 
   218  0FED                     	;# 
   219  0FEE                     	;# 
   220  0FEF                     	;# 
   221  0000                     	;# 
   222  0001                     	;# 
   223  0002                     	;# 
   224  0003                     	;# 
   225  0004                     	;# 
   226  0005                     	;# 
   227  0006                     	;# 
   228  0007                     	;# 
   229  0008                     	;# 
   230  0009                     	;# 
   231  000A                     	;# 
   232  000B                     	;# 
   233  000C                     	;# 
   234  000D                     	;# 
   235  0011                     	;# 
   236  0012                     	;# 
   237  0013                     	;# 
   238  0014                     	;# 
   239  0015                     	;# 
   240  0016                     	;# 
   241  0016                     	;# 
   242  0017                     	;# 
   243  0018                     	;# 
   244  0019                     	;# 
   245  001A                     	;# 
   246  001B                     	;# 
   247  001C                     	;# 
   248  001E                     	;# 
   249  001F                     	;# 
   250  008C                     	;# 
   251  008D                     	;# 
   252  0091                     	;# 
   253  0092                     	;# 
   254  0093                     	;# 
   255  0094                     	;# 
   256  0095                     	;# 
   257  0096                     	;# 
   258  0097                     	;# 
   259  0098                     	;# 
   260  0099                     	;# 
   261  009A                     	;# 
   262  009B                     	;# 
   263  009B                     	;# 
   264  009C                     	;# 
   265  009D                     	;# 
   266  009E                     	;# 
   267  010C                     	;# 
   268  010D                     	;# 
   269  0111                     	;# 
   270  0112                     	;# 
   271  0113                     	;# 
   272  0114                     	;# 
   273  0115                     	;# 
   274  0116                     	;# 
   275  0117                     	;# 
   276  0118                     	;# 
   277  0119                     	;# 
   278  011A                     	;# 
   279  011B                     	;# 
   280  011D                     	;# 
   281  011E                     	;# 
   282  018C                     	;# 
   283  018D                     	;# 
   284  0191                     	;# 
   285  0191                     	;# 
   286  0192                     	;# 
   287  0193                     	;# 
   288  0193                     	;# 
   289  0193                     	;# 
   290  0194                     	;# 
   291  0195                     	;# 
   292  0196                     	;# 
   293  0199                     	;# 
   294  019A                     	;# 
   295  019B                     	;# 
   296  019B                     	;# 
   297  019B                     	;# 
   298  019B                     	;# 
   299  019C                     	;# 
   300  019C                     	;# 
   301  019D                     	;# 
   302  019E                     	;# 
   303  019F                     	;# 
   304  020C                     	;# 
   305  020D                     	;# 
   306  0211                     	;# 
   307  0211                     	;# 
   308  0212                     	;# 
   309  0212                     	;# 
   310  0213                     	;# 
   311  0213                     	;# 
   312  0214                     	;# 
   313  0214                     	;# 
   314  0215                     	;# 
   315  0215                     	;# 
   316  0215                     	;# 
   317  0216                     	;# 
   318  0216                     	;# 
   319  0217                     	;# 
   320  0217                     	;# 
   321  0219                     	;# 
   322  021A                     	;# 
   323  021B                     	;# 
   324  021C                     	;# 
   325  021D                     	;# 
   326  021E                     	;# 
   327  021F                     	;# 
   328  0291                     	;# 
   329  0291                     	;# 
   330  0292                     	;# 
   331  0293                     	;# 
   332  0294                     	;# 
   333  0295                     	;# 
   334  0295                     	;# 
   335  0296                     	;# 
   336  0298                     	;# 
   337  0298                     	;# 
   338  0299                     	;# 
   339  029A                     	;# 
   340  029B                     	;# 
   341  029C                     	;# 
   342  029C                     	;# 
   343  029D                     	;# 
   344  029E                     	;# 
   345  029E                     	;# 
   346  0311                     	;# 
   347  0311                     	;# 
   348  0312                     	;# 
   349  0313                     	;# 
   350  0318                     	;# 
   351  0318                     	;# 
   352  0319                     	;# 
   353  031A                     	;# 
   354  0394                     	;# 
   355  0395                     	;# 
   356  0396                     	;# 
   357  039A                     	;# 
   358  039C                     	;# 
   359  039D                     	;# 
   360  039E                     	;# 
   361  039F                     	;# 
   362  0415                     	;# 
   363  0416                     	;# 
   364  0417                     	;# 
   365  041C                     	;# 
   366  041D                     	;# 
   367  041E                     	;# 
   368  0FE4                     	;# 
   369  0FE5                     	;# 
   370  0FE6                     	;# 
   371  0FE7                     	;# 
   372  0FE8                     	;# 
   373  0FE9                     	;# 
   374  0FEA                     	;# 
   375  0FEB                     	;# 
   376  0FED                     	;# 
   377  0FEE                     	;# 
   378  0FEF                     	;# 
   379  0000                     	;# 
   380  0001                     	;# 
   381  0002                     	;# 
   382  0003                     	;# 
   383  0004                     	;# 
   384  0005                     	;# 
   385  0006                     	;# 
   386  0007                     	;# 
   387  0008                     	;# 
   388  0009                     	;# 
   389  000A                     	;# 
   390  000B                     	;# 
   391  000C                     	;# 
   392  000D                     	;# 
   393  0011                     	;# 
   394  0012                     	;# 
   395  0013                     	;# 
   396  0014                     	;# 
   397  0015                     	;# 
   398  0016                     	;# 
   399  0016                     	;# 
   400  0017                     	;# 
   401  0018                     	;# 
   402  0019                     	;# 
   403  001A                     	;# 
   404  001B                     	;# 
   405  001C                     	;# 
   406  001E                     	;# 
   407  001F                     	;# 
   408  008C                     	;# 
   409  008D                     	;# 
   410  0091                     	;# 
   411  0092                     	;# 
   412  0093                     	;# 
   413  0094                     	;# 
   414  0095                     	;# 
   415  0096                     	;# 
   416  0097                     	;# 
   417  0098                     	;# 
   418  0099                     	;# 
   419  009A                     	;# 
   420  009B                     	;# 
   421  009B                     	;# 
   422  009C                     	;# 
   423  009D                     	;# 
   424  009E                     	;# 
   425  010C                     	;# 
   426  010D                     	;# 
   427  0111                     	;# 
   428  0112                     	;# 
   429  0113                     	;# 
   430  0114                     	;# 
   431  0115                     	;# 
   432  0116                     	;# 
   433  0117                     	;# 
   434  0118                     	;# 
   435  0119                     	;# 
   436  011A                     	;# 
   437  011B                     	;# 
   438  011D                     	;# 
   439  011E                     	;# 
   440  018C                     	;# 
   441  018D                     	;# 
   442  0191                     	;# 
   443  0191                     	;# 
   444  0192                     	;# 
   445  0193                     	;# 
   446  0193                     	;# 
   447  0193                     	;# 
   448  0194                     	;# 
   449  0195                     	;# 
   450  0196                     	;# 
   451  0199                     	;# 
   452  019A                     	;# 
   453  019B                     	;# 
   454  019B                     	;# 
   455  019B                     	;# 
   456  019B                     	;# 
   457  019C                     	;# 
   458  019C                     	;# 
   459  019D                     	;# 
   460  019E                     	;# 
   461  019F                     	;# 
   462  020C                     	;# 
   463  020D                     	;# 
   464  0211                     	;# 
   465  0211                     	;# 
   466  0212                     	;# 
   467  0212                     	;# 
   468  0213                     	;# 
   469  0213                     	;# 
   470  0214                     	;# 
   471  0214                     	;# 
   472  0215                     	;# 
   473  0215                     	;# 
   474  0215                     	;# 
   475  0216                     	;# 
   476  0216                     	;# 
   477  0217                     	;# 
   478  0217                     	;# 
   479  0219                     	;# 
   480  021A                     	;# 
   481  021B                     	;# 
   482  021C                     	;# 
   483  021D                     	;# 
   484  021E                     	;# 
   485  021F                     	;# 
   486  0291                     	;# 
   487  0291                     	;# 
   488  0292                     	;# 
   489  0293                     	;# 
   490  0294                     	;# 
   491  0295                     	;# 
   492  0295                     	;# 
   493  0296                     	;# 
   494  0298                     	;# 
   495  0298                     	;# 
   496  0299                     	;# 
   497  029A                     	;# 
   498  029B                     	;# 
   499  029C                     	;# 
   500  029C                     	;# 
   501  029D                     	;# 
   502  029E                     	;# 
   503  029E                     	;# 
   504  0311                     	;# 
   505  0311                     	;# 
   506  0312                     	;# 
   507  0313                     	;# 
   508  0318                     	;# 
   509  0318                     	;# 
   510  0319                     	;# 
   511  031A                     	;# 
   512  0394                     	;# 
   513  0395                     	;# 
   514  0396                     	;# 
   515  039A                     	;# 
   516  039C                     	;# 
   517  039D                     	;# 
   518  039E                     	;# 
   519  039F                     	;# 
   520  0415                     	;# 
   521  0416                     	;# 
   522  0417                     	;# 
   523  041C                     	;# 
   524  041D                     	;# 
   525  041E                     	;# 
   526  0FE4                     	;# 
   527  0FE5                     	;# 
   528  0FE6                     	;# 
   529  0FE7                     	;# 
   530  0FE8                     	;# 
   531  0FE9                     	;# 
   532  0FEA                     	;# 
   533  0FEB                     	;# 
   534  0FED                     	;# 
   535  0FEE                     	;# 
   536  0FEF                     	;# 
   537  0000                     	;# 
   538  0001                     	;# 
   539  0002                     	;# 
   540  0003                     	;# 
   541  0004                     	;# 
   542  0005                     	;# 
   543  0006                     	;# 
   544  0007                     	;# 
   545  0008                     	;# 
   546  0009                     	;# 
   547  000A                     	;# 
   548  000B                     	;# 
   549  000C                     	;# 
   550  000D                     	;# 
   551  0011                     	;# 
   552  0012                     	;# 
   553  0013                     	;# 
   554  0014                     	;# 
   555  0015                     	;# 
   556  0016                     	;# 
   557  0016                     	;# 
   558  0017                     	;# 
   559  0018                     	;# 
   560  0019                     	;# 
   561  001A                     	;# 
   562  001B                     	;# 
   563  001C                     	;# 
   564  001E                     	;# 
   565  001F                     	;# 
   566  008C                     	;# 
   567  008D                     	;# 
   568  0091                     	;# 
   569  0092                     	;# 
   570  0093                     	;# 
   571  0094                     	;# 
   572  0095                     	;# 
   573  0096                     	;# 
   574  0097                     	;# 
   575  0098                     	;# 
   576  0099                     	;# 
   577  009A                     	;# 
   578  009B                     	;# 
   579  009B                     	;# 
   580  009C                     	;# 
   581  009D                     	;# 
   582  009E                     	;# 
   583  010C                     	;# 
   584  010D                     	;# 
   585  0111                     	;# 
   586  0112                     	;# 
   587  0113                     	;# 
   588  0114                     	;# 
   589  0115                     	;# 
   590  0116                     	;# 
   591  0117                     	;# 
   592  0118                     	;# 
   593  0119                     	;# 
   594  011A                     	;# 
   595  011B                     	;# 
   596  011D                     	;# 
   597  011E                     	;# 
   598  018C                     	;# 
   599  018D                     	;# 
   600  0191                     	;# 
   601  0191                     	;# 
   602  0192                     	;# 
   603  0193                     	;# 
   604  0193                     	;# 
   605  0193                     	;# 
   606  0194                     	;# 
   607  0195                     	;# 
   608  0196                     	;# 
   609  0199                     	;# 
   610  019A                     	;# 
   611  019B                     	;# 
   612  019B                     	;# 
   613  019B                     	;# 
   614  019B                     	;# 
   615  019C                     	;# 
   616  019C                     	;# 
   617  019D                     	;# 
   618  019E                     	;# 
   619  019F                     	;# 
   620  020C                     	;# 
   621  020D                     	;# 
   622  0211                     	;# 
   623  0211                     	;# 
   624  0212                     	;# 
   625  0212                     	;# 
   626  0213                     	;# 
   627  0213                     	;# 
   628  0214                     	;# 
   629  0214                     	;# 
   630  0215                     	;# 
   631  0215                     	;# 
   632  0215                     	;# 
   633  0216                     	;# 
   634  0216                     	;# 
   635  0217                     	;# 
   636  0217                     	;# 
   637  0219                     	;# 
   638  021A                     	;# 
   639  021B                     	;# 
   640  021C                     	;# 
   641  021D                     	;# 
   642  021E                     	;# 
   643  021F                     	;# 
   644  0291                     	;# 
   645  0291                     	;# 
   646  0292                     	;# 
   647  0293                     	;# 
   648  0294                     	;# 
   649  0295                     	;# 
   650  0295                     	;# 
   651  0296                     	;# 
   652  0298                     	;# 
   653  0298                     	;# 
   654  0299                     	;# 
   655  029A                     	;# 
   656  029B                     	;# 
   657  029C                     	;# 
   658  029C                     	;# 
   659  029D                     	;# 
   660  029E                     	;# 
   661  029E                     	;# 
   662  0311                     	;# 
   663  0311                     	;# 
   664  0312                     	;# 
   665  0313                     	;# 
   666  0318                     	;# 
   667  0318                     	;# 
   668  0319                     	;# 
   669  031A                     	;# 
   670  0394                     	;# 
   671  0395                     	;# 
   672  0396                     	;# 
   673  039A                     	;# 
   674  039C                     	;# 
   675  039D                     	;# 
   676  039E                     	;# 
   677  039F                     	;# 
   678  0415                     	;# 
   679  0416                     	;# 
   680  0417                     	;# 
   681  041C                     	;# 
   682  041D                     	;# 
   683  041E                     	;# 
   684  0FE4                     	;# 
   685  0FE5                     	;# 
   686  0FE6                     	;# 
   687  0FE7                     	;# 
   688  0FE8                     	;# 
   689  0FE9                     	;# 
   690  0FEA                     	;# 
   691  0FEB                     	;# 
   692  0FED                     	;# 
   693  0FEE                     	;# 
   694  0FEF                     	;# 
   695  0000                     	;# 
   696  0001                     	;# 
   697  0002                     	;# 
   698  0003                     	;# 
   699  0004                     	;# 
   700  0005                     	;# 
   701  0006                     	;# 
   702  0007                     	;# 
   703  0008                     	;# 
   704  0009                     	;# 
   705  000A                     	;# 
   706  000B                     	;# 
   707  000C                     	;# 
   708  000D                     	;# 
   709  0011                     	;# 
   710  0012                     	;# 
   711  0013                     	;# 
   712  0014                     	;# 
   713  0015                     	;# 
   714  0016                     	;# 
   715  0016                     	;# 
   716  0017                     	;# 
   717  0018                     	;# 
   718  0019                     	;# 
   719  001A                     	;# 
   720  001B                     	;# 
   721  001C                     	;# 
   722  001E                     	;# 
   723  001F                     	;# 
   724  008C                     	;# 
   725  008D                     	;# 
   726  0091                     	;# 
   727  0092                     	;# 
   728  0093                     	;# 
   729  0094                     	;# 
   730  0095                     	;# 
   731  0096                     	;# 
   732  0097                     	;# 
   733  0098                     	;# 
   734  0099                     	;# 
   735  009A                     	;# 
   736  009B                     	;# 
   737  009B                     	;# 
   738  009C                     	;# 
   739  009D                     	;# 
   740  009E                     	;# 
   741  010C                     	;# 
   742  010D                     	;# 
   743  0111                     	;# 
   744  0112                     	;# 
   745  0113                     	;# 
   746  0114                     	;# 
   747  0115                     	;# 
   748  0116                     	;# 
   749  0117                     	;# 
   750  0118                     	;# 
   751  0119                     	;# 
   752  011A                     	;# 
   753  011B                     	;# 
   754  011D                     	;# 
   755  011E                     	;# 
   756  018C                     	;# 
   757  018D                     	;# 
   758  0191                     	;# 
   759  0191                     	;# 
   760  0192                     	;# 
   761  0193                     	;# 
   762  0193                     	;# 
   763  0193                     	;# 
   764  0194                     	;# 
   765  0195                     	;# 
   766  0196                     	;# 
   767  0199                     	;# 
   768  019A                     	;# 
   769  019B                     	;# 
   770  019B                     	;# 
   771  019B                     	;# 
   772  019B                     	;# 
   773  019C                     	;# 
   774  019C                     	;# 
   775  019D                     	;# 
   776  019E                     	;# 
   777  019F                     	;# 
   778  020C                     	;# 
   779  020D                     	;# 
   780  0211                     	;# 
   781  0211                     	;# 
   782  0212                     	;# 
   783  0212                     	;# 
   784  0213                     	;# 
   785  0213                     	;# 
   786  0214                     	;# 
   787  0214                     	;# 
   788  0215                     	;# 
   789  0215                     	;# 
   790  0215                     	;# 
   791  0216                     	;# 
   792  0216                     	;# 
   793  0217                     	;# 
   794  0217                     	;# 
   795  0219                     	;# 
   796  021A                     	;# 
   797  021B                     	;# 
   798  021C                     	;# 
   799  021D                     	;# 
   800  021E                     	;# 
   801  021F                     	;# 
   802  0291                     	;# 
   803  0291                     	;# 
   804  0292                     	;# 
   805  0293                     	;# 
   806  0294                     	;# 
   807  0295                     	;# 
   808  0295                     	;# 
   809  0296                     	;# 
   810  0298                     	;# 
   811  0298                     	;# 
   812  0299                     	;# 
   813  029A                     	;# 
   814  029B                     	;# 
   815  029C                     	;# 
   816  029C                     	;# 
   817  029D                     	;# 
   818  029E                     	;# 
   819  029E                     	;# 
   820  0311                     	;# 
   821  0311                     	;# 
   822  0312                     	;# 
   823  0313                     	;# 
   824  0318                     	;# 
   825  0318                     	;# 
   826  0319                     	;# 
   827  031A                     	;# 
   828  0394                     	;# 
   829  0395                     	;# 
   830  0396                     	;# 
   831  039A                     	;# 
   832  039C                     	;# 
   833  039D                     	;# 
   834  039E                     	;# 
   835  039F                     	;# 
   836  0415                     	;# 
   837  0416                     	;# 
   838  0417                     	;# 
   839  041C                     	;# 
   840  041D                     	;# 
   841  041E                     	;# 
   842  0FE4                     	;# 
   843  0FE5                     	;# 
   844  0FE6                     	;# 
   845  0FE7                     	;# 
   846  0FE8                     	;# 
   847  0FE9                     	;# 
   848  0FEA                     	;# 
   849  0FEB                     	;# 
   850  0FED                     	;# 
   851  0FEE                     	;# 
   852  0FEF                     	;# 
   853  0000                     	;# 
   854  0001                     	;# 
   855  0002                     	;# 
   856  0003                     	;# 
   857  0004                     	;# 
   858  0005                     	;# 
   859  0006                     	;# 
   860  0007                     	;# 
   861  0008                     	;# 
   862  0009                     	;# 
   863  000A                     	;# 
   864  000B                     	;# 
   865  000C                     	;# 
   866  000D                     	;# 
   867  0011                     	;# 
   868  0012                     	;# 
   869  0013                     	;# 
   870  0014                     	;# 
   871  0015                     	;# 
   872  0016                     	;# 
   873  0016                     	;# 
   874  0017                     	;# 
   875  0018                     	;# 
   876  0019                     	;# 
   877  001A                     	;# 
   878  001B                     	;# 
   879  001C                     	;# 
   880  001E                     	;# 
   881  001F                     	;# 
   882  008C                     	;# 
   883  008D                     	;# 
   884  0091                     	;# 
   885  0092                     	;# 
   886  0093                     	;# 
   887  0094                     	;# 
   888  0095                     	;# 
   889  0096                     	;# 
   890  0097                     	;# 
   891  0098                     	;# 
   892  0099                     	;# 
   893  009A                     	;# 
   894  009B                     	;# 
   895  009B                     	;# 
   896  009C                     	;# 
   897  009D                     	;# 
   898  009E                     	;# 
   899  010C                     	;# 
   900  010D                     	;# 
   901  0111                     	;# 
   902  0112                     	;# 
   903  0113                     	;# 
   904  0114                     	;# 
   905  0115                     	;# 
   906  0116                     	;# 
   907  0117                     	;# 
   908  0118                     	;# 
   909  0119                     	;# 
   910  011A                     	;# 
   911  011B                     	;# 
   912  011D                     	;# 
   913  011E                     	;# 
   914  018C                     	;# 
   915  018D                     	;# 
   916  0191                     	;# 
   917  0191                     	;# 
   918  0192                     	;# 
   919  0193                     	;# 
   920  0193                     	;# 
   921  0193                     	;# 
   922  0194                     	;# 
   923  0195                     	;# 
   924  0196                     	;# 
   925  0199                     	;# 
   926  019A                     	;# 
   927  019B                     	;# 
   928  019B                     	;# 
   929  019B                     	;# 
   930  019B                     	;# 
   931  019C                     	;# 
   932  019C                     	;# 
   933  019D                     	;# 
   934  019E                     	;# 
   935  019F                     	;# 
   936  020C                     	;# 
   937  020D                     	;# 
   938  0211                     	;# 
   939  0211                     	;# 
   940  0212                     	;# 
   941  0212                     	;# 
   942  0213                     	;# 
   943  0213                     	;# 
   944  0214                     	;# 
   945  0214                     	;# 
   946  0215                     	;# 
   947  0215                     	;# 
   948  0215                     	;# 
   949  0216                     	;# 
   950  0216                     	;# 
   951  0217                     	;# 
   952  0217                     	;# 
   953  0219                     	;# 
   954  021A                     	;# 
   955  021B                     	;# 
   956  021C                     	;# 
   957  021D                     	;# 
   958  021E                     	;# 
   959  021F                     	;# 
   960  0291                     	;# 
   961  0291                     	;# 
   962  0292                     	;# 
   963  0293                     	;# 
   964  0294                     	;# 
   965  0295                     	;# 
   966  0295                     	;# 
   967  0296                     	;# 
   968  0298                     	;# 
   969  0298                     	;# 
   970  0299                     	;# 
   971  029A                     	;# 
   972  029B                     	;# 
   973  029C                     	;# 
   974  029C                     	;# 
   975  029D                     	;# 
   976  029E                     	;# 
   977  029E                     	;# 
   978  0311                     	;# 
   979  0311                     	;# 
   980  0312                     	;# 
   981  0313                     	;# 
   982  0318                     	;# 
   983  0318                     	;# 
   984  0319                     	;# 
   985  031A                     	;# 
   986  0394                     	;# 
   987  0395                     	;# 
   988  0396                     	;# 
   989  039A                     	;# 
   990  039C                     	;# 
   991  039D                     	;# 
   992  039E                     	;# 
   993  039F                     	;# 
   994  0415                     	;# 
   995  0416                     	;# 
   996  0417                     	;# 
   997  041C                     	;# 
   998  041D                     	;# 
   999  041E                     	;# 
  1000  0FE4                     	;# 
  1001  0FE5                     	;# 
  1002  0FE6                     	;# 
  1003  0FE7                     	;# 
  1004  0FE8                     	;# 
  1005  0FE9                     	;# 
  1006  0FEA                     	;# 
  1007  0FEB                     	;# 
  1008  0FED                     	;# 
  1009  0FEE                     	;# 
  1010  0FEF                     	;# 
  1011  0000                     	;# 
  1012  0001                     	;# 
  1013  0002                     	;# 
  1014  0003                     	;# 
  1015  0004                     	;# 
  1016  0005                     	;# 
  1017  0006                     	;# 
  1018  0007                     	;# 
  1019  0008                     	;# 
  1020  0009                     	;# 
  1021  000A                     	;# 
  1022  000B                     	;# 
  1023  000C                     	;# 
  1024  000D                     	;# 
  1025  0011                     	;# 
  1026  0012                     	;# 
  1027  0013                     	;# 
  1028  0014                     	;# 
  1029  0015                     	;# 
  1030  0016                     	;# 
  1031  0016                     	;# 
  1032  0017                     	;# 
  1033  0018                     	;# 
  1034  0019                     	;# 
  1035  001A                     	;# 
  1036  001B                     	;# 
  1037  001C                     	;# 
  1038  001E                     	;# 
  1039  001F                     	;# 
  1040  008C                     	;# 
  1041  008D                     	;# 
  1042  0091                     	;# 
  1043  0092                     	;# 
  1044  0093                     	;# 
  1045  0094                     	;# 
  1046  0095                     	;# 
  1047  0096                     	;# 
  1048  0097                     	;# 
  1049  0098                     	;# 
  1050  0099                     	;# 
  1051  009A                     	;# 
  1052  009B                     	;# 
  1053  009B                     	;# 
  1054  009C                     	;# 
  1055  009D                     	;# 
  1056  009E                     	;# 
  1057  010C                     	;# 
  1058  010D                     	;# 
  1059  0111                     	;# 
  1060  0112                     	;# 
  1061  0113                     	;# 
  1062  0114                     	;# 
  1063  0115                     	;# 
  1064  0116                     	;# 
  1065  0117                     	;# 
  1066  0118                     	;# 
  1067  0119                     	;# 
  1068  011A                     	;# 
  1069  011B                     	;# 
  1070  011D                     	;# 
  1071  011E                     	;# 
  1072  018C                     	;# 
  1073  018D                     	;# 
  1074  0191                     	;# 
  1075  0191                     	;# 
  1076  0192                     	;# 
  1077  0193                     	;# 
  1078  0193                     	;# 
  1079  0193                     	;# 
  1080  0194                     	;# 
  1081  0195                     	;# 
  1082  0196                     	;# 
  1083  0199                     	;# 
  1084  019A                     	;# 
  1085  019B                     	;# 
  1086  019B                     	;# 
  1087  019B                     	;# 
  1088  019B                     	;# 
  1089  019C                     	;# 
  1090  019C                     	;# 
  1091  019D                     	;# 
  1092  019E                     	;# 
  1093  019F                     	;# 
  1094  020C                     	;# 
  1095  020D                     	;# 
  1096  0211                     	;# 
  1097  0211                     	;# 
  1098  0212                     	;# 
  1099  0212                     	;# 
  1100  0213                     	;# 
  1101  0213                     	;# 
  1102  0214                     	;# 
  1103  0214                     	;# 
  1104  0215                     	;# 
  1105  0215                     	;# 
  1106  0215                     	;# 
  1107  0216                     	;# 
  1108  0216                     	;# 
  1109  0217                     	;# 
  1110  0217                     	;# 
  1111  0219                     	;# 
  1112  021A                     	;# 
  1113  021B                     	;# 
  1114  021C                     	;# 
  1115  021D                     	;# 
  1116  021E                     	;# 
  1117  021F                     	;# 
  1118  0291                     	;# 
  1119  0291                     	;# 
  1120  0292                     	;# 
  1121  0293                     	;# 
  1122  0294                     	;# 
  1123  0295                     	;# 
  1124  0295                     	;# 
  1125  0296                     	;# 
  1126  0298                     	;# 
  1127  0298                     	;# 
  1128  0299                     	;# 
  1129  029A                     	;# 
  1130  029B                     	;# 
  1131  029C                     	;# 
  1132  029C                     	;# 
  1133  029D                     	;# 
  1134  029E                     	;# 
  1135  029E                     	;# 
  1136  0311                     	;# 
  1137  0311                     	;# 
  1138  0312                     	;# 
  1139  0313                     	;# 
  1140  0318                     	;# 
  1141  0318                     	;# 
  1142  0319                     	;# 
  1143  031A                     	;# 
  1144  0394                     	;# 
  1145  0395                     	;# 
  1146  0396                     	;# 
  1147  039A                     	;# 
  1148  039C                     	;# 
  1149  039D                     	;# 
  1150  039E                     	;# 
  1151  039F                     	;# 
  1152  0415                     	;# 
  1153  0416                     	;# 
  1154  0417                     	;# 
  1155  041C                     	;# 
  1156  041D                     	;# 
  1157  041E                     	;# 
  1158  0FE4                     	;# 
  1159  0FE5                     	;# 
  1160  0FE6                     	;# 
  1161  0FE7                     	;# 
  1162  0FE8                     	;# 
  1163  0FE9                     	;# 
  1164  0FEA                     	;# 
  1165  0FEB                     	;# 
  1166  0FED                     	;# 
  1167  0FEE                     	;# 
  1168  0FEF                     	;# 
  1169  0000                     	;# 
  1170  0001                     	;# 
  1171  0002                     	;# 
  1172  0003                     	;# 
  1173  0004                     	;# 
  1174  0005                     	;# 
  1175  0006                     	;# 
  1176  0007                     	;# 
  1177  0008                     	;# 
  1178  0009                     	;# 
  1179  000A                     	;# 
  1180  000B                     	;# 
  1181  000C                     	;# 
  1182  000D                     	;# 
  1183  0011                     	;# 
  1184  0012                     	;# 
  1185  0013                     	;# 
  1186  0014                     	;# 
  1187  0015                     	;# 
  1188  0016                     	;# 
  1189  0016                     	;# 
  1190  0017                     	;# 
  1191  0018                     	;# 
  1192  0019                     	;# 
  1193  001A                     	;# 
  1194  001B                     	;# 
  1195  001C                     	;# 
  1196  001E                     	;# 
  1197  001F                     	;# 
  1198  008C                     	;# 
  1199  008D                     	;# 
  1200  0091                     	;# 
  1201  0092                     	;# 
  1202  0093                     	;# 
  1203  0094                     	;# 
  1204  0095                     	;# 
  1205  0096                     	;# 
  1206  0097                     	;# 
  1207  0098                     	;# 
  1208  0099                     	;# 
  1209  009A                     	;# 
  1210  009B                     	;# 
  1211  009B                     	;# 
  1212  009C                     	;# 
  1213  009D                     	;# 
  1214  009E                     	;# 
  1215  010C                     	;# 
  1216  010D                     	;# 
  1217  0111                     	;# 
  1218  0112                     	;# 
  1219  0113                     	;# 
  1220  0114                     	;# 
  1221  0115                     	;# 
  1222  0116                     	;# 
  1223  0117                     	;# 
  1224  0118                     	;# 
  1225  0119                     	;# 
  1226  011A                     	;# 
  1227  011B                     	;# 
  1228  011D                     	;# 
  1229  011E                     	;# 
  1230  018C                     	;# 
  1231  018D                     	;# 
  1232  0191                     	;# 
  1233  0191                     	;# 
  1234  0192                     	;# 
  1235  0193                     	;# 
  1236  0193                     	;# 
  1237  0193                     	;# 
  1238  0194                     	;# 
  1239  0195                     	;# 
  1240  0196                     	;# 
  1241  0199                     	;# 
  1242  019A                     	;# 
  1243  019B                     	;# 
  1244  019B                     	;# 
  1245  019B                     	;# 
  1246  019B                     	;# 
  1247  019C                     	;# 
  1248  019C                     	;# 
  1249  019D                     	;# 
  1250  019E                     	;# 
  1251  019F                     	;# 
  1252  020C                     	;# 
  1253  020D                     	;# 
  1254  0211                     	;# 
  1255  0211                     	;# 
  1256  0212                     	;# 
  1257  0212                     	;# 
  1258  0213                     	;# 
  1259  0213                     	;# 
  1260  0214                     	;# 
  1261  0214                     	;# 
  1262  0215                     	;# 
  1263  0215                     	;# 
  1264  0215                     	;# 
  1265  0216                     	;# 
  1266  0216                     	;# 
  1267  0217                     	;# 
  1268  0217                     	;# 
  1269  0219                     	;# 
  1270  021A                     	;# 
  1271  021B                     	;# 
  1272  021C                     	;# 
  1273  021D                     	;# 
  1274  021E                     	;# 
  1275  021F                     	;# 
  1276  0291                     	;# 
  1277  0291                     	;# 
  1278  0292                     	;# 
  1279  0293                     	;# 
  1280  0294                     	;# 
  1281  0295                     	;# 
  1282  0295                     	;# 
  1283  0296                     	;# 
  1284  0298                     	;# 
  1285  0298                     	;# 
  1286  0299                     	;# 
  1287  029A                     	;# 
  1288  029B                     	;# 
  1289  029C                     	;# 
  1290  029C                     	;# 
  1291  029D                     	;# 
  1292  029E                     	;# 
  1293  029E                     	;# 
  1294  0311                     	;# 
  1295  0311                     	;# 
  1296  0312                     	;# 
  1297  0313                     	;# 
  1298  0318                     	;# 
  1299  0318                     	;# 
  1300  0319                     	;# 
  1301  031A                     	;# 
  1302  0394                     	;# 
  1303  0395                     	;# 
  1304  0396                     	;# 
  1305  039A                     	;# 
  1306  039C                     	;# 
  1307  039D                     	;# 
  1308  039E                     	;# 
  1309  039F                     	;# 
  1310  0415                     	;# 
  1311  0416                     	;# 
  1312  0417                     	;# 
  1313  041C                     	;# 
  1314  041D                     	;# 
  1315  041E                     	;# 
  1316  0FE4                     	;# 
  1317  0FE5                     	;# 
  1318  0FE6                     	;# 
  1319  0FE7                     	;# 
  1320  0FE8                     	;# 
  1321  0FE9                     	;# 
  1322  0FEA                     	;# 
  1323  0FEB                     	;# 
  1324  0FED                     	;# 
  1325  0FEE                     	;# 
  1326  0FEF                     	;# 
  1327                           
  1328                           	psect	idataCOMMON
  1329  01D1                     __pidataCOMMON:
  1330                           
  1331                           ;initializer for _duty
  1332  01D1  3410               	retlw	16
  1333  01D2  3400               	retlw	0
  1334                           
  1335                           	psect	nvBANK0
  1336  0020                     __pnvBANK0:
  1337  0020                     _TMR0_InterruptHandler:
  1338  0020                     	ds	2
  1339  0022                     _timer0ReloadVal:
  1340  0022                     	ds	1
  1341  001C                     _T2CONbits	set	28
  1342  001C                     _T2CON	set	28
  1343  0011                     _PIR1bits	set	17
  1344  001A                     _TMR2	set	26
  1345  001B                     _PR2	set	27
  1346  000C                     _PORTAbits	set	12
  1347  000B                     _INTCONbits	set	11
  1348  0015                     _TMR0	set	21
  1349  0095                     _OPTION_REGbits	set	149
  1350  008D                     _TRISB	set	141
  1351  008C                     _TRISA	set	140
  1352  0097                     _WDTCON	set	151
  1353  0098                     _OSCTUNE	set	152
  1354  0099                     _OSCCON	set	153
  1355  0095                     _OPTION_REG	set	149
  1356  011E                     _APFCON1	set	286
  1357  011D                     _APFCON0	set	285
  1358  010D                     _LATB	set	269
  1359  010C                     _LATA	set	268
  1360  0116                     _BORCON	set	278
  1361  018C                     _ANSELA	set	396
  1362  018D                     _ANSELB	set	397
  1363  020C                     _WPUA	set	524
  1364  020D                     _WPUB	set	525
  1365  029E                     _CCPTMRS0bits	set	670
  1366  0291                     _CCPR1L	set	657
  1367  0292                     _CCPR1H	set	658
  1368  0294                     _PWM1CON	set	660
  1369  0295                     _ECCP1AS	set	661
  1370  0293                     _CCP1CON	set	659
  1371  0296                     _PSTR1CON	set	662
  1372                           
  1373                           	psect	cinit
  1374  0015                     start_initialization:	
  1375                           ; #config settings
  1376                           
  1377  0015                     __initialization:
  1378                           
  1379                           ; Initialize objects allocated to COMMON
  1380  0015  3181  21D1  3180   	fcall	__pidataCOMMON	;fetch initializer
  1381  0018  00FA               	movwf	__pdataCOMMON& (0+127)
  1382  0019  3181  21D2  3180   	fcall	__pidataCOMMON+1	;fetch initializer
  1383  001C  00FB               	movwf	(__pdataCOMMON+1)& (0+127)
  1384                           
  1385                           ; Clear objects allocated to COMMON
  1386  001D  01F6               	clrf	__pbssCOMMON& (0+127)
  1387  001E  01F7               	clrf	(__pbssCOMMON+1)& (0+127)
  1388  001F  01F8               	clrf	(__pbssCOMMON+2)& (0+127)
  1389  0020  01F9               	clrf	(__pbssCOMMON+3)& (0+127)
  1390  0021                     end_of_initialization:	
  1391                           ;End of C runtime variable initialization code
  1392                           
  1393  0021                     __end_of__initialization:
  1394  0021  107E               	bcf	int$flags,0	;clear compiler interrupt flag (level 1)
  1395  0022  0020               	movlb	0
  1396  0023  3181  29AD         	ljmp	_main	;jump to C main() function
  1397                           
  1398                           	psect	bssCOMMON
  1399  0076                     __pbssCOMMON:
  1400  0076                     _t:
  1401  0076                     	ds	2
  1402  0078                     _a:
  1403  0078                     	ds	2
  1404                           
  1405                           	psect	dataCOMMON
  1406  007A                     __pdataCOMMON:
  1407  007A                     _duty:
  1408  007A                     	ds	2
  1409                           
  1410                           	psect	cstackCOMMON
  1411  0070                     __pcstackCOMMON:
  1412  0070                     ?_TMR0_DefaultInterruptHandler:
  1413  0070                     ??_TMR0_DefaultInterruptHandler:	
  1414                           ; 1 bytes @ 0x0
  1415                           
  1416  0070                     ?_EPWM1_LoadDutyValue:	
  1417                           ; 1 bytes @ 0x0
  1418                           
  1419  0070                     ?_PIN_MANAGER_Initialize:	
  1420                           ; 1 bytes @ 0x0
  1421                           
  1422  0070                     ?_OSCILLATOR_Initialize:	
  1423                           ; 1 bytes @ 0x0
  1424                           
  1425  0070                     ?_WDT_Initialize:	
  1426                           ; 1 bytes @ 0x0
  1427                           
  1428  0070                     ?_TMR0_Initialize:	
  1429                           ; 1 bytes @ 0x0
  1430                           
  1431  0070                     ?_TMR0_ISR:	
  1432                           ; 1 bytes @ 0x0
  1433                           
  1434  0070                     ?_TMR2_Initialize:	
  1435                           ; 1 bytes @ 0x0
  1436                           
  1437  0070                     ?_EPWM1_Initialize:	
  1438                           ; 1 bytes @ 0x0
  1439                           
  1440  0070                     ?_SYSTEM_Initialize:	
  1441                           ; 1 bytes @ 0x0
  1442                           
  1443  0070                     ?_INTERRUPT_InterruptManager:	
  1444                           ; 1 bytes @ 0x0
  1445                           
  1446  0070                     ?_main:	
  1447                           ; 1 bytes @ 0x0
  1448                           
  1449  0070                     EPWM1_LoadDutyValue@dutyValue:	
  1450                           ; 1 bytes @ 0x0
  1451                           
  1452                           
  1453                           ; 2 bytes @ 0x0
  1454  0070                     	ds	2
  1455  0072                     ??_EPWM1_LoadDutyValue:
  1456                           
  1457                           ; 1 bytes @ 0x2
  1458  0072                     	ds	2
  1459  0074                     ??_TMR0_ISR:
  1460                           
  1461                           ; 1 bytes @ 0x4
  1462  0074                     	ds	2
  1463  0076                     ??_INTERRUPT_InterruptManager:
  1464                           
  1465                           	psect	cstackBANK0
  1466  0023                     __pcstackBANK0:	
  1467                           ; 1 bytes @ 0x6
  1468                           
  1469  0023                     ?_TMR0_SetInterruptHandler:
  1470  0023                     ??_PIN_MANAGER_Initialize:	
  1471                           ; 1 bytes @ 0x0
  1472                           
  1473  0023                     ??_OSCILLATOR_Initialize:	
  1474                           ; 1 bytes @ 0x0
  1475                           
  1476  0023                     ??_WDT_Initialize:	
  1477                           ; 1 bytes @ 0x0
  1478                           
  1479  0023                     ??_TMR2_Initialize:	
  1480                           ; 1 bytes @ 0x0
  1481                           
  1482  0023                     ??_EPWM1_Initialize:	
  1483                           ; 1 bytes @ 0x0
  1484                           
  1485  0023                     TMR0_SetInterruptHandler@InterruptHandler:	
  1486                           ; 1 bytes @ 0x0
  1487                           
  1488                           
  1489                           ; 2 bytes @ 0x0
  1490  0023                     	ds	2
  1491  0025                     ??_TMR0_SetInterruptHandler:
  1492  0025                     ??_TMR0_Initialize:	
  1493                           ; 1 bytes @ 0x2
  1494                           
  1495                           
  1496                           ; 1 bytes @ 0x2
  1497  0025                     	ds	1
  1498  0026                     ??_SYSTEM_Initialize:
  1499  0026                     ??_main:	
  1500                           ; 1 bytes @ 0x3
  1501                           
  1502                           
  1503                           	psect	maintext
  1504  01AD                     __pmaintext:	
  1505                           ; 1 bytes @ 0x3
  1506 ;;
  1507 ;;Main: autosize = 0, tempsize = 0, incstack = 0, save=0
  1508 ;;
  1509 ;; *************** function _main *****************
  1510 ;; Defined at:
  1511 ;;		line 48 in file "main.c"
  1512 ;; Parameters:    Size  Location     Type
  1513 ;;		None
  1514 ;; Auto vars:     Size  Location     Type
  1515 ;;		None
  1516 ;; Return value:  Size  Location     Type
  1517 ;;                  1    wreg      void 
  1518 ;; Registers used:
  1519 ;;		wreg, status,2, status,0, pclath, cstack
  1520 ;; Tracked objects:
  1521 ;;		On entry : B1F/0
  1522 ;;		On exit  : 0/0
  1523 ;;		Unchanged: 0/0
  1524 ;; Data sizes:     COMMON   BANK0   BANK1   BANK2   BANK3   BANK4
  1525 ;;      Params:         0       0       0       0       0       0
  1526 ;;      Locals:         0       0       0       0       0       0
  1527 ;;      Temps:          0       0       0       0       0       0
  1528 ;;      Totals:         0       0       0       0       0       0
  1529 ;;Total ram usage:        0 bytes
  1530 ;; Hardware stack levels required when called: 6
  1531 ;; This function calls:
  1532 ;;		_EPWM1_Initialize
  1533 ;;		_SYSTEM_Initialize
  1534 ;; This function is called by:
  1535 ;;		Startup code after reset
  1536 ;; This function uses a non-reentrant model
  1537 ;;
  1538                           
  1539  01AD                     _main:	
  1540                           ;psect for function _main
  1541                           
  1542  01AD                     l1206:	
  1543                           ;incstack = 0
  1544                           ; Regs used in _main: [wreg+status,2+status,0+pclath+cstack]
  1545                           
  1546                           
  1547                           ;main.c: 51:     SYSTEM_Initialize();
  1548  01AD  3181  218C  3181   	fcall	_SYSTEM_Initialize
  1549                           
  1550                           ;main.c: 52:     EPWM1_Initialize();
  1551  01B0  3181  219F  3181   	fcall	_EPWM1_Initialize
  1552  01B3                     l1208:
  1553                           
  1554                           ;main.c: 57:     (INTCONbits.GIE = 1);
  1555  01B3  178B               	bsf	11,7	;volatile
  1556  01B4                     l1210:
  1557                           
  1558                           ;main.c: 60:     (INTCONbits.PEIE = 1);
  1559  01B4  170B               	bsf	11,6	;volatile
  1560  01B5                     l199:	
  1561                           ;main.c: 68:     while (1)
  1562                           
  1563  01B5                     l200:	
  1564                           ;main.c: 69:     {;main.c: 71:     }
  1565                           
  1566  01B5  29B5               	goto	l199
  1567  01B6  3180  2813         	ljmp	start
  1568  01B8                     __end_of_main:
  1569                           
  1570                           	psect	text1
  1571  018C                     __ptext1:	
  1572 ;; *************** function _SYSTEM_Initialize *****************
  1573 ;; Defined at:
  1574 ;;		line 50 in file "mcc_generated_files/mcc.c"
  1575 ;; Parameters:    Size  Location     Type
  1576 ;;		None
  1577 ;; Auto vars:     Size  Location     Type
  1578 ;;		None
  1579 ;; Return value:  Size  Location     Type
  1580 ;;                  1    wreg      void 
  1581 ;; Registers used:
  1582 ;;		wreg, status,2, status,0, pclath, cstack
  1583 ;; Tracked objects:
  1584 ;;		On entry : 0/0
  1585 ;;		On exit  : 0/0
  1586 ;;		Unchanged: 0/0
  1587 ;; Data sizes:     COMMON   BANK0   BANK1   BANK2   BANK3   BANK4
  1588 ;;      Params:         0       0       0       0       0       0
  1589 ;;      Locals:         0       0       0       0       0       0
  1590 ;;      Temps:          0       0       0       0       0       0
  1591 ;;      Totals:         0       0       0       0       0       0
  1592 ;;Total ram usage:        0 bytes
  1593 ;; Hardware stack levels used: 1
  1594 ;; Hardware stack levels required when called: 5
  1595 ;; This function calls:
  1596 ;;		_EPWM1_Initialize
  1597 ;;		_OSCILLATOR_Initialize
  1598 ;;		_PIN_MANAGER_Initialize
  1599 ;;		_TMR0_Initialize
  1600 ;;		_TMR2_Initialize
  1601 ;;		_WDT_Initialize
  1602 ;; This function is called by:
  1603 ;;		_main
  1604 ;; This function uses a non-reentrant model
  1605 ;;
  1606                           
  1607  018C                     _SYSTEM_Initialize:	
  1608                           ;psect for function _SYSTEM_Initialize
  1609                           
  1610  018C                     l1204:	
  1611                           ;incstack = 0
  1612                           ; Regs used in _SYSTEM_Initialize: [wreg+status,2+status,0+pclath+cstack]
  1613                           
  1614                           
  1615                           ;mcc_generated_files/mcc.c: 53:     PIN_MANAGER_Initialize();
  1616  018C  3181  2177  3181   	fcall	_PIN_MANAGER_Initialize
  1617                           
  1618                           ;mcc_generated_files/mcc.c: 54:     OSCILLATOR_Initialize();
  1619  018F  3181  21C0  3181   	fcall	_OSCILLATOR_Initialize
  1620                           
  1621                           ;mcc_generated_files/mcc.c: 55:     WDT_Initialize();
  1622  0192  3181  21CD  3181   	fcall	_WDT_Initialize
  1623                           
  1624                           ;mcc_generated_files/mcc.c: 56:     EPWM1_Initialize();
  1625  0195  3181  219F  3181   	fcall	_EPWM1_Initialize
  1626                           
  1627                           ;mcc_generated_files/mcc.c: 57:     TMR2_Initialize();
  1628  0198  3181  21B8  3181   	fcall	_TMR2_Initialize
  1629                           
  1630                           ;mcc_generated_files/mcc.c: 58:     TMR0_Initialize();
  1631  019B  3181  2161  3181   	fcall	_TMR0_Initialize
  1632  019E                     l143:
  1633  019E  0008               	return
  1634  019F                     __end_of_SYSTEM_Initialize:
  1635                           
  1636                           	psect	text2
  1637  01CD                     __ptext2:	
  1638 ;; *************** function _WDT_Initialize *****************
  1639 ;; Defined at:
  1640 ;;		line 71 in file "mcc_generated_files/mcc.c"
  1641 ;; Parameters:    Size  Location     Type
  1642 ;;		None
  1643 ;; Auto vars:     Size  Location     Type
  1644 ;;		None
  1645 ;; Return value:  Size  Location     Type
  1646 ;;                  1    wreg      void 
  1647 ;; Registers used:
  1648 ;;		wreg
  1649 ;; Tracked objects:
  1650 ;;		On entry : 0/0
  1651 ;;		On exit  : 0/0
  1652 ;;		Unchanged: 0/0
  1653 ;; Data sizes:     COMMON   BANK0   BANK1   BANK2   BANK3   BANK4
  1654 ;;      Params:         0       0       0       0       0       0
  1655 ;;      Locals:         0       0       0       0       0       0
  1656 ;;      Temps:          0       0       0       0       0       0
  1657 ;;      Totals:         0       0       0       0       0       0
  1658 ;;Total ram usage:        0 bytes
  1659 ;; Hardware stack levels used: 1
  1660 ;; Hardware stack levels required when called: 3
  1661 ;; This function calls:
  1662 ;;		Nothing
  1663 ;; This function is called by:
  1664 ;;		_SYSTEM_Initialize
  1665 ;; This function uses a non-reentrant model
  1666 ;;
  1667                           
  1668  01CD                     _WDT_Initialize:	
  1669                           ;psect for function _WDT_Initialize
  1670                           
  1671  01CD                     l1202:	
  1672                           ;incstack = 0
  1673                           ; Regs used in _WDT_Initialize: [wreg]
  1674                           
  1675                           
  1676                           ;mcc_generated_files/mcc.c: 74:     WDTCON = 0x16;
  1677  01CD  3016               	movlw	22
  1678  01CE  0021               	movlb	1	; select bank1
  1679  01CF  0097               	movwf	23	;volatile
  1680  01D0                     l149:
  1681  01D0  0008               	return
  1682  01D1                     __end_of_WDT_Initialize:
  1683                           
  1684                           	psect	text3
  1685  01B8                     __ptext3:	
  1686 ;; *************** function _TMR2_Initialize *****************
  1687 ;; Defined at:
  1688 ;;		line 62 in file "mcc_generated_files/tmr2.c"
  1689 ;; Parameters:    Size  Location     Type
  1690 ;;		None
  1691 ;; Auto vars:     Size  Location     Type
  1692 ;;		None
  1693 ;; Return value:  Size  Location     Type
  1694 ;;                  1    wreg      void 
  1695 ;; Registers used:
  1696 ;;		wreg, status,2
  1697 ;; Tracked objects:
  1698 ;;		On entry : 0/0
  1699 ;;		On exit  : 0/0
  1700 ;;		Unchanged: 0/0
  1701 ;; Data sizes:     COMMON   BANK0   BANK1   BANK2   BANK3   BANK4
  1702 ;;      Params:         0       0       0       0       0       0
  1703 ;;      Locals:         0       0       0       0       0       0
  1704 ;;      Temps:          0       0       0       0       0       0
  1705 ;;      Totals:         0       0       0       0       0       0
  1706 ;;Total ram usage:        0 bytes
  1707 ;; Hardware stack levels used: 1
  1708 ;; Hardware stack levels required when called: 3
  1709 ;; This function calls:
  1710 ;;		Nothing
  1711 ;; This function is called by:
  1712 ;;		_SYSTEM_Initialize
  1713 ;; This function uses a non-reentrant model
  1714 ;;
  1715                           
  1716  01B8                     _TMR2_Initialize:	
  1717                           ;psect for function _TMR2_Initialize
  1718                           
  1719  01B8                     l1158:	
  1720                           ;incstack = 0
  1721                           ; Regs used in _TMR2_Initialize: [wreg+status,2]
  1722                           
  1723                           
  1724                           ;mcc_generated_files/tmr2.c: 67:     PR2 = 0x9B;
  1725  01B8  309B               	movlw	155
  1726  01B9  0020               	movlb	0	; select bank0
  1727  01BA  009B               	movwf	27	;volatile
  1728  01BB                     l1160:
  1729                           
  1730                           ;mcc_generated_files/tmr2.c: 70:     TMR2 = 0x00;
  1731  01BB  019A               	clrf	26	;volatile
  1732  01BC                     l1162:
  1733                           
  1734                           ;mcc_generated_files/tmr2.c: 73:     PIR1bits.TMR2IF = 0;
  1735  01BC  1091               	bcf	17,1	;volatile
  1736  01BD                     l1164:
  1737                           
  1738                           ;mcc_generated_files/tmr2.c: 76:     T2CON = 0x07;
  1739  01BD  3007               	movlw	7
  1740  01BE  009C               	movwf	28	;volatile
  1741  01BF                     l81:
  1742  01BF  0008               	return
  1743  01C0                     __end_of_TMR2_Initialize:
  1744                           
  1745                           	psect	text4
  1746  0161                     __ptext4:	
  1747 ;; *************** function _TMR0_Initialize *****************
  1748 ;; Defined at:
  1749 ;;		line 65 in file "mcc_generated_files/tmr0.c"
  1750 ;; Parameters:    Size  Location     Type
  1751 ;;		None
  1752 ;; Auto vars:     Size  Location     Type
  1753 ;;		None
  1754 ;; Return value:  Size  Location     Type
  1755 ;;                  1    wreg      void 
  1756 ;; Registers used:
  1757 ;;		wreg, status,2, status,0, pclath, cstack
  1758 ;; Tracked objects:
  1759 ;;		On entry : 0/0
  1760 ;;		On exit  : 0/0
  1761 ;;		Unchanged: 0/0
  1762 ;; Data sizes:     COMMON   BANK0   BANK1   BANK2   BANK3   BANK4
  1763 ;;      Params:         0       0       0       0       0       0
  1764 ;;      Locals:         0       0       0       0       0       0
  1765 ;;      Temps:          0       1       0       0       0       0
  1766 ;;      Totals:         0       1       0       0       0       0
  1767 ;;Total ram usage:        1 bytes
  1768 ;; Hardware stack levels used: 1
  1769 ;; Hardware stack levels required when called: 4
  1770 ;; This function calls:
  1771 ;;		_TMR0_SetInterruptHandler
  1772 ;; This function is called by:
  1773 ;;		_SYSTEM_Initialize
  1774 ;; This function uses a non-reentrant model
  1775 ;;
  1776                           
  1777  0161                     _TMR0_Initialize:	
  1778                           ;psect for function _TMR0_Initialize
  1779                           
  1780  0161                     l1146:	
  1781                           ;incstack = 0
  1782                           ; Regs used in _TMR0_Initialize: [wreg+status,2+status,0+pclath+cstack]
  1783                           
  1784                           
  1785                           ;mcc_generated_files/tmr0.c: 70:     OPTION_REG = (uint8_t)((OPTION_REG & 0xC0) | (0xD7 
      +                          & 0x3F));
  1786  0161  0021               	movlb	1	; select bank1
  1787  0162  0815               	movf	21,w	;volatile
  1788  0163  39C0               	andlw	192
  1789  0164  3817               	iorlw	23
  1790  0165  0095               	movwf	21	;volatile
  1791  0166                     l1148:
  1792                           
  1793                           ;mcc_generated_files/tmr0.c: 73:     TMR0 = 0xFE;
  1794  0166  30FE               	movlw	254
  1795  0167  0020               	movlb	0	; select bank0
  1796  0168  0095               	movwf	21	;volatile
  1797  0169                     l1150:
  1798                           
  1799                           ;mcc_generated_files/tmr0.c: 76:     timer0ReloadVal= 254;
  1800  0169  30FE               	movlw	254
  1801  016A  00A5               	movwf	??_TMR0_Initialize
  1802  016B  0825               	movf	??_TMR0_Initialize,w
  1803  016C  00A2               	movwf	_timer0ReloadVal	;volatile
  1804  016D                     l1152:
  1805                           
  1806                           ;mcc_generated_files/tmr0.c: 79:     INTCONbits.TMR0IF = 0;
  1807  016D  110B               	bcf	11,2	;volatile
  1808  016E                     l1154:
  1809                           
  1810                           ;mcc_generated_files/tmr0.c: 82:     INTCONbits.TMR0IE = 1;
  1811  016E  168B               	bsf	11,5	;volatile
  1812  016F                     l1156:
  1813                           
  1814                           ;mcc_generated_files/tmr0.c: 85:     TMR0_SetInterruptHandler(TMR0_DefaultInterruptHandl
      +                          er);
  1815  016F  30D3               	movlw	low _TMR0_DefaultInterruptHandler
  1816  0170  00A3               	movwf	TMR0_SetInterruptHandler@InterruptHandler
  1817  0171  3001               	movlw	high _TMR0_DefaultInterruptHandler
  1818  0172  00A4               	movwf	TMR0_SetInterruptHandler@InterruptHandler+1
  1819  0173  3181  21C7  3181   	fcall	_TMR0_SetInterruptHandler
  1820  0176                     l25:
  1821  0176  0008               	return
  1822  0177                     __end_of_TMR0_Initialize:
  1823                           
  1824                           	psect	text5
  1825  01C7                     __ptext5:	
  1826 ;; *************** function _TMR0_SetInterruptHandler *****************
  1827 ;; Defined at:
  1828 ;;		line 165 in file "mcc_generated_files/tmr0.c"
  1829 ;; Parameters:    Size  Location     Type
  1830 ;;  InterruptHan    2    0[BANK0 ] PTR FTN()void 
  1831 ;;		 -> TMR0_DefaultInterruptHandler(1), 
  1832 ;; Auto vars:     Size  Location     Type
  1833 ;;		None
  1834 ;; Return value:  Size  Location     Type
  1835 ;;                  1    wreg      void 
  1836 ;; Registers used:
  1837 ;;		wreg
  1838 ;; Tracked objects:
  1839 ;;		On entry : 0/0
  1840 ;;		On exit  : 0/0
  1841 ;;		Unchanged: 0/0
  1842 ;; Data sizes:     COMMON   BANK0   BANK1   BANK2   BANK3   BANK4
  1843 ;;      Params:         0       2       0       0       0       0
  1844 ;;      Locals:         0       0       0       0       0       0
  1845 ;;      Temps:          0       0       0       0       0       0
  1846 ;;      Totals:         0       2       0       0       0       0
  1847 ;;Total ram usage:        2 bytes
  1848 ;; Hardware stack levels used: 1
  1849 ;; Hardware stack levels required when called: 3
  1850 ;; This function calls:
  1851 ;;		Nothing
  1852 ;; This function is called by:
  1853 ;;		_TMR0_Initialize
  1854 ;; This function uses a non-reentrant model
  1855 ;;
  1856                           
  1857  01C7                     _TMR0_SetInterruptHandler:	
  1858                           ;psect for function _TMR0_SetInterruptHandler
  1859                           
  1860  01C7                     l1144:	
  1861                           ;incstack = 0
  1862                           ; Regs used in _TMR0_SetInterruptHandler: [wreg]
  1863                           
  1864                           
  1865                           ;mcc_generated_files/tmr0.c: 166:     TMR0_InterruptHandler = InterruptHandler;
  1866  01C7  0020               	movlb	0	; select bank0
  1867  01C8  0824               	movf	TMR0_SetInterruptHandler@InterruptHandler+1,w
  1868  01C9  00A1               	movwf	_TMR0_InterruptHandler+1
  1869  01CA  0823               	movf	TMR0_SetInterruptHandler@InterruptHandler,w
  1870  01CB  00A0               	movwf	_TMR0_InterruptHandler
  1871  01CC                     l65:
  1872  01CC  0008               	return
  1873  01CD                     __end_of_TMR0_SetInterruptHandler:
  1874                           
  1875                           	psect	text6
  1876  0177                     __ptext6:	
  1877 ;; *************** function _PIN_MANAGER_Initialize *****************
  1878 ;; Defined at:
  1879 ;;		line 55 in file "mcc_generated_files/pin_manager.c"
  1880 ;; Parameters:    Size  Location     Type
  1881 ;;		None
  1882 ;; Auto vars:     Size  Location     Type
  1883 ;;		None
  1884 ;; Return value:  Size  Location     Type
  1885 ;;                  1    wreg      void 
  1886 ;; Registers used:
  1887 ;;		wreg, status,2
  1888 ;; Tracked objects:
  1889 ;;		On entry : 0/0
  1890 ;;		On exit  : 0/0
  1891 ;;		Unchanged: 0/0
  1892 ;; Data sizes:     COMMON   BANK0   BANK1   BANK2   BANK3   BANK4
  1893 ;;      Params:         0       0       0       0       0       0
  1894 ;;      Locals:         0       0       0       0       0       0
  1895 ;;      Temps:          0       0       0       0       0       0
  1896 ;;      Totals:         0       0       0       0       0       0
  1897 ;;Total ram usage:        0 bytes
  1898 ;; Hardware stack levels used: 1
  1899 ;; Hardware stack levels required when called: 3
  1900 ;; This function calls:
  1901 ;;		Nothing
  1902 ;; This function is called by:
  1903 ;;		_SYSTEM_Initialize
  1904 ;; This function uses a non-reentrant model
  1905 ;;
  1906                           
  1907  0177                     _PIN_MANAGER_Initialize:	
  1908                           ;psect for function _PIN_MANAGER_Initialize
  1909                           
  1910  0177                     l1178:	
  1911                           ;incstack = 0
  1912                           ; Regs used in _PIN_MANAGER_Initialize: [wreg+status,2]
  1913                           
  1914                           
  1915                           ;mcc_generated_files/pin_manager.c: 60:     LATA = 0x00;
  1916  0177  0022               	movlb	2	; select bank2
  1917  0178  018C               	clrf	12	;volatile
  1918                           
  1919                           ;mcc_generated_files/pin_manager.c: 61:     LATB = 0x00;
  1920  0179  018D               	clrf	13	;volatile
  1921  017A                     l1180:
  1922                           
  1923                           ;mcc_generated_files/pin_manager.c: 66:     TRISA = 0xFF;
  1924  017A  30FF               	movlw	255
  1925  017B  0021               	movlb	1	; select bank1
  1926  017C  008C               	movwf	12	;volatile
  1927  017D                     l1182:
  1928                           
  1929                           ;mcc_generated_files/pin_manager.c: 67:     TRISB = 0x01;
  1930  017D  3001               	movlw	1
  1931  017E  008D               	movwf	13	;volatile
  1932                           
  1933                           ;mcc_generated_files/pin_manager.c: 72:     ANSELB = 0x00;
  1934  017F  0023               	movlb	3	; select bank3
  1935  0180  018D               	clrf	13	;volatile
  1936  0181                     l1184:
  1937                           
  1938                           ;mcc_generated_files/pin_manager.c: 73:     ANSELA = 0x03;
  1939  0181  3003               	movlw	3
  1940  0182  008C               	movwf	12	;volatile
  1941  0183                     l1186:
  1942                           
  1943                           ;mcc_generated_files/pin_manager.c: 78:     WPUB = 0x00;
  1944  0183  0024               	movlb	4	; select bank4
  1945  0184  018D               	clrf	13	;volatile
  1946  0185                     l1188:
  1947                           
  1948                           ;mcc_generated_files/pin_manager.c: 79:     WPUA = 0x00;
  1949  0185  018C               	clrf	12	;volatile
  1950  0186                     l1190:
  1951                           
  1952                           ;mcc_generated_files/pin_manager.c: 80:     OPTION_REGbits.nWPUEN = 1;
  1953  0186  0021               	movlb	1	; select bank1
  1954  0187  1795               	bsf	21,7	;volatile
  1955  0188                     l1192:
  1956                           
  1957                           ;mcc_generated_files/pin_manager.c: 86:     APFCON0 = 0x00;
  1958  0188  0022               	movlb	2	; select bank2
  1959  0189  019D               	clrf	29	;volatile
  1960  018A                     l1194:
  1961                           
  1962                           ;mcc_generated_files/pin_manager.c: 87:     APFCON1 = 0x00;
  1963  018A  019E               	clrf	30	;volatile
  1964  018B                     l185:
  1965  018B  0008               	return
  1966  018C                     __end_of_PIN_MANAGER_Initialize:
  1967                           
  1968                           	psect	text7
  1969  01C0                     __ptext7:	
  1970 ;; *************** function _OSCILLATOR_Initialize *****************
  1971 ;; Defined at:
  1972 ;;		line 61 in file "mcc_generated_files/mcc.c"
  1973 ;; Parameters:    Size  Location     Type
  1974 ;;		None
  1975 ;; Auto vars:     Size  Location     Type
  1976 ;;		None
  1977 ;; Return value:  Size  Location     Type
  1978 ;;                  1    wreg      void 
  1979 ;; Registers used:
  1980 ;;		wreg, status,2
  1981 ;; Tracked objects:
  1982 ;;		On entry : 0/0
  1983 ;;		On exit  : 0/0
  1984 ;;		Unchanged: 0/0
  1985 ;; Data sizes:     COMMON   BANK0   BANK1   BANK2   BANK3   BANK4
  1986 ;;      Params:         0       0       0       0       0       0
  1987 ;;      Locals:         0       0       0       0       0       0
  1988 ;;      Temps:          0       0       0       0       0       0
  1989 ;;      Totals:         0       0       0       0       0       0
  1990 ;;Total ram usage:        0 bytes
  1991 ;; Hardware stack levels used: 1
  1992 ;; Hardware stack levels required when called: 3
  1993 ;; This function calls:
  1994 ;;		Nothing
  1995 ;; This function is called by:
  1996 ;;		_SYSTEM_Initialize
  1997 ;; This function uses a non-reentrant model
  1998 ;;
  1999                           
  2000  01C0                     _OSCILLATOR_Initialize:	
  2001                           ;psect for function _OSCILLATOR_Initialize
  2002                           
  2003  01C0                     l1196:	
  2004                           ;incstack = 0
  2005                           ; Regs used in _OSCILLATOR_Initialize: [wreg+status,2]
  2006                           
  2007                           
  2008                           ;mcc_generated_files/mcc.c: 64:     OSCCON = 0x62;
  2009  01C0  3062               	movlw	98
  2010  01C1  0021               	movlb	1	; select bank1
  2011  01C2  0099               	movwf	25	;volatile
  2012  01C3                     l1198:
  2013                           
  2014                           ;mcc_generated_files/mcc.c: 66:     OSCTUNE = 0x00;
  2015  01C3  0198               	clrf	24	;volatile
  2016  01C4                     l1200:
  2017                           
  2018                           ;mcc_generated_files/mcc.c: 68:     BORCON = 0x00;
  2019  01C4  0022               	movlb	2	; select bank2
  2020  01C5  0196               	clrf	22	;volatile
  2021  01C6                     l146:
  2022  01C6  0008               	return
  2023  01C7                     __end_of_OSCILLATOR_Initialize:
  2024                           
  2025                           	psect	text8
  2026  019F                     __ptext8:	
  2027 ;; *************** function _EPWM1_Initialize *****************
  2028 ;; Defined at:
  2029 ;;		line 64 in file "mcc_generated_files/epwm1.c"
  2030 ;; Parameters:    Size  Location     Type
  2031 ;;		None
  2032 ;; Auto vars:     Size  Location     Type
  2033 ;;		None
  2034 ;; Return value:  Size  Location     Type
  2035 ;;                  1    wreg      void 
  2036 ;; Registers used:
  2037 ;;		wreg, status,2, status,0
  2038 ;; Tracked objects:
  2039 ;;		On entry : 0/0
  2040 ;;		On exit  : 0/0
  2041 ;;		Unchanged: 0/0
  2042 ;; Data sizes:     COMMON   BANK0   BANK1   BANK2   BANK3   BANK4
  2043 ;;      Params:         0       0       0       0       0       0
  2044 ;;      Locals:         0       0       0       0       0       0
  2045 ;;      Temps:          0       0       0       0       0       0
  2046 ;;      Totals:         0       0       0       0       0       0
  2047 ;;Total ram usage:        0 bytes
  2048 ;; Hardware stack levels used: 1
  2049 ;; Hardware stack levels required when called: 3
  2050 ;; This function calls:
  2051 ;;		Nothing
  2052 ;; This function is called by:
  2053 ;;		_SYSTEM_Initialize
  2054 ;;		_main
  2055 ;; This function uses a non-reentrant model
  2056 ;;
  2057                           
  2058  019F                     _EPWM1_Initialize:	
  2059                           ;psect for function _EPWM1_Initialize
  2060                           
  2061  019F                     l1166:	
  2062                           ;incstack = 0
  2063                           ; Regs used in _EPWM1_Initialize: [wreg+status,2+status,0]
  2064                           
  2065                           
  2066                           ;mcc_generated_files/epwm1.c: 69:  CCP1CON = 0x3C;
  2067  019F  303C               	movlw	60
  2068  01A0  0025               	movlb	5	; select bank5
  2069  01A1  0093               	movwf	19	;volatile
  2070  01A2                     l1168:
  2071                           
  2072                           ;mcc_generated_files/epwm1.c: 72:  ECCP1AS = 0x00;
  2073  01A2  0195               	clrf	21	;volatile
  2074  01A3                     l1170:
  2075                           
  2076                           ;mcc_generated_files/epwm1.c: 75:  PWM1CON = 0x80;
  2077  01A3  3080               	movlw	128
  2078  01A4  0094               	movwf	20	;volatile
  2079  01A5                     l1172:
  2080                           
  2081                           ;mcc_generated_files/epwm1.c: 78:  PSTR1CON = 0x01;
  2082  01A5  3001               	movlw	1
  2083  01A6  0096               	movwf	22	;volatile
  2084  01A7                     l1174:
  2085                           
  2086                           ;mcc_generated_files/epwm1.c: 81:  CCPR1H = 0x00;
  2087  01A7  0192               	clrf	18	;volatile
  2088                           
  2089                           ;mcc_generated_files/epwm1.c: 84:  CCPR1L = 0x4D;
  2090  01A8  304D               	movlw	77
  2091  01A9  0091               	movwf	17	;volatile
  2092  01AA                     l1176:
  2093                           
  2094                           ;mcc_generated_files/epwm1.c: 87:  CCPTMRS0bits.C1TSEL = 0x0;
  2095  01AA  30FC               	movlw	-4
  2096  01AB  059E               	andwf	30,f	;volatile
  2097  01AC                     l117:
  2098  01AC  0008               	return
  2099  01AD                     __end_of_EPWM1_Initialize:
  2100                           
  2101                           	psect	intentry
  2102  0004                     __pintentry:	
  2103 ;; *************** function _INTERRUPT_InterruptManager *****************
  2104 ;; Defined at:
  2105 ;;		line 52 in file "mcc_generated_files/interrupt_manager.c"
  2106 ;; Parameters:    Size  Location     Type
  2107 ;;		None
  2108 ;; Auto vars:     Size  Location     Type
  2109 ;;		None
  2110 ;; Return value:  Size  Location     Type
  2111 ;;                  1    wreg      void 
  2112 ;; Registers used:
  2113 ;;		wreg, status,2, status,0, pclath, cstack
  2114 ;; Tracked objects:
  2115 ;;		On entry : 0/0
  2116 ;;		On exit  : 0/0
  2117 ;;		Unchanged: 0/0
  2118 ;; Data sizes:     COMMON   BANK0   BANK1   BANK2   BANK3   BANK4
  2119 ;;      Params:         0       0       0       0       0       0
  2120 ;;      Locals:         0       0       0       0       0       0
  2121 ;;      Temps:          0       0       0       0       0       0
  2122 ;;      Totals:         0       0       0       0       0       0
  2123 ;;Total ram usage:        0 bytes
  2124 ;; Hardware stack levels used: 1
  2125 ;; Hardware stack levels required when called: 2
  2126 ;; This function calls:
  2127 ;;		_TMR0_ISR
  2128 ;; This function is called by:
  2129 ;;		Interrupt level 1
  2130 ;; This function uses a non-reentrant model
  2131 ;;
  2132                           
  2133  0004                     _INTERRUPT_InterruptManager:
  2134                           
  2135                           ;incstack = 0
  2136  0004  147E               	bsf	int$flags,0	;set compiler interrupt flag (level 1)
  2137                           
  2138                           ; Regs used in _INTERRUPT_InterruptManager: [wreg+status,2+status,0+pclath+cstack]
  2139  0005  3180               	pagesel	$
  2140  0006                     i1l1132:
  2141                           
  2142                           ;mcc_generated_files/interrupt_manager.c: 55:     if(INTCONbits.TMR0IE == 1 && INTCONbit
      +                          s.TMR0IF == 1)
  2143  0006  1E8B               	btfss	11,5	;volatile
  2144  0007  2809               	goto	u60_21
  2145  0008  280A               	goto	u60_20
  2146  0009                     u60_21:
  2147  0009  2811               	goto	i1l160
  2148  000A                     u60_20:
  2149  000A                     i1l1134:
  2150  000A  1D0B               	btfss	11,2	;volatile
  2151  000B  280D               	goto	u61_21
  2152  000C  280E               	goto	u61_20
  2153  000D                     u61_21:
  2154  000D  2811               	goto	i1l160
  2155  000E                     u61_20:
  2156  000E                     i1l1136:
  2157                           
  2158                           ;mcc_generated_files/interrupt_manager.c: 56:     {;mcc_generated_files/interrupt_manage
      +                          r.c: 57:         TMR0_ISR();
  2159  000E  3180  2025  3180   	fcall	_TMR0_ISR
  2160  0011                     i1l160:	
  2161                           ;mcc_generated_files/interrupt_manager.c: 58:     }
  2162                           
  2163  0011  107E               	bcf	int$flags,0	;clear compiler interrupt flag (level 1)
  2164  0012  0009               	retfie
  2165  0013                     __end_of_INTERRUPT_InterruptManager:
  2166                           
  2167                           	psect	text10
  2168  0025                     __ptext10:	
  2169 ;; *************** function _TMR0_ISR *****************
  2170 ;; Defined at:
  2171 ;;		line 112 in file "mcc_generated_files/tmr0.c"
  2172 ;; Parameters:    Size  Location     Type
  2173 ;;		None
  2174 ;; Auto vars:     Size  Location     Type
  2175 ;;		None
  2176 ;; Return value:  Size  Location     Type
  2177 ;;                  1    wreg      void 
  2178 ;; Registers used:
  2179 ;;		wreg, status,2, status,0, pclath, cstack
  2180 ;; Tracked objects:
  2181 ;;		On entry : 0/0
  2182 ;;		On exit  : 0/0
  2183 ;;		Unchanged: 0/0
  2184 ;; Data sizes:     COMMON   BANK0   BANK1   BANK2   BANK3   BANK4
  2185 ;;      Params:         0       0       0       0       0       0
  2186 ;;      Locals:         0       0       0       0       0       0
  2187 ;;      Temps:          2       0       0       0       0       0
  2188 ;;      Totals:         2       0       0       0       0       0
  2189 ;;Total ram usage:        2 bytes
  2190 ;; Hardware stack levels used: 1
  2191 ;; Hardware stack levels required when called: 1
  2192 ;; This function calls:
  2193 ;;		Absolute function
  2194 ;;		_EPWM1_LoadDutyValue
  2195 ;;		_TMR0_DefaultInterruptHandler
  2196 ;; This function is called by:
  2197 ;;		_INTERRUPT_InterruptManager
  2198 ;; This function uses a non-reentrant model
  2199 ;;
  2200                           
  2201  0025                     _TMR0_ISR:	
  2202                           ;psect for function _TMR0_ISR
  2203                           
  2204  0025                     i1l1028:	
  2205                           ;incstack = 0
  2206                           ; Regs used in _TMR0_ISR: [wreg+status,2+status,0+pclath+cstack]
  2207                           
  2208                           
  2209                           ;mcc_generated_files/tmr0.c: 116:     INTCONbits.TMR0IF = 0;
  2210  0025  110B               	bcf	11,2	;volatile
  2211  0026                     i1l1030:
  2212                           
  2213                           ;mcc_generated_files/tmr0.c: 118:     TMR0 = timer0ReloadVal;
  2214  0026  0020               	movlb	0	; select bank0
  2215  0027  0822               	movf	_timer0ReloadVal,w	;volatile
  2216  0028  0095               	movwf	21	;volatile
  2217  0029                     i1l1032:
  2218                           
  2219                           ;mcc_generated_files/tmr0.c: 120:     if(TMR0_InterruptHandler)
  2220  0029  0820               	movf	_TMR0_InterruptHandler,w
  2221  002A  0421               	iorwf	_TMR0_InterruptHandler+1,w
  2222  002B  1903               	btfsc	3,2
  2223  002C  282E               	goto	u33_21
  2224  002D  282F               	goto	u33_20
  2225  002E                     u33_21:
  2226  002E  2834               	goto	i1l1036
  2227  002F                     u33_20:
  2228  002F                     i1l1034:
  2229                           
  2230                           ;mcc_generated_files/tmr0.c: 121:     {;mcc_generated_files/tmr0.c: 122:         TMR0_In
      +                          terruptHandler();
  2231  002F  0821               	movf	_TMR0_InterruptHandler+1,w
  2232  0030  008A               	movwf	10
  2233  0031  0820               	movf	_TMR0_InterruptHandler,w
  2234  0032  000A               	callw
  2235  0033  3180               	pagesel	$
  2236  0034                     i1l1036:
  2237                           
  2238                           ;mcc_generated_files/tmr0.c: 128:       PSTR1CON = 0x01;
  2239  0034  3001               	movlw	1
  2240  0035  0025               	movlb	5	; select bank5
  2241  0036  0096               	movwf	22	;volatile
  2242  0037                     i1l1038:
  2243                           
  2244                           ;mcc_generated_files/tmr0.c: 131:       if(PORTAbits.RA2==1 && PORTAbits.RA3==0 && PORTA
      +                          bits.RA4==0){a=1;}
  2245  0037  0020               	movlb	0	; select bank0
  2246  0038  1D0C               	btfss	12,2	;volatile
  2247  0039  283B               	goto	u34_21
  2248  003A  283C               	goto	u34_20
  2249  003B                     u34_21:
  2250  003B  2848               	goto	i1l1046
  2251  003C                     u34_20:
  2252  003C                     i1l1040:
  2253  003C  198C               	btfsc	12,3	;volatile
  2254  003D  283F               	goto	u35_21
  2255  003E  2840               	goto	u35_20
  2256  003F                     u35_21:
  2257  003F  2848               	goto	i1l1046
  2258  0040                     u35_20:
  2259  0040                     i1l1042:
  2260  0040  1A0C               	btfsc	12,4	;volatile
  2261  0041  2843               	goto	u36_21
  2262  0042  2844               	goto	u36_20
  2263  0043                     u36_21:
  2264  0043  2848               	goto	i1l1046
  2265  0044                     u36_20:
  2266  0044                     i1l1044:
  2267  0044  3001               	movlw	1
  2268  0045  00F8               	movwf	_a
  2269  0046  3000               	movlw	0
  2270  0047  00F9               	movwf	_a+1
  2271  0048                     i1l1046:
  2272                           
  2273                           ;mcc_generated_files/tmr0.c: 132:       if(PORTAbits.RA2==0 && PORTAbits.RA3==1 && PORTA
      +                          bits.RA4==0){a=2;}
  2274  0048  190C               	btfsc	12,2	;volatile
  2275  0049  284B               	goto	u37_21
  2276  004A  284C               	goto	u37_20
  2277  004B                     u37_21:
  2278  004B  2858               	goto	i1l1054
  2279  004C                     u37_20:
  2280  004C                     i1l1048:
  2281  004C  1D8C               	btfss	12,3	;volatile
  2282  004D  284F               	goto	u38_21
  2283  004E  2850               	goto	u38_20
  2284  004F                     u38_21:
  2285  004F  2858               	goto	i1l1054
  2286  0050                     u38_20:
  2287  0050                     i1l1050:
  2288  0050  1A0C               	btfsc	12,4	;volatile
  2289  0051  2853               	goto	u39_21
  2290  0052  2854               	goto	u39_20
  2291  0053                     u39_21:
  2292  0053  2858               	goto	i1l1054
  2293  0054                     u39_20:
  2294  0054                     i1l1052:
  2295  0054  3002               	movlw	2
  2296  0055  00F8               	movwf	_a
  2297  0056  3000               	movlw	0
  2298  0057  00F9               	movwf	_a+1
  2299  0058                     i1l1054:
  2300                           
  2301                           ;mcc_generated_files/tmr0.c: 133:       if(PORTAbits.RA2==0 && PORTAbits.RA3==0 && PORTA
      +                          bits.RA4==1){a=3;}
  2302  0058  190C               	btfsc	12,2	;volatile
  2303  0059  285B               	goto	u40_21
  2304  005A  285C               	goto	u40_20
  2305  005B                     u40_21:
  2306  005B  28A0               	goto	i1l1080
  2307  005C                     u40_20:
  2308  005C                     i1l1056:
  2309  005C  198C               	btfsc	12,3	;volatile
  2310  005D  285F               	goto	u41_21
  2311  005E  2860               	goto	u41_20
  2312  005F                     u41_21:
  2313  005F  28A0               	goto	i1l1080
  2314  0060                     u41_20:
  2315  0060                     i1l1058:
  2316  0060  1E0C               	btfss	12,4	;volatile
  2317  0061  2863               	goto	u42_21
  2318  0062  2864               	goto	u42_20
  2319  0063                     u42_21:
  2320  0063  28A0               	goto	i1l1080
  2321  0064                     u42_20:
  2322  0064                     i1l1060:
  2323  0064  3003               	movlw	3
  2324  0065  00F8               	movwf	_a
  2325  0066  3000               	movlw	0
  2326  0067  00F9               	movwf	_a+1
  2327  0068  28A0               	goto	i1l1080
  2328  0069                     i1l1062:
  2329                           
  2330                           ;mcc_generated_files/tmr0.c: 135:           t=t+1;
  2331  0069  0876               	movf	_t,w
  2332  006A  3E01               	addlw	1
  2333  006B  00F6               	movwf	_t
  2334  006C  3000               	movlw	0
  2335  006D  3D77               	addwfc	_t+1,w
  2336  006E  00F7               	movwf	_t+1
  2337  006F                     i1l1064:
  2338                           
  2339                           ;mcc_generated_files/tmr0.c: 136:           if(t>=100){
  2340  006F  0877               	movf	_t+1,w
  2341  0070  3A80               	xorlw	128
  2342  0071  00F4               	movwf	??_TMR0_ISR
  2343  0072  3080               	movlw	128
  2344  0073  0274               	subwf	??_TMR0_ISR,w
  2345  0074  1D03               	skipz
  2346  0075  2878               	goto	u43_25
  2347  0076  3064               	movlw	100
  2348  0077  0276               	subwf	_t,w
  2349  0078                     u43_25:
  2350  0078  1C03               	skipc
  2351  0079  287B               	goto	u43_21
  2352  007A  287C               	goto	u43_20
  2353  007B                     u43_21:
  2354  007B  288B               	goto	i1l1072
  2355  007C                     u43_20:
  2356  007C                     i1l1066:
  2357                           
  2358                           ;mcc_generated_files/tmr0.c: 137:           duty=duty+30;
  2359  007C  087A               	movf	_duty,w
  2360  007D  3E1E               	addlw	30
  2361  007E  00FA               	movwf	_duty
  2362  007F  3000               	movlw	0
  2363  0080  3D7B               	addwfc	_duty+1,w
  2364  0081  00FB               	movwf	_duty+1
  2365  0082                     i1l1068:
  2366                           
  2367                           ;mcc_generated_files/tmr0.c: 138:           t=0;
  2368  0082  01F6               	clrf	_t
  2369  0083  01F7               	clrf	_t+1
  2370  0084                     i1l1070:
  2371                           
  2372                           ;mcc_generated_files/tmr0.c: 139:           EPWM1_LoadDutyValue(duty);
  2373  0084  087B               	movf	_duty+1,w
  2374  0085  00F1               	movwf	EPWM1_LoadDutyValue@dutyValue+1
  2375  0086  087A               	movf	_duty,w
  2376  0087  00F0               	movwf	EPWM1_LoadDutyValue@dutyValue
  2377  0088  3181  214A  3180   	fcall	_EPWM1_LoadDutyValue
  2378  008B                     i1l1072:
  2379                           
  2380                           ;mcc_generated_files/tmr0.c: 141:           if(PORTAbits.RA2==1 && PORTAbits.RA3==1 && P
      +                          ORTAbits.RA4==1){duty=16;a=4;}
  2381  008B  0020               	movlb	0	; select bank0
  2382  008C  1D0C               	btfss	12,2	;volatile
  2383  008D  288F               	goto	u44_21
  2384  008E  2890               	goto	u44_20
  2385  008F                     u44_21:
  2386  008F  28A0               	goto	i1l1080
  2387  0090                     u44_20:
  2388  0090                     i1l1074:
  2389  0090  1D8C               	btfss	12,3	;volatile
  2390  0091  2893               	goto	u45_21
  2391  0092  2894               	goto	u45_20
  2392  0093                     u45_21:
  2393  0093  28A0               	goto	i1l1080
  2394  0094                     u45_20:
  2395  0094                     i1l1076:
  2396  0094  1E0C               	btfss	12,4	;volatile
  2397  0095  2897               	goto	u46_21
  2398  0096  2898               	goto	u46_20
  2399  0097                     u46_21:
  2400  0097  28A0               	goto	i1l1080
  2401  0098                     u46_20:
  2402  0098                     i1l1078:
  2403  0098  3010               	movlw	16
  2404  0099  00FA               	movwf	_duty
  2405  009A  3000               	movlw	0
  2406  009B  00FB               	movwf	_duty+1
  2407  009C  3004               	movlw	4
  2408  009D  00F8               	movwf	_a
  2409  009E  3000               	movlw	0
  2410  009F  00F9               	movwf	_a+1
  2411  00A0                     i1l1080:
  2412                           
  2413                           ;mcc_generated_files/tmr0.c: 134:       while(a==1){
  2414  00A0  0378               	decf	_a,w
  2415  00A1  0479               	iorwf	_a+1,w
  2416  00A2  1903               	btfsc	3,2
  2417  00A3  28A5               	goto	u47_21
  2418  00A4  28A6               	goto	u47_20
  2419  00A5                     u47_21:
  2420  00A5  2869               	goto	i1l1062
  2421  00A6                     u47_20:
  2422  00A6  28EB               	goto	i1l1102
  2423  00A7                     i1l1082:
  2424                           
  2425                           ;mcc_generated_files/tmr0.c: 144:           t=t+1;
  2426  00A7  0876               	movf	_t,w
  2427  00A8  3E01               	addlw	1
  2428  00A9  00F6               	movwf	_t
  2429  00AA  3000               	movlw	0
  2430  00AB  3D77               	addwfc	_t+1,w
  2431  00AC  00F7               	movwf	_t+1
  2432  00AD                     i1l1084:
  2433                           
  2434                           ;mcc_generated_files/tmr0.c: 145:           if(t>=60 && t<=100){
  2435  00AD  0877               	movf	_t+1,w
  2436  00AE  3A80               	xorlw	128
  2437  00AF  00F4               	movwf	??_TMR0_ISR
  2438  00B0  3080               	movlw	128
  2439  00B1  0274               	subwf	??_TMR0_ISR,w
  2440  00B2  1D03               	skipz
  2441  00B3  28B6               	goto	u48_25
  2442  00B4  303C               	movlw	60
  2443  00B5  0276               	subwf	_t,w
  2444  00B6                     u48_25:
  2445  00B6  1C03               	skipc
  2446  00B7  28B9               	goto	u48_21
  2447  00B8  28BA               	goto	u48_20
  2448  00B9                     u48_21:
  2449  00B9  28D6               	goto	i1l1094
  2450  00BA                     u48_20:
  2451  00BA                     i1l1086:
  2452  00BA  0877               	movf	_t+1,w
  2453  00BB  3A80               	xorlw	128
  2454  00BC  00F4               	movwf	??_TMR0_ISR
  2455  00BD  3080               	movlw	128
  2456  00BE  0274               	subwf	??_TMR0_ISR,w
  2457  00BF  1D03               	skipz
  2458  00C0  28C3               	goto	u49_25
  2459  00C1  3065               	movlw	101
  2460  00C2  0276               	subwf	_t,w
  2461  00C3                     u49_25:
  2462  00C3  1803               	skipnc
  2463  00C4  28C6               	goto	u49_21
  2464  00C5  28C7               	goto	u49_20
  2465  00C6                     u49_21:
  2466  00C6  28D6               	goto	i1l1094
  2467  00C7                     u49_20:
  2468  00C7                     i1l1088:
  2469                           
  2470                           ;mcc_generated_files/tmr0.c: 146:           duty=duty+15;
  2471  00C7  087A               	movf	_duty,w
  2472  00C8  3E0F               	addlw	15
  2473  00C9  00FA               	movwf	_duty
  2474  00CA  3000               	movlw	0
  2475  00CB  3D7B               	addwfc	_duty+1,w
  2476  00CC  00FB               	movwf	_duty+1
  2477  00CD                     i1l1090:
  2478                           
  2479                           ;mcc_generated_files/tmr0.c: 147:           t=0;
  2480  00CD  01F6               	clrf	_t
  2481  00CE  01F7               	clrf	_t+1
  2482  00CF                     i1l1092:
  2483                           
  2484                           ;mcc_generated_files/tmr0.c: 148:           EPWM1_LoadDutyValue(duty);
  2485  00CF  087B               	movf	_duty+1,w
  2486  00D0  00F1               	movwf	EPWM1_LoadDutyValue@dutyValue+1
  2487  00D1  087A               	movf	_duty,w
  2488  00D2  00F0               	movwf	EPWM1_LoadDutyValue@dutyValue
  2489  00D3  3181  214A  3180   	fcall	_EPWM1_LoadDutyValue
  2490  00D6                     i1l1094:
  2491                           
  2492                           ;mcc_generated_files/tmr0.c: 150:           if(PORTAbits.RA2==1 && PORTAbits.RA3==1 && P
      +                          ORTAbits.RA4==1){duty=16;a=4;}
  2493  00D6  0020               	movlb	0	; select bank0
  2494  00D7  1D0C               	btfss	12,2	;volatile
  2495  00D8  28DA               	goto	u50_21
  2496  00D9  28DB               	goto	u50_20
  2497  00DA                     u50_21:
  2498  00DA  28EB               	goto	i1l1102
  2499  00DB                     u50_20:
  2500  00DB                     i1l1096:
  2501  00DB  1D8C               	btfss	12,3	;volatile
  2502  00DC  28DE               	goto	u51_21
  2503  00DD  28DF               	goto	u51_20
  2504  00DE                     u51_21:
  2505  00DE  28EB               	goto	i1l1102
  2506  00DF                     u51_20:
  2507  00DF                     i1l1098:
  2508  00DF  1E0C               	btfss	12,4	;volatile
  2509  00E0  28E2               	goto	u52_21
  2510  00E1  28E3               	goto	u52_20
  2511  00E2                     u52_21:
  2512  00E2  28EB               	goto	i1l1102
  2513  00E3                     u52_20:
  2514  00E3                     i1l1100:
  2515  00E3  3010               	movlw	16
  2516  00E4  00FA               	movwf	_duty
  2517  00E5  3000               	movlw	0
  2518  00E6  00FB               	movwf	_duty+1
  2519  00E7  3004               	movlw	4
  2520  00E8  00F8               	movwf	_a
  2521  00E9  3000               	movlw	0
  2522  00EA  00F9               	movwf	_a+1
  2523  00EB                     i1l1102:
  2524                           
  2525                           ;mcc_generated_files/tmr0.c: 143:       while(a==2){
  2526  00EB  3002               	movlw	2
  2527  00EC  0678               	xorwf	_a,w
  2528  00ED  0479               	iorwf	_a+1,w
  2529  00EE  1903               	btfsc	3,2
  2530  00EF  28F1               	goto	u53_21
  2531  00F0  28F2               	goto	u53_20
  2532  00F1                     u53_21:
  2533  00F1  28A7               	goto	i1l1082
  2534  00F2                     u53_20:
  2535  00F2  2937               	goto	i1l1124
  2536  00F3                     i1l1104:
  2537                           
  2538                           ;mcc_generated_files/tmr0.c: 153:           t=t+1;
  2539  00F3  0876               	movf	_t,w
  2540  00F4  3E01               	addlw	1
  2541  00F5  00F6               	movwf	_t
  2542  00F6  3000               	movlw	0
  2543  00F7  3D77               	addwfc	_t+1,w
  2544  00F8  00F7               	movwf	_t+1
  2545  00F9                     i1l1106:
  2546                           
  2547                           ;mcc_generated_files/tmr0.c: 154:           if(t>=20 && t<=60){
  2548  00F9  0877               	movf	_t+1,w
  2549  00FA  3A80               	xorlw	128
  2550  00FB  00F4               	movwf	??_TMR0_ISR
  2551  00FC  3080               	movlw	128
  2552  00FD  0274               	subwf	??_TMR0_ISR,w
  2553  00FE  1D03               	skipz
  2554  00FF  2902               	goto	u54_25
  2555  0100  3014               	movlw	20
  2556  0101  0276               	subwf	_t,w
  2557  0102                     u54_25:
  2558  0102  1C03               	skipc
  2559  0103  2905               	goto	u54_21
  2560  0104  2906               	goto	u54_20
  2561  0105                     u54_21:
  2562  0105  2922               	goto	i1l1116
  2563  0106                     u54_20:
  2564  0106                     i1l1108:
  2565  0106  0877               	movf	_t+1,w
  2566  0107  3A80               	xorlw	128
  2567  0108  00F4               	movwf	??_TMR0_ISR
  2568  0109  3080               	movlw	128
  2569  010A  0274               	subwf	??_TMR0_ISR,w
  2570  010B  1D03               	skipz
  2571  010C  290F               	goto	u55_25
  2572  010D  303D               	movlw	61
  2573  010E  0276               	subwf	_t,w
  2574  010F                     u55_25:
  2575  010F  1803               	skipnc
  2576  0110  2912               	goto	u55_21
  2577  0111  2913               	goto	u55_20
  2578  0112                     u55_21:
  2579  0112  2922               	goto	i1l1116
  2580  0113                     u55_20:
  2581  0113                     i1l1110:
  2582                           
  2583                           ;mcc_generated_files/tmr0.c: 155:           duty=duty+3;
  2584  0113  087A               	movf	_duty,w
  2585  0114  3E03               	addlw	3
  2586  0115  00FA               	movwf	_duty
  2587  0116  3000               	movlw	0
  2588  0117  3D7B               	addwfc	_duty+1,w
  2589  0118  00FB               	movwf	_duty+1
  2590  0119                     i1l1112:
  2591                           
  2592                           ;mcc_generated_files/tmr0.c: 156:           t=0;
  2593  0119  01F6               	clrf	_t
  2594  011A  01F7               	clrf	_t+1
  2595  011B                     i1l1114:
  2596                           
  2597                           ;mcc_generated_files/tmr0.c: 157:           EPWM1_LoadDutyValue(duty);
  2598  011B  087B               	movf	_duty+1,w
  2599  011C  00F1               	movwf	EPWM1_LoadDutyValue@dutyValue+1
  2600  011D  087A               	movf	_duty,w
  2601  011E  00F0               	movwf	EPWM1_LoadDutyValue@dutyValue
  2602  011F  3181  214A  3180   	fcall	_EPWM1_LoadDutyValue
  2603  0122                     i1l1116:
  2604                           
  2605                           ;mcc_generated_files/tmr0.c: 159:           if(PORTAbits.RA2==1 && PORTAbits.RA3==1 && P
      +                          ORTAbits.RA4==1){duty=16;a=4;}
  2606  0122  0020               	movlb	0	; select bank0
  2607  0123  1D0C               	btfss	12,2	;volatile
  2608  0124  2926               	goto	u56_21
  2609  0125  2927               	goto	u56_20
  2610  0126                     u56_21:
  2611  0126  2937               	goto	i1l1124
  2612  0127                     u56_20:
  2613  0127                     i1l1118:
  2614  0127  1D8C               	btfss	12,3	;volatile
  2615  0128  292A               	goto	u57_21
  2616  0129  292B               	goto	u57_20
  2617  012A                     u57_21:
  2618  012A  2937               	goto	i1l1124
  2619  012B                     u57_20:
  2620  012B                     i1l1120:
  2621  012B  1E0C               	btfss	12,4	;volatile
  2622  012C  292E               	goto	u58_21
  2623  012D  292F               	goto	u58_20
  2624  012E                     u58_21:
  2625  012E  2937               	goto	i1l1124
  2626  012F                     u58_20:
  2627  012F                     i1l1122:
  2628  012F  3010               	movlw	16
  2629  0130  00FA               	movwf	_duty
  2630  0131  3000               	movlw	0
  2631  0132  00FB               	movwf	_duty+1
  2632  0133  3004               	movlw	4
  2633  0134  00F8               	movwf	_a
  2634  0135  3000               	movlw	0
  2635  0136  00F9               	movwf	_a+1
  2636  0137                     i1l1124:
  2637                           
  2638                           ;mcc_generated_files/tmr0.c: 152:       while(a==3){
  2639  0137  3003               	movlw	3
  2640  0138  0678               	xorwf	_a,w
  2641  0139  0479               	iorwf	_a+1,w
  2642  013A  1903               	btfsc	3,2
  2643  013B  293D               	goto	u59_21
  2644  013C  293E               	goto	u59_20
  2645  013D                     u59_21:
  2646  013D  28F3               	goto	i1l1104
  2647  013E                     u59_20:
  2648  013E                     i1l1126:
  2649                           
  2650                           ;mcc_generated_files/tmr0.c: 161:       _delay((unsigned long)((500)*(2000000/4000.0)));
  2651  013E  3002               	movlw	2
  2652  013F  00F5               	movwf	??_TMR0_ISR+1
  2653  0140  3045               	movlw	69
  2654  0141  00F4               	movwf	??_TMR0_ISR
  2655  0142  30AA               	movlw	170
  2656  0143                     u62_27:
  2657  0143  0B89               	decfsz	9,f
  2658  0144  2943               	goto	u62_27
  2659  0145  0BF4               	decfsz	??_TMR0_ISR,f
  2660  0146  2943               	goto	u62_27
  2661  0147  0BF5               	decfsz	??_TMR0_ISR+1,f
  2662  0148  2943               	goto	u62_27
  2663  0149                     i1l62:
  2664  0149  0008               	return
  2665  014A                     __end_of_TMR0_ISR:
  2666                           
  2667                           	psect	text11
  2668  01D3                     __ptext11:	
  2669 ;; *************** function _TMR0_DefaultInterruptHandler *****************
  2670 ;; Defined at:
  2671 ;;		line 169 in file "mcc_generated_files/tmr0.c"
  2672 ;; Parameters:    Size  Location     Type
  2673 ;;		None
  2674 ;; Auto vars:     Size  Location     Type
  2675 ;;		None
  2676 ;; Return value:  Size  Location     Type
  2677 ;;                  1    wreg      void 
  2678 ;; Registers used:
  2679 ;;		None
  2680 ;; Tracked objects:
  2681 ;;		On entry : 0/0
  2682 ;;		On exit  : 0/0
  2683 ;;		Unchanged: 0/0
  2684 ;; Data sizes:     COMMON   BANK0   BANK1   BANK2   BANK3   BANK4
  2685 ;;      Params:         0       0       0       0       0       0
  2686 ;;      Locals:         0       0       0       0       0       0
  2687 ;;      Temps:          0       0       0       0       0       0
  2688 ;;      Totals:         0       0       0       0       0       0
  2689 ;;Total ram usage:        0 bytes
  2690 ;; Hardware stack levels used: 1
  2691 ;; This function calls:
  2692 ;;		Nothing
  2693 ;; This function is called by:
  2694 ;;		_TMR0_Initialize
  2695 ;;		_TMR0_ISR
  2696 ;; This function uses a non-reentrant model
  2697 ;;
  2698                           
  2699  01D3                     _TMR0_DefaultInterruptHandler:	
  2700                           ;psect for function _TMR0_DefaultInterruptHandler
  2701                           
  2702  01D3                     i1l68:	
  2703                           ;incstack = 0
  2704                           ; Regs used in _TMR0_DefaultInterruptHandler: []
  2705                           
  2706  01D3  0008               	return
  2707  01D4                     __end_of_TMR0_DefaultInterruptHandler:
  2708                           
  2709                           	psect	text12
  2710  014A                     __ptext12:	
  2711 ;; *************** function _EPWM1_LoadDutyValue *****************
  2712 ;; Defined at:
  2713 ;;		line 90 in file "mcc_generated_files/epwm1.c"
  2714 ;; Parameters:    Size  Location     Type
  2715 ;;  dutyValue       2    0[COMMON] unsigned short 
  2716 ;; Auto vars:     Size  Location     Type
  2717 ;;		None
  2718 ;; Return value:  Size  Location     Type
  2719 ;;                  1    wreg      void 
  2720 ;; Registers used:
  2721 ;;		wreg, status,2, status,0
  2722 ;; Tracked objects:
  2723 ;;		On entry : 0/0
  2724 ;;		On exit  : 0/0
  2725 ;;		Unchanged: 0/0
  2726 ;; Data sizes:     COMMON   BANK0   BANK1   BANK2   BANK3   BANK4
  2727 ;;      Params:         2       0       0       0       0       0
  2728 ;;      Locals:         0       0       0       0       0       0
  2729 ;;      Temps:          2       0       0       0       0       0
  2730 ;;      Totals:         4       0       0       0       0       0
  2731 ;;Total ram usage:        4 bytes
  2732 ;; Hardware stack levels used: 1
  2733 ;; This function calls:
  2734 ;;		Nothing
  2735 ;; This function is called by:
  2736 ;;		_TMR0_ISR
  2737 ;; This function uses a non-reentrant model
  2738 ;;
  2739                           
  2740  014A                     _EPWM1_LoadDutyValue:	
  2741                           ;psect for function _EPWM1_LoadDutyValue
  2742                           
  2743  014A                     i1l1026:	
  2744                           ;incstack = 0
  2745                           ; Regs used in _EPWM1_LoadDutyValue: [wreg+status,2+status,0]
  2746                           
  2747                           
  2748                           ;mcc_generated_files/epwm1.c: 90: void EPWM1_LoadDutyValue(uint16_t dutyValue);mcc_gener
      +                          ated_files/epwm1.c: 91: {;mcc_generated_files/epwm1.c: 93:     CCPR1L = ((dutyValue & 0x
      +                          03FC)>>2);
  2749  014A  0871               	movf	EPWM1_LoadDutyValue@dutyValue+1,w
  2750  014B  00F3               	movwf	??_EPWM1_LoadDutyValue+1
  2751  014C  0870               	movf	EPWM1_LoadDutyValue@dutyValue,w
  2752  014D  00F2               	movwf	??_EPWM1_LoadDutyValue
  2753  014E  36F3               	lsrf	??_EPWM1_LoadDutyValue+1,f
  2754  014F  0CF2               	rrf	??_EPWM1_LoadDutyValue,f
  2755  0150  36F3               	lsrf	??_EPWM1_LoadDutyValue+1,f
  2756  0151  0CF2               	rrf	??_EPWM1_LoadDutyValue,f
  2757  0152  0872               	movf	??_EPWM1_LoadDutyValue,w
  2758  0153  0025               	movlb	5	; select bank5
  2759  0154  0091               	movwf	17	;volatile
  2760                           
  2761                           ;mcc_generated_files/epwm1.c: 96:     CCP1CON = ((uint8_t)(CCP1CON & 0xCF) | ((dutyValue
      +                           & 0x0003)<<4));
  2762  0155  0870               	movf	EPWM1_LoadDutyValue@dutyValue,w
  2763  0156  3903               	andlw	3
  2764  0157  00F2               	movwf	??_EPWM1_LoadDutyValue
  2765  0158  3004               	movlw	4
  2766  0159                     u32_25:
  2767  0159  35F2               	lslf	??_EPWM1_LoadDutyValue,f
  2768  015A  0B89               	decfsz	9,f
  2769  015B  2959               	goto	u32_25
  2770  015C  0813               	movf	19,w	;volatile
  2771  015D  39CF               	andlw	207
  2772  015E  0472               	iorwf	??_EPWM1_LoadDutyValue,w
  2773  015F  0093               	movwf	19	;volatile
  2774  0160                     i1l120:
  2775  0160  0008               	return
  2776  0161                     __end_of_EPWM1_LoadDutyValue:
  2777  007E                     btemp	set	126	;btemp
  2778  007E                     int$flags	set	126
  2779  007E                     wtemp0	set	126
  2780                           
  2781                           	psect	idloc
  2782                           
  2783                           ;Config register IDLOC0 @ 0x8000
  2784                           ;	unspecified, using default values
  2785  8000                     	org	32768
  2786  8000  3FFF               	dw	16383
  2787                           
  2788                           ;Config register IDLOC1 @ 0x8001
  2789                           ;	unspecified, using default values
  2790  8001                     	org	32769
  2791  8001  3FFF               	dw	16383
  2792                           
  2793                           ;Config register IDLOC2 @ 0x8002
  2794                           ;	unspecified, using default values
  2795  8002                     	org	32770
  2796  8002  3FFF               	dw	16383
  2797                           
  2798                           ;Config register IDLOC3 @ 0x8003
  2799                           ;	unspecified, using default values
  2800  8003                     	org	32771
  2801  8003  3FFF               	dw	16383
  2802                           
  2803                           	psect	config
  2804                           
  2805                           ;Config register CONFIG1 @ 0x8007
  2806                           ;	Oscillator Selection
  2807                           ;	FOSC = INTOSC, INTOSC oscillator: I/O function on CLKIN pin
  2808                           ;	Watchdog Timer Enable
  2809                           ;	WDTE = OFF, WDT disabled
  2810                           ;	Power-up Timer Enable
  2811                           ;	PWRTE = OFF, PWRT disabled
  2812                           ;	MCLR Pin Function Select
  2813                           ;	MCLRE = ON, MCLR/VPP pin function is MCLR
  2814                           ;	Flash Program Memory Code Protection
  2815                           ;	CP = OFF, Program memory code protection is disabled
  2816                           ;	Data Memory Code Protection
  2817                           ;	CPD = OFF, Data memory code protection is disabled
  2818                           ;	Brown-out Reset Enable
  2819                           ;	BOREN = ON, Brown-out Reset enabled
  2820                           ;	Clock Out Enable
  2821                           ;	CLKOUTEN = OFF, CLKOUT function is disabled. I/O or oscillator function on the CLKOUT 
      +                          pin
  2822                           ;	Internal/External Switchover
  2823                           ;	IESO = ON, Internal/External Switchover mode is enabled
  2824                           ;	Fail-Safe Clock Monitor Enable
  2825                           ;	FCMEN = ON, Fail-Safe Clock Monitor is enabled
  2826  8007                     	org	32775
  2827  8007  3FE4               	dw	16356
  2828                           
  2829                           ;Config register CONFIG2 @ 0x8008
  2830                           ;	Flash Memory Self-Write Protection
  2831                           ;	WRT = OFF, Write protection off
  2832                           ;	PLL Enable
  2833                           ;	PLLEN = OFF, 4x PLL disabled
  2834                           ;	Stack Overflow/Underflow Reset Enable
  2835                           ;	STVREN = ON, Stack Overflow or Underflow will cause a Reset
  2836                           ;	Brown-out Reset Voltage Selection
  2837                           ;	BORV = LO, Brown-out Reset Voltage (Vbor), low trip point selected.
  2838                           ;	Low-Voltage Programming Enable
  2839                           ;	LVP = ON, Low-voltage programming enabled
  2840  8008                     	org	32776
  2841  8008  3EFF               	dw	16127

Data Sizes:
    Strings     0
    Constant    0
    Data        2
    BSS         4
    Persistent  35
    Stack       0

Auto Spaces:
    Space          Size  Autos    Used
    COMMON           14      6      12
    BANK0            80      3       6
    BANK1            80      0       0
    BANK2            80      0       0
    BANK3            80      0       0
    BANK4            48      0       0

Pointer List with Targets:

    TMR0_SetInterruptHandler@InterruptHandler	PTR FTN()void  size(2) Largest target is 1
		 -> TMR0_DefaultInterruptHandler(), 

    TMR0_InterruptHandler	PTR FTN()void  size(2) Largest target is 1
		 -> Absolute function(), TMR0_DefaultInterruptHandler(), 


Critical Paths under _main in COMMON

    None.

Critical Paths under _INTERRUPT_InterruptManager in COMMON

    _INTERRUPT_InterruptManager->_TMR0_ISR
    _TMR0_ISR->_EPWM1_LoadDutyValue

Critical Paths under _main in BANK0

    _SYSTEM_Initialize->_TMR0_Initialize
    _TMR0_Initialize->_TMR0_SetInterruptHandler

Critical Paths under _INTERRUPT_InterruptManager in BANK0

    None.

Critical Paths under _main in BANK1

    None.

Critical Paths under _INTERRUPT_InterruptManager in BANK1

    None.

Critical Paths under _main in BANK2

    None.

Critical Paths under _INTERRUPT_InterruptManager in BANK2

    None.

Critical Paths under _main in BANK3

    None.

Critical Paths under _INTERRUPT_InterruptManager in BANK3

    None.

Critical Paths under _main in BANK4

    None.

Critical Paths under _INTERRUPT_InterruptManager in BANK4

    None.

Call Graph Tables:

 ---------------------------------------------------------------------------------
 (Depth) Function   	        Calls       Base Space   Used Autos Params    Refs
 ---------------------------------------------------------------------------------
 (0) _main                                                 0     0      0     121
                   _EPWM1_Initialize
                  _SYSTEM_Initialize
 ---------------------------------------------------------------------------------
 (1) _SYSTEM_Initialize                                    0     0      0     121
                   _EPWM1_Initialize
              _OSCILLATOR_Initialize
             _PIN_MANAGER_Initialize
                    _TMR0_Initialize
                    _TMR2_Initialize
                     _WDT_Initialize
 ---------------------------------------------------------------------------------
 (2) _WDT_Initialize                                       0     0      0       0
 ---------------------------------------------------------------------------------
 (2) _TMR2_Initialize                                      0     0      0       0
 ---------------------------------------------------------------------------------
 (2) _TMR0_Initialize                                      1     1      0     121
                                              2 BANK0      1     1      0
           _TMR0_SetInterruptHandler
 ---------------------------------------------------------------------------------
 (3) _TMR0_SetInterruptHandler                             2     0      2     121
                                              0 BANK0      2     0      2
 ---------------------------------------------------------------------------------
 (2) _PIN_MANAGER_Initialize                               0     0      0       0
 ---------------------------------------------------------------------------------
 (2) _OSCILLATOR_Initialize                                0     0      0       0
 ---------------------------------------------------------------------------------
 (2) _EPWM1_Initialize                                     0     0      0       0
 ---------------------------------------------------------------------------------
 Estimated maximum stack depth 3
 ---------------------------------------------------------------------------------
 (Depth) Function   	        Calls       Base Space   Used Autos Params    Refs
 ---------------------------------------------------------------------------------
 (4) _INTERRUPT_InterruptManager                           0     0      0     272
                           _TMR0_ISR
 ---------------------------------------------------------------------------------
 (5) _TMR0_ISR                                             2     2      0     272
                                              4 COMMON     2     2      0
                   Absolute function *
                _EPWM1_LoadDutyValue
       _TMR0_DefaultInterruptHandler *
 ---------------------------------------------------------------------------------
 (6) _TMR0_DefaultInterruptHandler                         0     0      0       0
 ---------------------------------------------------------------------------------
 (6) _EPWM1_LoadDutyValue                                  4     2      2     272
                                              0 COMMON     4     2      2
 ---------------------------------------------------------------------------------
 (6) Absolute function(Fake)                               0     0      0       0
 ---------------------------------------------------------------------------------
 Estimated maximum stack depth 6
 ---------------------------------------------------------------------------------

 Call Graph Graphs:

 _main (ROOT)
   _EPWM1_Initialize
   _SYSTEM_Initialize
     _EPWM1_Initialize
     _OSCILLATOR_Initialize
     _PIN_MANAGER_Initialize
     _TMR0_Initialize
       _TMR0_SetInterruptHandler
     _TMR2_Initialize
     _WDT_Initialize

 _INTERRUPT_InterruptManager (ROOT)
   _TMR0_ISR
     Absolute function(Fake) *
     _EPWM1_LoadDutyValue *
     _TMR0_DefaultInterruptHandler *

 Address spaces:
Name               Size   Autos  Total    Cost      Usage
BIGRAM             170      0       0       0        0.0%
EEDATA             100      0       0       0        0.0%
NULL                 0      0       0       0        0.0%
CODE                 0      0       0       0        0.0%
BITCOMMON            E      0       0       1        0.0%
BITSFR0              0      0       0       1        0.0%
SFR0                 0      0       0       1        0.0%
COMMON               E      6       C       2       85.7%
BITSFR1              0      0       0       2        0.0%
SFR1                 0      0       0       2        0.0%
BITSFR2              0      0       0       3        0.0%
SFR2                 0      0       0       3        0.0%
STACK                0      0       0       3        0.0%
BITSFR3              0      0       0       4        0.0%
SFR3                 0      0       0       4        0.0%
ABS                  0      0      12       4        0.0%
BITBANK0            50      0       0       5        0.0%
BITSFR4              0      0       0       5        0.0%
SFR4                 0      0       0       5        0.0%
BANK0               50      3       6       6        7.5%
BITSFR5              0      0       0       6        0.0%
SFR5                 0      0       0       6        0.0%
BITBANK1            50      0       0       7        0.0%
BITSFR6              0      0       0       7        0.0%
SFR6                 0      0       0       7        0.0%
BANK1               50      0       0       8        0.0%
BITSFR7              0      0       0       8        0.0%
SFR7                 0      0       0       8        0.0%
BITBANK2            50      0       0       9        0.0%
BITSFR8              0      0       0       9        0.0%
SFR8                 0      0       0       9        0.0%
BANK2               50      0       0      10        0.0%
BITSFR9              0      0       0      10        0.0%
SFR9                 0      0       0      10        0.0%
BITBANK3            50      0       0      11        0.0%
BITSFR10             0      0       0      11        0.0%
SFR10                0      0       0      11        0.0%
BANK3               50      0       0      12        0.0%
BITSFR11             0      0       0      12        0.0%
SFR11                0      0       0      12        0.0%
BITBANK4            30      0       0      13        0.0%
BITSFR12             0      0       0      13        0.0%
SFR12                0      0       0      13        0.0%
BANK4               30      0       0      14        0.0%
BITSFR13             0      0       0      14        0.0%
SFR13                0      0       0      14        0.0%
BITSFR14             0      0       0      15        0.0%
SFR14                0      0       0      15        0.0%
DATA                 0      0      12      15        0.0%
BITSFR15             0      0       0      16        0.0%
SFR15                0      0       0      16        0.0%
BITSFR16             0      0       0      17        0.0%
SFR16                0      0       0      17        0.0%
BITSFR17             0      0       0      18        0.0%
SFR17                0      0       0      18        0.0%
BITSFR18             0      0       0      19        0.0%
SFR18                0      0       0      19        0.0%
BITSFR19             0      0       0      20        0.0%
SFR19                0      0       0      20        0.0%
BITSFR20             0      0       0      21        0.0%
SFR20                0      0       0      21        0.0%
BITSFR21             0      0       0      22        0.0%
SFR21                0      0       0      22        0.0%
BITSFR22             0      0       0      23        0.0%
SFR22                0      0       0      23        0.0%
BITSFR23             0      0       0      24        0.0%
SFR23                0      0       0      24        0.0%
BITSFR24             0      0       0      25        0.0%
SFR24                0      0       0      25        0.0%
BITSFR25             0      0       0      26        0.0%
SFR25                0      0       0      26        0.0%
BITSFR26             0      0       0      27        0.0%
SFR26                0      0       0      27        0.0%
BITSFR27             0      0       0      28        0.0%
SFR27                0      0       0      28        0.0%
BITSFR28             0      0       0      29        0.0%
SFR28                0      0       0      29        0.0%
BITSFR29             0      0       0      30        0.0%
SFR29                0      0       0      30        0.0%
BITSFR30             0      0       0      31        0.0%
SFR30                0      0       0      31        0.0%
BITSFR31             0      0       0      32        0.0%
SFR31                0      0       0      32        0.0%


Microchip Technology PIC Macro Assembler V2.35 build 20211206165544 
Symbol Table                                                                                   Thu Feb 24 10:31:20 2022

                                       _a 0078                                         _t 0076  
                                      l25 0176                                        l65 01CC  
                                      l81 01BF                           _timer0ReloadVal 0022  
                                     l200 01B5                                       l117 01AC  
                                     l143 019E                                       l146 01C6  
                                     l149 01D0                                       l185 018B  
                                     l199 01B5                                       _PR2 001B  
                         _TMR2_Initialize 01B8                                       wreg 0009  
                                    l1200 01C4                                      l1202 01CD  
                                    l1210 01B4                                      l1204 018C  
                                    l1150 0169                                      l1206 01AD  
                                    l1144 01C7                                      l1152 016D  
                                    l1160 01BB                                      l1208 01B3  
                                    l1170 01A3                                      l1154 016E  
                                    l1146 0161                                      l1162 01BC  
                                    l1172 01A5                                      l1180 017A  
                                    l1156 016F                                      l1148 0166  
                                    l1164 01BD                                      l1174 01A7  
                                    l1166 019F                                      l1190 0186  
                                    l1182 017D                                      l1158 01B8  
                                    l1176 01AA                                      l1168 01A2  
                                    l1192 0188                                      l1184 0181  
                                    l1194 018A                                      l1186 0183  
                                    l1178 0177                                      l1196 01C0  
                                    l1188 0185                                      l1198 01C3  
                                    _LATA 010C                                      _LATB 010D  
                                    i1l62 0149                                      i1l68 01D3  
                                    _TMR0 0015                                      _TMR2 001A  
                                    _WPUA 020C                                      _WPUB 020D  
                                    _main 01AD                                      _duty 007A  
                                    btemp 007E                                      start 0013  
                   ??_EPWM1_LoadDutyValue 0072                   __end_of_TMR0_Initialize 0177  
          ??_TMR0_DefaultInterruptHandler 0070             __end_of_OSCILLATOR_Initialize 01C7  
                                   ?_main 0070                                     _T2CON 001C  
                                   i1l120 0160                                     i1l160 0011  
                                   u40_20 005C                                     u40_21 005B  
                                   u32_25 0159                                     u41_20 0060  
                                   u33_20 002F                                     u41_21 005F  
                                   u33_21 002E                                     u50_20 00DB  
                                   u42_20 0064                                     u34_20 003C  
                                   u50_21 00DA                                     u42_21 0063  
                                   u34_21 003B                                     u51_20 00DF  
                                   u43_20 007C                                     u35_20 0040  
                                   u51_21 00DE                                     u43_21 007B  
                                   u35_21 003F                                     u43_25 0078  
                                   u52_20 00E3                                     u44_20 0090  
                                   u36_20 0044                                     u60_20 000A  
                                   u52_21 00E2                                     u44_21 008F  
                                   u36_21 0043                                     u60_21 0009  
                                   u53_20 00F2                                     u45_20 0094  
                                   u37_20 004C                                     u61_20 000E  
                                   u53_21 00F1                                     u45_21 0093  
                                   u37_21 004B                                     u61_21 000D  
                                   u54_20 0106                                     u46_20 0098  
                                   u38_20 0050                                     u54_21 0105  
                                   u46_21 0097                                     u38_21 004F  
                                   u54_25 0102                                     u62_27 0143  
                                   u55_20 0113                                     u47_20 00A6  
                                   u39_20 0054                                     u55_21 0112  
                                   u47_21 00A5                                     u39_21 0053  
                                   u55_25 010F                                     u56_20 0127  
                                   u48_20 00BA                                     u56_21 0126  
                                   u48_21 00B9                                     u48_25 00B6  
                                   u57_20 012B                                     u49_20 00C7  
                                   u57_21 012A                                     u49_21 00C6  
                                   _TRISA 008C                                     _TRISB 008D  
                                   u49_25 00C3                                     u58_20 012F  
                                   u58_21 012E                                     u59_20 013E  
                                   u59_21 013D                 ?_TMR0_SetInterruptHandler 0023  
                        __end_of_TMR0_ISR 014A                            _WDT_Initialize 01CD  
                                   pclath 000A                                     status 0003  
                                   wtemp0 007E                           __initialization 0015  
                            __end_of_main 01B8                   __end_of_TMR2_Initialize 01C0  
             ?_INTERRUPT_InterruptManager 0070                                    ??_main 0026  
                  __end_of_WDT_Initialize 01D1                                    _CCPR1H 0292  
                                  _CCPR1L 0291                                    _ANSELA 018C  
                                  _ANSELB 018D                                    _BORCON 0116  
                                  i1l1100 00E3                                    i1l1110 0113  
                                  i1l1102 00EB                                    i1l1030 0026  
                                  i1l1120 012B                                    i1l1112 0119  
                                  i1l1104 00F3                                    i1l1040 003C  
                                  i1l1032 0029                                    i1l1026 014A  
                                  i1l1122 012F                                    i1l1114 011B  
                                  i1l1106 00F9                                    i1l1050 0050  
                                  i1l1042 0040                                    i1l1034 002F  
                                  i1l1108 0106                                    i1l1116 0122  
                                  i1l1124 0137                                    i1l1060 0064  
                                  i1l1052 0054                                    i1l1044 0044  
                                  i1l1036 0034                                    i1l1028 0025  
                                  i1l1132 0006                                    i1l1126 013E  
                                  i1l1118 0127                                    i1l1070 0084  
                                  i1l1062 0069                                    i1l1054 0058  
                                  i1l1046 0048                                    i1l1038 0037  
                                  i1l1134 000A                                    i1l1072 008B  
                                  i1l1064 006F                                    i1l1056 005C  
                                  i1l1080 00A0                                    i1l1048 004C  
                                  i1l1136 000E                                    i1l1090 00CD  
                                  i1l1082 00A7                                    i1l1074 0090  
                                  i1l1066 007C                                    i1l1058 0060  
                                  i1l1092 00CF                                    i1l1084 00AD  
                                  i1l1076 0094                                    i1l1068 0082  
                                  i1l1086 00BA                                    i1l1094 00D6  
                                  i1l1078 0098                                    i1l1096 00DB  
                                  i1l1088 00C7                                    i1l1098 00DF  
                                  _OSCCON 0099                                    _WDTCON 0097  
                            _CCPTMRS0bits 029E                          ?_TMR0_Initialize 0070  
                            __pdataCOMMON 007A                           ?_WDT_Initialize 0070  
TMR0_SetInterruptHandler@InterruptHandler 0023                         _SYSTEM_Initialize 018C  
                 __end_of__initialization 0021                        ?_SYSTEM_Initialize 0070  
                       ?_EPWM1_Initialize 0070                            __pcstackCOMMON 0070  
                     ??_SYSTEM_Initialize 0026                                 ?_TMR0_ISR 0070  
                      ??_EPWM1_Initialize 0023                          ?_TMR2_Initialize 0070  
                          _OPTION_REGbits 0095                 __end_of_SYSTEM_Initialize 019F  
                              __pmaintext 01AD          __end_of_TMR0_SetInterruptHandler 01CD  
                              ??_TMR0_ISR 0074                                __pintentry 0004  
                                 _CCP1CON 0293                                   _ECCP1AS 0295  
                                 _APFCON0 011D                                   _APFCON1 011E  
                                 _OSCTUNE 0098                                   _PWM1CON 0294  
             __end_of_EPWM1_LoadDutyValue 0161                                   __ptext1 018C  
                                 __ptext2 01CD                                   __ptext3 01B8  
                                 __ptext4 0161                                   __ptext5 01C7  
                                 __ptext6 0177                                   __ptext7 01C0  
                                 __ptext8 019F                     _OSCILLATOR_Initialize 01C0  
                               _T2CONbits 001C                  ??_PIN_MANAGER_Initialize 0023  
                    end_of_initialization 0021                          ??_WDT_Initialize 0023  
                _TMR0_SetInterruptHandler 01C7                                 _PORTAbits 000C  
                           __pidataCOMMON 01D1                    ?_OSCILLATOR_Initialize 0070  
                     start_initialization 0015              EPWM1_LoadDutyValue@dutyValue 0070  
                             __pbssCOMMON 0076                                 ___latbits 0001  
                           __pcstackBANK0 0023                     _TMR0_InterruptHandler 0020  
                               __pnvBANK0 0020                    _PIN_MANAGER_Initialize 0177  
            ??_INTERRUPT_InterruptManager 0076                         ??_TMR0_Initialize 0025  
              ??_TMR0_SetInterruptHandler 0025                                  _PIR1bits 0011  
                                _TMR0_ISR 0025                                  _PSTR1CON 0296  
                        _EPWM1_Initialize 019F                         ??_TMR2_Initialize 0023  
                 ??_OSCILLATOR_Initialize 0023                                  __ptext10 0025  
                                __ptext11 01D3                                  __ptext12 014A  
    __end_of_TMR0_DefaultInterruptHandler 01D4              _TMR0_DefaultInterruptHandler 01D3  
                                int$flags 007E        __end_of_INTERRUPT_InterruptManager 0013  
              _INTERRUPT_InterruptManager 0004                                _INTCONbits 000B  
                                intlevel1 0000                   ?_PIN_MANAGER_Initialize 0070  
           ?_TMR0_DefaultInterruptHandler 0070                                _OPTION_REG 0095  
                         _TMR0_Initialize 0161                       _EPWM1_LoadDutyValue 014A  
          __end_of_PIN_MANAGER_Initialize 018C                  __end_of_EPWM1_Initialize 01AD  
                    ?_EPWM1_LoadDutyValue 0070  
