

Microchip MPLAB XC8 Assembler V2.35 build 20211206165544 
                                                                                               Thu Mar 31 09:26:09 2022

Microchip MPLAB XC8 C Compiler v2.35 (Free license) build 20211206165544 Og1 
     1                           	processor	16F1827
     2                           	pagewidth 120
     3                           	opt	flic
     4                           	psect	idataBANK0,global,class=CODE,delta=2,noexec
     5                           	psect	stringtext1,global,class=STRCODE,delta=2,noexec
     6                           	psect	nvBANK0,global,class=BANK0,space=1,delta=1,noexec
     7                           	psect	stringtext2,global,class=STRCODE,delta=2,noexec
     8                           	psect	stringtext3,global,class=STRCODE,delta=2,noexec
     9                           	psect	stringtext4,global,class=STRCODE,delta=2,noexec
    10                           	psect	stringtext5,global,class=STRCODE,delta=2,noexec
    11                           	psect	stringtext6,global,class=STRCODE,delta=2,noexec
    12                           	psect	cinit,global,class=CODE,merge=1,delta=2
    13                           	psect	bssBANK0,global,class=BANK0,space=1,delta=1,noexec
    14                           	psect	dataBANK0,global,class=BANK0,space=1,delta=1,noexec
    15                           	psect	clrtext,global,class=CODE,delta=2
    16                           	psect	cstackCOMMON,global,class=COMMON,space=1,delta=1,noexec
    17                           	psect	cstackBANK0,global,class=BANK0,space=1,delta=1,noexec
    18                           	psect	maintext,global,class=CODE,merge=1,split=1,delta=2
    19                           	psect	text1,local,class=CODE,merge=1,delta=2
    20                           	psect	text2,local,class=CODE,merge=1,delta=2
    21                           	psect	text3,local,class=CODE,merge=1,delta=2
    22                           	psect	text4,local,class=CODE,merge=1,delta=2
    23                           	psect	text5,local,class=CODE,merge=1,delta=2
    24                           	psect	text6,local,class=CODE,merge=1,delta=2
    25                           	psect	text7,local,class=CODE,merge=1,delta=2
    26                           	psect	text8,local,class=CODE,merge=1,delta=2
    27                           	psect	text9,local,class=CODE,merge=1,delta=2
    28                           	psect	text10,local,class=CODE,merge=1,delta=2
    29                           	psect	text11,local,class=CODE,merge=1,delta=2
    30                           	psect	text12,local,class=CODE,merge=1,delta=2
    31                           	psect	text13,local,class=CODE,merge=1,delta=2
    32                           	psect	text14,local,class=CODE,merge=1,delta=2
    33                           	psect	text15,local,class=CODE,merge=1,delta=2
    34                           	psect	text16,local,class=CODE,merge=1,delta=2
    35                           	psect	text17,local,class=CODE,merge=1,inline,delta=2
    36                           	psect	text18,local,class=CODE,merge=1,delta=2
    37                           	psect	text19,local,class=CODE,merge=1,delta=2
    38                           	psect	text20,local,class=CODE,merge=1,delta=2
    39                           	psect	text21,local,class=CODE,merge=1,inline,delta=2
    40                           	psect	text22,local,class=CODE,merge=1,inline,delta=2
    41                           	psect	text23,local,class=CODE,merge=1,delta=2
    42                           	psect	text24,local,class=CODE,merge=1,delta=2
    43                           	psect	text25,local,class=CODE,merge=1,delta=2
    44                           	psect	text26,local,class=CODE,merge=1,delta=2
    45                           	psect	text27,local,class=CODE,merge=1,delta=2
    46                           	psect	text28,local,class=CODE,merge=1,delta=2
    47                           	psect	text29,local,class=CODE,merge=1,delta=2
    48                           	psect	text30,local,class=CODE,merge=1,delta=2
    49                           	psect	text31,local,class=CODE,merge=1,delta=2
    50                           	psect	text32,local,class=CODE,merge=1,delta=2
    51                           	psect	text33,local,class=CODE,merge=1,delta=2
    52                           	psect	text34,local,class=CODE,merge=1,delta=2
    53                           	psect	text35,local,class=CODE,merge=1,delta=2
    54                           	psect	text36,local,class=CODE,merge=1,delta=2
    55                           	psect	text37,local,class=CODE,merge=1,delta=2
    56                           	psect	text38,local,class=CODE,merge=1,delta=2
    57                           	psect	text39,local,class=CODE,merge=1,inline,delta=2
    58                           	psect	text40,local,class=CODE,merge=1,inline,delta=2
    59                           	psect	text41,local,class=CODE,merge=1,inline,delta=2
    60                           	psect	text42,local,class=CODE,merge=1,inline,delta=2
    61                           	psect	text43,local,class=CODE,merge=1,inline,delta=2
    62                           	psect	text44,local,class=CODE,merge=1,inline,delta=2
    63                           	psect	text45,local,class=CODE,merge=1,inline,delta=2
    64                           	psect	text46,local,class=CODE,merge=1,delta=2
    65                           	psect	text47,local,class=CODE,merge=1,delta=2
    66                           	psect	text48,local,class=CODE,merge=1,delta=2
    67                           	psect	text49,local,class=CODE,merge=1,delta=2
    68                           	psect	text50,local,class=CODE,merge=1,delta=2
    69                           	psect	text51,local,class=CODE,merge=1,delta=2
    70                           	psect	text52,local,class=CODE,merge=1,delta=2
    71                           	psect	text53,local,class=CODE,merge=1,delta=2
    72                           	psect	text54,local,class=CODE,merge=1,delta=2
    73                           	psect	text55,local,class=CODE,merge=1,delta=2
    74                           	psect	text56,local,class=CODE,merge=1,inline,delta=2
    75                           	psect	text57,local,class=CODE,merge=1,inline,delta=2
    76                           	psect	text58,local,class=CODE,merge=1,inline,delta=2
    77                           	psect	text59,local,class=CODE,merge=1,delta=2
    78                           	psect	text60,local,class=CODE,merge=1,inline,delta=2
    79                           	psect	text61,local,class=CODE,merge=1,inline,delta=2
    80                           	psect	text62,local,class=CODE,merge=1,inline,delta=2
    81                           	psect	idloc,global,abs,ovrld,class=IDLOC,space=5,delta=2,noexec
    82                           	psect	config,global,abs,ovrld,class=CONFIG,space=4,delta=2,noexec
    83                           	dabs	1,0x7E,2
    84  0000                     
    85                           ; Version 2.40
    86                           ; Generated 17/11/2021 GMT
    87                           ; 
    88                           ; Copyright © 2021, Microchip Technology Inc. and its subsidiaries ("Microchip")
    89                           ; All rights reserved.
    90                           ; 
    91                           ; This software is developed by Microchip Technology Inc. and its subsidiaries ("Microch
      +                          ip").
    92                           ; 
    93                           ; Redistribution and use in source and binary forms, with or without modification, are
    94                           ; permitted provided that the following conditions are met:
    95                           ; 
    96                           ;     1. Redistributions of source code must retain the above copyright notice, this lis
      +                          t of
    97                           ;        conditions and the following disclaimer.
    98                           ; 
    99                           ;     2. Redistributions in binary form must reproduce the above copyright notice, this 
      +                          list
   100                           ;        of conditions and the following disclaimer in the documentation and/or other
   101                           ;        materials provided with the distribution. Publication is not required when
   102                           ;        this file is used in an embedded application.
   103                           ; 
   104                           ;     3. Microchip's name may not be used to endorse or promote products derived from th
      +                          is
   105                           ;        software without specific prior written permission.
   106                           ; 
   107                           ; THIS SOFTWARE IS PROVIDED BY MICROCHIP "AS IS" AND ANY EXPRESS OR IMPLIED WARRANTIES,
   108                           ; INCLUDING, BUT NOT LIMITED TO, THE IMPLIED WARRANTIES OF MERCHANTABILITY AND FITNESS F
      +                          OR
   109                           ; PURPOSE ARE DISCLAIMED.  IN NO EVENT SHALL MICROCHIP BE LIABLE FOR ANY DIRECT, INDIREC
      +                          T,
   110                           ; INCIDENTAL, SPECIAL, EXEMPLARY, OR CONSEQUENTIAL DAMAGES (INCLUDING BUT NOT LIMITED TO
   111                           ; PROCUREMENT OF SUBSTITUTE GOODS OR SERVICES; LOSS OF USE, DATA OR PROFITS; OR BUSINESS
   112                           ; INTERRUPTION) HOWSOEVER CAUSED AND ON ANY THEORY OF LIABILITY, WHETHER IN CONTRACT, ST
      +                          RICT
   113                           ; LIABILITY, OR TORT (INCLUDING NEGLIGENCE OR OTHERWISE) ARISING IN ANY WAY OUT OF THE U
      +                          SE OF
   114                           ; THIS SOFTWARE, EVEN IF ADVISED OF THE POSSIBILITY OF SUCH DAMAGE.
   115                           ; 
   116                           ; 
   117                           ; Code-generator required, PIC16F1827 Definitions
   118                           ; 
   119                           ; SFR Addresses
   120  0000                     	;# 
   121  0001                     	;# 
   122  0002                     	;# 
   123  0003                     	;# 
   124  0004                     	;# 
   125  0005                     	;# 
   126  0006                     	;# 
   127  0007                     	;# 
   128  0008                     	;# 
   129  0009                     	;# 
   130  000A                     	;# 
   131  000B                     	;# 
   132  000C                     	;# 
   133  000D                     	;# 
   134  0011                     	;# 
   135  0012                     	;# 
   136  0013                     	;# 
   137  0014                     	;# 
   138  0015                     	;# 
   139  0016                     	;# 
   140  0016                     	;# 
   141  0017                     	;# 
   142  0018                     	;# 
   143  0019                     	;# 
   144  001A                     	;# 
   145  001B                     	;# 
   146  001C                     	;# 
   147  001E                     	;# 
   148  001F                     	;# 
   149  008C                     	;# 
   150  008D                     	;# 
   151  0091                     	;# 
   152  0092                     	;# 
   153  0093                     	;# 
   154  0094                     	;# 
   155  0095                     	;# 
   156  0096                     	;# 
   157  0097                     	;# 
   158  0098                     	;# 
   159  0099                     	;# 
   160  009A                     	;# 
   161  009B                     	;# 
   162  009B                     	;# 
   163  009C                     	;# 
   164  009D                     	;# 
   165  009E                     	;# 
   166  010C                     	;# 
   167  010D                     	;# 
   168  0111                     	;# 
   169  0112                     	;# 
   170  0113                     	;# 
   171  0114                     	;# 
   172  0115                     	;# 
   173  0116                     	;# 
   174  0117                     	;# 
   175  0118                     	;# 
   176  0119                     	;# 
   177  011A                     	;# 
   178  011B                     	;# 
   179  011D                     	;# 
   180  011E                     	;# 
   181  018C                     	;# 
   182  018D                     	;# 
   183  0191                     	;# 
   184  0191                     	;# 
   185  0192                     	;# 
   186  0193                     	;# 
   187  0193                     	;# 
   188  0193                     	;# 
   189  0194                     	;# 
   190  0195                     	;# 
   191  0196                     	;# 
   192  0199                     	;# 
   193  019A                     	;# 
   194  019B                     	;# 
   195  019B                     	;# 
   196  019B                     	;# 
   197  019B                     	;# 
   198  019C                     	;# 
   199  019C                     	;# 
   200  019D                     	;# 
   201  019E                     	;# 
   202  019F                     	;# 
   203  020C                     	;# 
   204  020D                     	;# 
   205  0211                     	;# 
   206  0211                     	;# 
   207  0212                     	;# 
   208  0212                     	;# 
   209  0213                     	;# 
   210  0213                     	;# 
   211  0214                     	;# 
   212  0214                     	;# 
   213  0215                     	;# 
   214  0215                     	;# 
   215  0215                     	;# 
   216  0216                     	;# 
   217  0216                     	;# 
   218  0217                     	;# 
   219  0217                     	;# 
   220  0219                     	;# 
   221  021A                     	;# 
   222  021B                     	;# 
   223  021C                     	;# 
   224  021D                     	;# 
   225  021E                     	;# 
   226  021F                     	;# 
   227  0291                     	;# 
   228  0291                     	;# 
   229  0292                     	;# 
   230  0293                     	;# 
   231  0294                     	;# 
   232  0295                     	;# 
   233  0295                     	;# 
   234  0296                     	;# 
   235  0298                     	;# 
   236  0298                     	;# 
   237  0299                     	;# 
   238  029A                     	;# 
   239  029B                     	;# 
   240  029C                     	;# 
   241  029C                     	;# 
   242  029D                     	;# 
   243  029E                     	;# 
   244  029E                     	;# 
   245  0311                     	;# 
   246  0311                     	;# 
   247  0312                     	;# 
   248  0313                     	;# 
   249  0318                     	;# 
   250  0318                     	;# 
   251  0319                     	;# 
   252  031A                     	;# 
   253  0394                     	;# 
   254  0395                     	;# 
   255  0396                     	;# 
   256  039A                     	;# 
   257  039C                     	;# 
   258  039D                     	;# 
   259  039E                     	;# 
   260  039F                     	;# 
   261  0415                     	;# 
   262  0416                     	;# 
   263  0417                     	;# 
   264  041C                     	;# 
   265  041D                     	;# 
   266  041E                     	;# 
   267  0FE4                     	;# 
   268  0FE5                     	;# 
   269  0FE6                     	;# 
   270  0FE7                     	;# 
   271  0FE8                     	;# 
   272  0FE9                     	;# 
   273  0FEA                     	;# 
   274  0FEB                     	;# 
   275  0FED                     	;# 
   276  0FEE                     	;# 
   277  0FEF                     	;# 
   278  0000                     	;# 
   279  0001                     	;# 
   280  0002                     	;# 
   281  0003                     	;# 
   282  0004                     	;# 
   283  0005                     	;# 
   284  0006                     	;# 
   285  0007                     	;# 
   286  0008                     	;# 
   287  0009                     	;# 
   288  000A                     	;# 
   289  000B                     	;# 
   290  000C                     	;# 
   291  000D                     	;# 
   292  0011                     	;# 
   293  0012                     	;# 
   294  0013                     	;# 
   295  0014                     	;# 
   296  0015                     	;# 
   297  0016                     	;# 
   298  0016                     	;# 
   299  0017                     	;# 
   300  0018                     	;# 
   301  0019                     	;# 
   302  001A                     	;# 
   303  001B                     	;# 
   304  001C                     	;# 
   305  001E                     	;# 
   306  001F                     	;# 
   307  008C                     	;# 
   308  008D                     	;# 
   309  0091                     	;# 
   310  0092                     	;# 
   311  0093                     	;# 
   312  0094                     	;# 
   313  0095                     	;# 
   314  0096                     	;# 
   315  0097                     	;# 
   316  0098                     	;# 
   317  0099                     	;# 
   318  009A                     	;# 
   319  009B                     	;# 
   320  009B                     	;# 
   321  009C                     	;# 
   322  009D                     	;# 
   323  009E                     	;# 
   324  010C                     	;# 
   325  010D                     	;# 
   326  0111                     	;# 
   327  0112                     	;# 
   328  0113                     	;# 
   329  0114                     	;# 
   330  0115                     	;# 
   331  0116                     	;# 
   332  0117                     	;# 
   333  0118                     	;# 
   334  0119                     	;# 
   335  011A                     	;# 
   336  011B                     	;# 
   337  011D                     	;# 
   338  011E                     	;# 
   339  018C                     	;# 
   340  018D                     	;# 
   341  0191                     	;# 
   342  0191                     	;# 
   343  0192                     	;# 
   344  0193                     	;# 
   345  0193                     	;# 
   346  0193                     	;# 
   347  0194                     	;# 
   348  0195                     	;# 
   349  0196                     	;# 
   350  0199                     	;# 
   351  019A                     	;# 
   352  019B                     	;# 
   353  019B                     	;# 
   354  019B                     	;# 
   355  019B                     	;# 
   356  019C                     	;# 
   357  019C                     	;# 
   358  019D                     	;# 
   359  019E                     	;# 
   360  019F                     	;# 
   361  020C                     	;# 
   362  020D                     	;# 
   363  0211                     	;# 
   364  0211                     	;# 
   365  0212                     	;# 
   366  0212                     	;# 
   367  0213                     	;# 
   368  0213                     	;# 
   369  0214                     	;# 
   370  0214                     	;# 
   371  0215                     	;# 
   372  0215                     	;# 
   373  0215                     	;# 
   374  0216                     	;# 
   375  0216                     	;# 
   376  0217                     	;# 
   377  0217                     	;# 
   378  0219                     	;# 
   379  021A                     	;# 
   380  021B                     	;# 
   381  021C                     	;# 
   382  021D                     	;# 
   383  021E                     	;# 
   384  021F                     	;# 
   385  0291                     	;# 
   386  0291                     	;# 
   387  0292                     	;# 
   388  0293                     	;# 
   389  0294                     	;# 
   390  0295                     	;# 
   391  0295                     	;# 
   392  0296                     	;# 
   393  0298                     	;# 
   394  0298                     	;# 
   395  0299                     	;# 
   396  029A                     	;# 
   397  029B                     	;# 
   398  029C                     	;# 
   399  029C                     	;# 
   400  029D                     	;# 
   401  029E                     	;# 
   402  029E                     	;# 
   403  0311                     	;# 
   404  0311                     	;# 
   405  0312                     	;# 
   406  0313                     	;# 
   407  0318                     	;# 
   408  0318                     	;# 
   409  0319                     	;# 
   410  031A                     	;# 
   411  0394                     	;# 
   412  0395                     	;# 
   413  0396                     	;# 
   414  039A                     	;# 
   415  039C                     	;# 
   416  039D                     	;# 
   417  039E                     	;# 
   418  039F                     	;# 
   419  0415                     	;# 
   420  0416                     	;# 
   421  0417                     	;# 
   422  041C                     	;# 
   423  041D                     	;# 
   424  041E                     	;# 
   425  0FE4                     	;# 
   426  0FE5                     	;# 
   427  0FE6                     	;# 
   428  0FE7                     	;# 
   429  0FE8                     	;# 
   430  0FE9                     	;# 
   431  0FEA                     	;# 
   432  0FEB                     	;# 
   433  0FED                     	;# 
   434  0FEE                     	;# 
   435  0FEF                     	;# 
   436  0000                     	;# 
   437  0001                     	;# 
   438  0002                     	;# 
   439  0003                     	;# 
   440  0004                     	;# 
   441  0005                     	;# 
   442  0006                     	;# 
   443  0007                     	;# 
   444  0008                     	;# 
   445  0009                     	;# 
   446  000A                     	;# 
   447  000B                     	;# 
   448  000C                     	;# 
   449  000D                     	;# 
   450  0011                     	;# 
   451  0012                     	;# 
   452  0013                     	;# 
   453  0014                     	;# 
   454  0015                     	;# 
   455  0016                     	;# 
   456  0016                     	;# 
   457  0017                     	;# 
   458  0018                     	;# 
   459  0019                     	;# 
   460  001A                     	;# 
   461  001B                     	;# 
   462  001C                     	;# 
   463  001E                     	;# 
   464  001F                     	;# 
   465  008C                     	;# 
   466  008D                     	;# 
   467  0091                     	;# 
   468  0092                     	;# 
   469  0093                     	;# 
   470  0094                     	;# 
   471  0095                     	;# 
   472  0096                     	;# 
   473  0097                     	;# 
   474  0098                     	;# 
   475  0099                     	;# 
   476  009A                     	;# 
   477  009B                     	;# 
   478  009B                     	;# 
   479  009C                     	;# 
   480  009D                     	;# 
   481  009E                     	;# 
   482  010C                     	;# 
   483  010D                     	;# 
   484  0111                     	;# 
   485  0112                     	;# 
   486  0113                     	;# 
   487  0114                     	;# 
   488  0115                     	;# 
   489  0116                     	;# 
   490  0117                     	;# 
   491  0118                     	;# 
   492  0119                     	;# 
   493  011A                     	;# 
   494  011B                     	;# 
   495  011D                     	;# 
   496  011E                     	;# 
   497  018C                     	;# 
   498  018D                     	;# 
   499  0191                     	;# 
   500  0191                     	;# 
   501  0192                     	;# 
   502  0193                     	;# 
   503  0193                     	;# 
   504  0193                     	;# 
   505  0194                     	;# 
   506  0195                     	;# 
   507  0196                     	;# 
   508  0199                     	;# 
   509  019A                     	;# 
   510  019B                     	;# 
   511  019B                     	;# 
   512  019B                     	;# 
   513  019B                     	;# 
   514  019C                     	;# 
   515  019C                     	;# 
   516  019D                     	;# 
   517  019E                     	;# 
   518  019F                     	;# 
   519  020C                     	;# 
   520  020D                     	;# 
   521  0211                     	;# 
   522  0211                     	;# 
   523  0212                     	;# 
   524  0212                     	;# 
   525  0213                     	;# 
   526  0213                     	;# 
   527  0214                     	;# 
   528  0214                     	;# 
   529  0215                     	;# 
   530  0215                     	;# 
   531  0215                     	;# 
   532  0216                     	;# 
   533  0216                     	;# 
   534  0217                     	;# 
   535  0217                     	;# 
   536  0219                     	;# 
   537  021A                     	;# 
   538  021B                     	;# 
   539  021C                     	;# 
   540  021D                     	;# 
   541  021E                     	;# 
   542  021F                     	;# 
   543  0291                     	;# 
   544  0291                     	;# 
   545  0292                     	;# 
   546  0293                     	;# 
   547  0294                     	;# 
   548  0295                     	;# 
   549  0295                     	;# 
   550  0296                     	;# 
   551  0298                     	;# 
   552  0298                     	;# 
   553  0299                     	;# 
   554  029A                     	;# 
   555  029B                     	;# 
   556  029C                     	;# 
   557  029C                     	;# 
   558  029D                     	;# 
   559  029E                     	;# 
   560  029E                     	;# 
   561  0311                     	;# 
   562  0311                     	;# 
   563  0312                     	;# 
   564  0313                     	;# 
   565  0318                     	;# 
   566  0318                     	;# 
   567  0319                     	;# 
   568  031A                     	;# 
   569  0394                     	;# 
   570  0395                     	;# 
   571  0396                     	;# 
   572  039A                     	;# 
   573  039C                     	;# 
   574  039D                     	;# 
   575  039E                     	;# 
   576  039F                     	;# 
   577  0415                     	;# 
   578  0416                     	;# 
   579  0417                     	;# 
   580  041C                     	;# 
   581  041D                     	;# 
   582  041E                     	;# 
   583  0FE4                     	;# 
   584  0FE5                     	;# 
   585  0FE6                     	;# 
   586  0FE7                     	;# 
   587  0FE8                     	;# 
   588  0FE9                     	;# 
   589  0FEA                     	;# 
   590  0FEB                     	;# 
   591  0FED                     	;# 
   592  0FEE                     	;# 
   593  0FEF                     	;# 
   594  0000                     	;# 
   595  0001                     	;# 
   596  0002                     	;# 
   597  0003                     	;# 
   598  0004                     	;# 
   599  0005                     	;# 
   600  0006                     	;# 
   601  0007                     	;# 
   602  0008                     	;# 
   603  0009                     	;# 
   604  000A                     	;# 
   605  000B                     	;# 
   606  000C                     	;# 
   607  000D                     	;# 
   608  0011                     	;# 
   609  0012                     	;# 
   610  0013                     	;# 
   611  0014                     	;# 
   612  0015                     	;# 
   613  0016                     	;# 
   614  0016                     	;# 
   615  0017                     	;# 
   616  0018                     	;# 
   617  0019                     	;# 
   618  001A                     	;# 
   619  001B                     	;# 
   620  001C                     	;# 
   621  001E                     	;# 
   622  001F                     	;# 
   623  008C                     	;# 
   624  008D                     	;# 
   625  0091                     	;# 
   626  0092                     	;# 
   627  0093                     	;# 
   628  0094                     	;# 
   629  0095                     	;# 
   630  0096                     	;# 
   631  0097                     	;# 
   632  0098                     	;# 
   633  0099                     	;# 
   634  009A                     	;# 
   635  009B                     	;# 
   636  009B                     	;# 
   637  009C                     	;# 
   638  009D                     	;# 
   639  009E                     	;# 
   640  010C                     	;# 
   641  010D                     	;# 
   642  0111                     	;# 
   643  0112                     	;# 
   644  0113                     	;# 
   645  0114                     	;# 
   646  0115                     	;# 
   647  0116                     	;# 
   648  0117                     	;# 
   649  0118                     	;# 
   650  0119                     	;# 
   651  011A                     	;# 
   652  011B                     	;# 
   653  011D                     	;# 
   654  011E                     	;# 
   655  018C                     	;# 
   656  018D                     	;# 
   657  0191                     	;# 
   658  0191                     	;# 
   659  0192                     	;# 
   660  0193                     	;# 
   661  0193                     	;# 
   662  0193                     	;# 
   663  0194                     	;# 
   664  0195                     	;# 
   665  0196                     	;# 
   666  0199                     	;# 
   667  019A                     	;# 
   668  019B                     	;# 
   669  019B                     	;# 
   670  019B                     	;# 
   671  019B                     	;# 
   672  019C                     	;# 
   673  019C                     	;# 
   674  019D                     	;# 
   675  019E                     	;# 
   676  019F                     	;# 
   677  020C                     	;# 
   678  020D                     	;# 
   679  0211                     	;# 
   680  0211                     	;# 
   681  0212                     	;# 
   682  0212                     	;# 
   683  0213                     	;# 
   684  0213                     	;# 
   685  0214                     	;# 
   686  0214                     	;# 
   687  0215                     	;# 
   688  0215                     	;# 
   689  0215                     	;# 
   690  0216                     	;# 
   691  0216                     	;# 
   692  0217                     	;# 
   693  0217                     	;# 
   694  0219                     	;# 
   695  021A                     	;# 
   696  021B                     	;# 
   697  021C                     	;# 
   698  021D                     	;# 
   699  021E                     	;# 
   700  021F                     	;# 
   701  0291                     	;# 
   702  0291                     	;# 
   703  0292                     	;# 
   704  0293                     	;# 
   705  0294                     	;# 
   706  0295                     	;# 
   707  0295                     	;# 
   708  0296                     	;# 
   709  0298                     	;# 
   710  0298                     	;# 
   711  0299                     	;# 
   712  029A                     	;# 
   713  029B                     	;# 
   714  029C                     	;# 
   715  029C                     	;# 
   716  029D                     	;# 
   717  029E                     	;# 
   718  029E                     	;# 
   719  0311                     	;# 
   720  0311                     	;# 
   721  0312                     	;# 
   722  0313                     	;# 
   723  0318                     	;# 
   724  0318                     	;# 
   725  0319                     	;# 
   726  031A                     	;# 
   727  0394                     	;# 
   728  0395                     	;# 
   729  0396                     	;# 
   730  039A                     	;# 
   731  039C                     	;# 
   732  039D                     	;# 
   733  039E                     	;# 
   734  039F                     	;# 
   735  0415                     	;# 
   736  0416                     	;# 
   737  0417                     	;# 
   738  041C                     	;# 
   739  041D                     	;# 
   740  041E                     	;# 
   741  0FE4                     	;# 
   742  0FE5                     	;# 
   743  0FE6                     	;# 
   744  0FE7                     	;# 
   745  0FE8                     	;# 
   746  0FE9                     	;# 
   747  0FEA                     	;# 
   748  0FEB                     	;# 
   749  0FED                     	;# 
   750  0FEE                     	;# 
   751  0FEF                     	;# 
   752  0000                     	;# 
   753  0001                     	;# 
   754  0002                     	;# 
   755  0003                     	;# 
   756  0004                     	;# 
   757  0005                     	;# 
   758  0006                     	;# 
   759  0007                     	;# 
   760  0008                     	;# 
   761  0009                     	;# 
   762  000A                     	;# 
   763  000B                     	;# 
   764  000C                     	;# 
   765  000D                     	;# 
   766  0011                     	;# 
   767  0012                     	;# 
   768  0013                     	;# 
   769  0014                     	;# 
   770  0015                     	;# 
   771  0016                     	;# 
   772  0016                     	;# 
   773  0017                     	;# 
   774  0018                     	;# 
   775  0019                     	;# 
   776  001A                     	;# 
   777  001B                     	;# 
   778  001C                     	;# 
   779  001E                     	;# 
   780  001F                     	;# 
   781  008C                     	;# 
   782  008D                     	;# 
   783  0091                     	;# 
   784  0092                     	;# 
   785  0093                     	;# 
   786  0094                     	;# 
   787  0095                     	;# 
   788  0096                     	;# 
   789  0097                     	;# 
   790  0098                     	;# 
   791  0099                     	;# 
   792  009A                     	;# 
   793  009B                     	;# 
   794  009B                     	;# 
   795  009C                     	;# 
   796  009D                     	;# 
   797  009E                     	;# 
   798  010C                     	;# 
   799  010D                     	;# 
   800  0111                     	;# 
   801  0112                     	;# 
   802  0113                     	;# 
   803  0114                     	;# 
   804  0115                     	;# 
   805  0116                     	;# 
   806  0117                     	;# 
   807  0118                     	;# 
   808  0119                     	;# 
   809  011A                     	;# 
   810  011B                     	;# 
   811  011D                     	;# 
   812  011E                     	;# 
   813  018C                     	;# 
   814  018D                     	;# 
   815  0191                     	;# 
   816  0191                     	;# 
   817  0192                     	;# 
   818  0193                     	;# 
   819  0193                     	;# 
   820  0193                     	;# 
   821  0194                     	;# 
   822  0195                     	;# 
   823  0196                     	;# 
   824  0199                     	;# 
   825  019A                     	;# 
   826  019B                     	;# 
   827  019B                     	;# 
   828  019B                     	;# 
   829  019B                     	;# 
   830  019C                     	;# 
   831  019C                     	;# 
   832  019D                     	;# 
   833  019E                     	;# 
   834  019F                     	;# 
   835  020C                     	;# 
   836  020D                     	;# 
   837  0211                     	;# 
   838  0211                     	;# 
   839  0212                     	;# 
   840  0212                     	;# 
   841  0213                     	;# 
   842  0213                     	;# 
   843  0214                     	;# 
   844  0214                     	;# 
   845  0215                     	;# 
   846  0215                     	;# 
   847  0215                     	;# 
   848  0216                     	;# 
   849  0216                     	;# 
   850  0217                     	;# 
   851  0217                     	;# 
   852  0219                     	;# 
   853  021A                     	;# 
   854  021B                     	;# 
   855  021C                     	;# 
   856  021D                     	;# 
   857  021E                     	;# 
   858  021F                     	;# 
   859  0291                     	;# 
   860  0291                     	;# 
   861  0292                     	;# 
   862  0293                     	;# 
   863  0294                     	;# 
   864  0295                     	;# 
   865  0295                     	;# 
   866  0296                     	;# 
   867  0298                     	;# 
   868  0298                     	;# 
   869  0299                     	;# 
   870  029A                     	;# 
   871  029B                     	;# 
   872  029C                     	;# 
   873  029C                     	;# 
   874  029D                     	;# 
   875  029E                     	;# 
   876  029E                     	;# 
   877  0311                     	;# 
   878  0311                     	;# 
   879  0312                     	;# 
   880  0313                     	;# 
   881  0318                     	;# 
   882  0318                     	;# 
   883  0319                     	;# 
   884  031A                     	;# 
   885  0394                     	;# 
   886  0395                     	;# 
   887  0396                     	;# 
   888  039A                     	;# 
   889  039C                     	;# 
   890  039D                     	;# 
   891  039E                     	;# 
   892  039F                     	;# 
   893  0415                     	;# 
   894  0416                     	;# 
   895  0417                     	;# 
   896  041C                     	;# 
   897  041D                     	;# 
   898  041E                     	;# 
   899  0FE4                     	;# 
   900  0FE5                     	;# 
   901  0FE6                     	;# 
   902  0FE7                     	;# 
   903  0FE8                     	;# 
   904  0FE9                     	;# 
   905  0FEA                     	;# 
   906  0FEB                     	;# 
   907  0FED                     	;# 
   908  0FEE                     	;# 
   909  0FEF                     	;# 
   910                           
   911                           	psect	idataBANK0
   912  0317                     __pidataBANK0:
   913                           
   914                           ;initializer for _BackLight_State
   915  0317  3408               	retlw	8
   916                           
   917                           	psect	stringtext1
   918  0800                     __pstringtext1:
   919  0800                     _i2c1_fsmStateTable:
   920  0800  3448               	retlw	low _I2C1_DO_IDLE
   921  0801  3403               	retlw	high _I2C1_DO_IDLE
   922  0802  34A2               	retlw	low _I2C1_DO_SEND_ADR_READ
   923  0803  3403               	retlw	high _I2C1_DO_SEND_ADR_READ
   924  0804  349A               	retlw	low _I2C1_DO_SEND_ADR_WRITE
   925  0805  3403               	retlw	high _I2C1_DO_SEND_ADR_WRITE
   926  0806  34FF               	retlw	low _I2C1_DO_TX
   927  0807  3406               	retlw	high _I2C1_DO_TX
   928  0808  3473               	retlw	low _I2C1_DO_RX
   929  0809  3406               	retlw	high _I2C1_DO_RX
   930  080A  348C               	retlw	low _I2C1_DO_RCEN
   931  080B  3403               	retlw	high _I2C1_DO_RCEN
   932  080C  34DB               	retlw	low _I2C1_DO_TX_EMPTY
   933  080D  3405               	retlw	high _I2C1_DO_TX_EMPTY
   934  080E  344D               	retlw	low _I2C1_DO_SEND_RESTART_READ
   935  080F  3403               	retlw	high _I2C1_DO_SEND_RESTART_READ
   936  0810  3452               	retlw	low _I2C1_DO_SEND_RESTART_WRITE
   937  0811  3403               	retlw	high _I2C1_DO_SEND_RESTART_WRITE
   938  0812  3457               	retlw	low _I2C1_DO_SEND_RESTART
   939  0813  3403               	retlw	high _I2C1_DO_SEND_RESTART
   940  0814  345C               	retlw	low _I2C1_DO_SEND_STOP
   941  0815  3403               	retlw	high _I2C1_DO_SEND_STOP
   942  0816  3461               	retlw	low _I2C1_DO_RX_ACK
   943  0817  3403               	retlw	high _I2C1_DO_RX_ACK
   944  0818  3466               	retlw	low _I2C1_DO_RX_NACK_STOP
   945  0819  3403               	retlw	high _I2C1_DO_RX_NACK_STOP
   946  081A  346B               	retlw	low _I2C1_DO_RX_NACK_RESTART
   947  081B  3403               	retlw	high _I2C1_DO_RX_NACK_RESTART
   948  081C  3470               	retlw	low _I2C1_DO_RESET
   949  081D  3403               	retlw	high _I2C1_DO_RESET
   950  081E  34AF               	retlw	low _I2C1_DO_ADDRESS_NACK
   951  081F  3405               	retlw	high _I2C1_DO_ADDRESS_NACK
   952  0820                     __end_of_i2c1_fsmStateTable:
   953                           
   954                           	psect	nvBANK0
   955  0054                     __pnvBANK0:
   956  0054                     _i2c_add:
   957  0054                     	ds	1
   958  0011                     _PIR1bits	set	17
   959  0012                     _PIR2bits	set	18
   960  0097                     _WDTCON	set	151
   961  0098                     _OSCTUNE	set	152
   962  0099                     _OSCCON	set	153
   963  0091                     _PIE1bits	set	145
   964  0095                     _OPTION_REGbits	set	149
   965  008D                     _TRISB	set	141
   966  008C                     _TRISA	set	140
   967  0116                     _BORCON	set	278
   968  011E                     _APFCON1	set	286
   969  011D                     _APFCON0	set	285
   970  010D                     _LATB	set	269
   971  010C                     _LATA	set	268
   972  018C                     _ANSELA	set	396
   973  018D                     _ANSELB	set	397
   974  0214                     _SSP1STATbits	set	532
   975  0216                     _SSP1CON2bits	set	534
   976  0211                     _SSP1BUF	set	529
   977  0215                     _SSP1CON1bits	set	533
   978  0212                     _SSP1ADD	set	530
   979  0216                     _SSP1CON2	set	534
   980  0215                     _SSP1CON1	set	533
   981  0214                     _SSP1STAT	set	532
   982  020C                     _WPUA	set	524
   983  020D                     _WPUB	set	525
   984                           
   985                           	psect	stringtext2
   986  0820                     __pstringtext2:
   987  0820                     STR_2:
   988  0820  3420               	retlw	32	;' '
   989  0821  3453               	retlw	83	;'S'
   990  0822  3465               	retlw	101	;'e'
   991  0823  3463               	retlw	99	;'c'
   992  0824  346F               	retlw	111	;'o'
   993  0825  346E               	retlw	110	;'n'
   994  0826  3464               	retlw	100	;'d'
   995  0827  3461               	retlw	97	;'a'
   996  0828  3420               	retlw	32	;' '
   997  0829  3452               	retlw	82	;'R'
   998  082A  3469               	retlw	105	;'i'
   999  082B  3467               	retlw	103	;'g'
  1000  082C  3461               	retlw	97	;'a'
  1001  082D  3420               	retlw	32	;' '
  1002  082E  3421               	retlw	33	;'!'
  1003  082F  3420               	retlw	32	;' '
  1004  0830  3400               	retlw	0
  1005                           
  1006                           	psect	stringtext3
  1007  0831                     __pstringtext3:
  1008  0831                     STR_4:
  1009  0831  3420               	retlw	32	;' '
  1010  0832  3451               	retlw	81	;'Q'
  1011  0833  3475               	retlw	117	;'u'
  1012  0834  3461               	retlw	97	;'a'
  1013  0835  3472               	retlw	114	;'r'
  1014  0836  3474               	retlw	116	;'t'
  1015  0837  3461               	retlw	97	;'a'
  1016  0838  3420               	retlw	32	;' '
  1017  0839  3452               	retlw	82	;'R'
  1018  083A  3469               	retlw	105	;'i'
  1019  083B  3467               	retlw	103	;'g'
  1020  083C  3461               	retlw	97	;'a'
  1021  083D  3420               	retlw	32	;' '
  1022  083E  3421               	retlw	33	;'!'
  1023  083F  3420               	retlw	32	;' '
  1024  0840  3400               	retlw	0
  1025                           
  1026                           	psect	stringtext4
  1027  0841                     __pstringtext4:
  1028  0841                     STR_1:
  1029  0841  3420               	retlw	32	;' '
  1030  0842  3450               	retlw	80	;'P'
  1031  0843  3472               	retlw	114	;'r'
  1032  0844  3469               	retlw	105	;'i'
  1033  0845  346D               	retlw	109	;'m'
  1034  0846  3461               	retlw	97	;'a'
  1035  0847  3420               	retlw	32	;' '
  1036  0848  3452               	retlw	82	;'R'
  1037  0849  3469               	retlw	105	;'i'
  1038  084A  3467               	retlw	103	;'g'
  1039  084B  3461               	retlw	97	;'a'
  1040  084C  3420               	retlw	32	;' '
  1041  084D  3421               	retlw	33	;'!'
  1042  084E  3421               	retlw	33	;'!'
  1043  084F  3420               	retlw	32	;' '
  1044  0850  3400               	retlw	0
  1045                           
  1046                           	psect	stringtext5
  1047  0851                     __pstringtext5:
  1048  0851                     STR_3:
  1049  0851  3420               	retlw	32	;' '
  1050  0852  3454               	retlw	84	;'T'
  1051  0853  3465               	retlw	101	;'e'
  1052  0854  3472               	retlw	114	;'r'
  1053  0855  347A               	retlw	122	;'z'
  1054  0856  3461               	retlw	97	;'a'
  1055  0857  3420               	retlw	32	;' '
  1056  0858  3452               	retlw	82	;'R'
  1057  0859  3469               	retlw	105	;'i'
  1058  085A  3467               	retlw	103	;'g'
  1059  085B  3461               	retlw	97	;'a'
  1060  085C  3420               	retlw	32	;' '
  1061  085D  3421               	retlw	33	;'!'
  1062  085E  3420               	retlw	32	;' '
  1063  085F  3400               	retlw	0
  1064                           
  1065                           	psect	stringtext6
  1066  0000                     __pstringtext6:
  1067                           
  1068                           	psect	cinit
  1069  07F1                     start_initialization:	
  1070                           ; #config settings
  1071                           
  1072  07F1                     __initialization:
  1073                           
  1074                           ; Initialize objects allocated to BANK0
  1075  07F1  3183  2317  3187   	fcall	__pidataBANK0	;fetch initializer
  1076  07F4  00D5               	movwf	__pdataBANK0& (0+127)
  1077                           
  1078                           ; Clear objects allocated to BANK0
  1079  07F5  3020               	movlw	low __pbssBANK0
  1080  07F6  0084               	movwf	4
  1081  07F7  3000               	movlw	high __pbssBANK0
  1082  07F8  0085               	movwf	5
  1083  07F9  301E               	movlw	30
  1084  07FA  3183  2386  3187   	fcall	clear_ram0
  1085  07FD                     end_of_initialization:	
  1086                           ;End of C runtime variable initialization code
  1087                           
  1088  07FD                     __end_of__initialization:
  1089  07FD  0020               	movlb	0
  1090  07FE  3186  2EB9         	ljmp	_main	;jump to C main() function
  1091                           
  1092                           	psect	bssBANK0
  1093  0020                     __pbssBANK0:
  1094  0020                     _I2C1_Status:
  1095  0020                     	ds	29
  1096  003D                     _RS:
  1097  003D                     	ds	1
  1098                           
  1099                           	psect	dataBANK0
  1100  0055                     __pdataBANK0:
  1101  0055                     _BackLight_State:
  1102  0055                     	ds	1
  1103                           
  1104                           	psect	clrtext
  1105  0386                     clear_ram0:	
  1106                           ;	Called with FSR0 containing the base address, and
  1107                           ;	WREG with the size to clear
  1108                           
  1109  0386  0064               	clrwdt	;clear the watchdog before getting into this loop
  1110  0387                     clrloop0:
  1111  0387  0180               	clrf	0	;clear RAM location pointed to by FSR
  1112  0388  3101               	addfsr 0,1
  1113  0389  0B89               	decfsz	9,f	;Have we reached the end of clearing yet?
  1114  038A  2B87               	goto	clrloop0	;have we reached the end yet?
  1115  038B  3400               	retlw	0	;all done for this memory range, return
  1116                           
  1117                           	psect	cstackCOMMON
  1118  0070                     __pcstackCOMMON:
  1119  0070                     ?_I2C1_Open:
  1120  0070                     ??_I2C1_Open:	
  1121                           ; 1 bytes @ 0x0
  1122                           
  1123  0070                     ?_I2C1_SetBuffer:	
  1124                           ; 1 bytes @ 0x0
  1125                           
  1126  0070                     ?_I2C1_MasterWrite:	
  1127                           ; 1 bytes @ 0x0
  1128                           
  1129  0070                     ?_I2C1_Close:	
  1130                           ; 1 bytes @ 0x0
  1131                           
  1132  0070                     ??_I2C1_Close:	
  1133                           ; 1 bytes @ 0x0
  1134                           
  1135  0070                     ?_I2C1_DO_IDLE:	
  1136                           ; 1 bytes @ 0x0
  1137                           
  1138  0070                     ??_I2C1_DO_IDLE:	
  1139                           ; 1 bytes @ 0x0
  1140                           
  1141  0070                     ?_I2C1_DO_SEND_ADR_READ:	
  1142                           ; 1 bytes @ 0x0
  1143                           
  1144  0070                     ??_I2C1_DO_SEND_ADR_READ:	
  1145                           ; 1 bytes @ 0x0
  1146                           
  1147  0070                     ?_I2C1_DO_SEND_ADR_WRITE:	
  1148                           ; 1 bytes @ 0x0
  1149                           
  1150  0070                     ?_I2C1_DO_TX:	
  1151                           ; 1 bytes @ 0x0
  1152                           
  1153  0070                     ?_I2C1_DO_RX:	
  1154                           ; 1 bytes @ 0x0
  1155                           
  1156  0070                     ?_I2C1_DO_RCEN:	
  1157                           ; 1 bytes @ 0x0
  1158                           
  1159  0070                     ??_I2C1_DO_RCEN:	
  1160                           ; 1 bytes @ 0x0
  1161                           
  1162  0070                     ?_I2C1_DO_TX_EMPTY:	
  1163                           ; 1 bytes @ 0x0
  1164                           
  1165  0070                     ?_I2C1_DO_SEND_RESTART_READ:	
  1166                           ; 1 bytes @ 0x0
  1167                           
  1168  0070                     ??_I2C1_DO_SEND_RESTART_READ:	
  1169                           ; 1 bytes @ 0x0
  1170                           
  1171  0070                     ?_I2C1_DO_SEND_RESTART_WRITE:	
  1172                           ; 1 bytes @ 0x0
  1173                           
  1174  0070                     ??_I2C1_DO_SEND_RESTART_WRITE:	
  1175                           ; 1 bytes @ 0x0
  1176                           
  1177  0070                     ?_I2C1_DO_SEND_RESTART:	
  1178                           ; 1 bytes @ 0x0
  1179                           
  1180  0070                     ??_I2C1_DO_SEND_RESTART:	
  1181                           ; 1 bytes @ 0x0
  1182                           
  1183  0070                     ?_I2C1_DO_SEND_STOP:	
  1184                           ; 1 bytes @ 0x0
  1185                           
  1186  0070                     ??_I2C1_DO_SEND_STOP:	
  1187                           ; 1 bytes @ 0x0
  1188                           
  1189  0070                     ?_I2C1_DO_RX_ACK:	
  1190                           ; 1 bytes @ 0x0
  1191                           
  1192  0070                     ??_I2C1_DO_RX_ACK:	
  1193                           ; 1 bytes @ 0x0
  1194                           
  1195  0070                     ?_I2C1_DO_RX_NACK_STOP:	
  1196                           ; 1 bytes @ 0x0
  1197                           
  1198  0070                     ??_I2C1_DO_RX_NACK_STOP:	
  1199                           ; 1 bytes @ 0x0
  1200                           
  1201  0070                     ?_I2C1_DO_RX_NACK_RESTART:	
  1202                           ; 1 bytes @ 0x0
  1203                           
  1204  0070                     ??_I2C1_DO_RX_NACK_RESTART:	
  1205                           ; 1 bytes @ 0x0
  1206                           
  1207  0070                     ?_I2C1_DO_RESET:	
  1208                           ; 1 bytes @ 0x0
  1209                           
  1210  0070                     ??_I2C1_DO_RESET:	
  1211                           ; 1 bytes @ 0x0
  1212                           
  1213  0070                     ?_I2C1_DO_ADDRESS_NACK:	
  1214                           ; 1 bytes @ 0x0
  1215                           
  1216  0070                     ?_I2C1_MasterClearIrq:	
  1217                           ; 1 bytes @ 0x0
  1218                           
  1219  0070                     ??_I2C1_MasterClearIrq:	
  1220                           ; 1 bytes @ 0x0
  1221                           
  1222  0070                     ?_I2C1_MasterOpen:	
  1223                           ; 1 bytes @ 0x0
  1224                           
  1225  0070                     ??_I2C1_MasterOpen:	
  1226                           ; 1 bytes @ 0x0
  1227                           
  1228  0070                     ?_I2C1_MasterDisableIrq:	
  1229                           ; 1 bytes @ 0x0
  1230                           
  1231  0070                     ??_I2C1_MasterDisableIrq:	
  1232                           ; 1 bytes @ 0x0
  1233                           
  1234  0070                     ?_I2C1_MasterClose:	
  1235                           ; 1 bytes @ 0x0
  1236                           
  1237  0070                     ??_I2C1_MasterClose:	
  1238                           ; 1 bytes @ 0x0
  1239                           
  1240  0070                     ?_I2C1_MasterStart:	
  1241                           ; 1 bytes @ 0x0
  1242                           
  1243  0070                     ??_I2C1_MasterStart:	
  1244                           ; 1 bytes @ 0x0
  1245                           
  1246  0070                     ?_I2C1_Poller:	
  1247                           ; 1 bytes @ 0x0
  1248                           
  1249  0070                     ?_I2C1_SetCallback:	
  1250                           ; 1 bytes @ 0x0
  1251                           
  1252  0070                     ?_I2C1_MasterWaitForEvent:	
  1253                           ; 1 bytes @ 0x0
  1254                           
  1255  0070                     ??_I2C1_MasterWaitForEvent:	
  1256                           ; 1 bytes @ 0x0
  1257                           
  1258  0070                     ?_I2C1_MasterFsm:	
  1259                           ; 1 bytes @ 0x0
  1260                           
  1261  0070                     ?_I2C1_MasterIsNack:	
  1262                           ; 1 bytes @ 0x0
  1263                           
  1264  0070                     ??_I2C1_MasterIsNack:	
  1265                           ; 1 bytes @ 0x0
  1266                           
  1267  0070                     ?_I2C1_MasterSendTxData:	
  1268                           ; 1 bytes @ 0x0
  1269                           
  1270  0070                     ??_I2C1_MasterSendTxData:	
  1271                           ; 1 bytes @ 0x0
  1272                           
  1273  0070                     ?_I2C1_MasterGetRxData:	
  1274                           ; 1 bytes @ 0x0
  1275                           
  1276  0070                     ??_I2C1_MasterGetRxData:	
  1277                           ; 1 bytes @ 0x0
  1278                           
  1279  0070                     ?_I2C1_MasterSendAck:	
  1280                           ; 1 bytes @ 0x0
  1281                           
  1282  0070                     ??_I2C1_MasterSendAck:	
  1283                           ; 1 bytes @ 0x0
  1284                           
  1285  0070                     ?_I2C1_MasterStartRx:	
  1286                           ; 1 bytes @ 0x0
  1287                           
  1288  0070                     ??_I2C1_MasterStartRx:	
  1289                           ; 1 bytes @ 0x0
  1290                           
  1291  0070                     ?_I2C1_MasterSetIrq:	
  1292                           ; 1 bytes @ 0x0
  1293                           
  1294  0070                     ??_I2C1_MasterSetIrq:	
  1295                           ; 1 bytes @ 0x0
  1296                           
  1297  0070                     ?_I2C1_MasterEnableRestart:	
  1298                           ; 1 bytes @ 0x0
  1299                           
  1300  0070                     ??_I2C1_MasterEnableRestart:	
  1301                           ; 1 bytes @ 0x0
  1302                           
  1303  0070                     ?_I2C1_MasterStop:	
  1304                           ; 1 bytes @ 0x0
  1305                           
  1306  0070                     ??_I2C1_MasterStop:	
  1307                           ; 1 bytes @ 0x0
  1308                           
  1309  0070                     ?_I2C1_MasterSendNack:	
  1310                           ; 1 bytes @ 0x0
  1311                           
  1312  0070                     ??_I2C1_MasterSendNack:	
  1313                           ; 1 bytes @ 0x0
  1314                           
  1315  0070                     ?_OSCILLATOR_Initialize:	
  1316                           ; 1 bytes @ 0x0
  1317                           
  1318  0070                     ??_OSCILLATOR_Initialize:	
  1319                           ; 1 bytes @ 0x0
  1320                           
  1321  0070                     ?_WDT_Initialize:	
  1322                           ; 1 bytes @ 0x0
  1323                           
  1324  0070                     ??_WDT_Initialize:	
  1325                           ; 1 bytes @ 0x0
  1326                           
  1327  0070                     ?_IO_Expander_Write:	
  1328                           ; 1 bytes @ 0x0
  1329                           
  1330  0070                     ?_LCD_Write_4Bit:	
  1331                           ; 1 bytes @ 0x0
  1332                           
  1333  0070                     ?_LCD_CMD:	
  1334                           ; 1 bytes @ 0x0
  1335                           
  1336  0070                     ?_PIN_MANAGER_Initialize:	
  1337                           ; 1 bytes @ 0x0
  1338                           
  1339  0070                     ??_PIN_MANAGER_Initialize:	
  1340                           ; 1 bytes @ 0x0
  1341                           
  1342  0070                     ?_I2C1_Initialize:	
  1343                           ; 1 bytes @ 0x0
  1344                           
  1345  0070                     ??_I2C1_Initialize:	
  1346                           ; 1 bytes @ 0x0
  1347                           
  1348  0070                     ?_I2C1_MasterOperation:	
  1349                           ; 1 bytes @ 0x0
  1350                           
  1351  0070                     ?_SYSTEM_Initialize:	
  1352                           ; 1 bytes @ 0x0
  1353                           
  1354  0070                     ??_SYSTEM_Initialize:	
  1355                           ; 1 bytes @ 0x0
  1356                           
  1357  0070                     ?_LCD_Init:	
  1358                           ; 1 bytes @ 0x0
  1359                           
  1360  0070                     ?_IO_pulseEnable:	
  1361                           ; 1 bytes @ 0x0
  1362                           
  1363  0070                     ?_LCD_Write_Char:	
  1364                           ; 1 bytes @ 0x0
  1365                           
  1366  0070                     ?_main:	
  1367                           ; 1 bytes @ 0x0
  1368                           
  1369  0070                     I2C1_MasterSendTxData@data:	
  1370                           ; 1 bytes @ 0x0
  1371                           
  1372  0070                     I2C1_SetBuffer@bufferSize:	
  1373                           ; 1 bytes @ 0x0
  1374                           
  1375  0070                     I2C1_SetCallback@cb:	
  1376                           ; 2 bytes @ 0x0
  1377                           
  1378                           
  1379                           ; 2 bytes @ 0x0
  1380  0070                     	ds	1
  1381  0071                     ??_I2C1_DO_SEND_ADR_WRITE:
  1382  0071                     I2C1_Open@address:	
  1383                           ; 1 bytes @ 0x1
  1384                           
  1385  0071                     I2C1_Close@returnValue:	
  1386                           ; 1 bytes @ 0x1
  1387                           
  1388                           
  1389                           ; 1 bytes @ 0x1
  1390  0071                     	ds	1
  1391  0072                     ??_I2C1_SetBuffer:
  1392  0072                     I2C1_Open@returnValue:	
  1393                           ; 1 bytes @ 0x2
  1394                           
  1395  0072                     I2C1_SetCallback@ptr:	
  1396                           ; 1 bytes @ 0x2
  1397                           
  1398                           
  1399                           ; 1 bytes @ 0x2
  1400  0072                     	ds	1
  1401  0073                     ??_I2C1_SetCallback:
  1402  0073                     I2C1_SetBuffer@buffer:	
  1403                           ; 1 bytes @ 0x3
  1404                           
  1405                           
  1406                           ; 1 bytes @ 0x3
  1407  0073                     	ds	1
  1408  0074                     I2C1_SetCallback@idx:
  1409                           
  1410                           ; 1 bytes @ 0x4
  1411  0074                     	ds	1
  1412  0075                     ?_I2C1_SetDataCompleteCallback:
  1413  0075                     ?_I2C1_SetAddressNackCallback:	
  1414                           ; 1 bytes @ 0x5
  1415                           
  1416  0075                     I2C1_SetDataCompleteCallback@cb:	
  1417                           ; 1 bytes @ 0x5
  1418                           
  1419  0075                     I2C1_SetAddressNackCallback@cb:	
  1420                           ; 2 bytes @ 0x5
  1421                           
  1422                           
  1423                           ; 2 bytes @ 0x5
  1424  0075                     	ds	2
  1425  0077                     I2C1_SetDataCompleteCallback@ptr:
  1426  0077                     I2C1_SetAddressNackCallback@ptr:	
  1427                           ; 1 bytes @ 0x7
  1428                           
  1429                           
  1430                           ; 1 bytes @ 0x7
  1431  0077                     	ds	1
  1432  0078                     ??_I2C1_SetDataCompleteCallback:
  1433  0078                     ??_I2C1_SetAddressNackCallback:	
  1434                           ; 1 bytes @ 0x8
  1435                           
  1436                           
  1437                           ; 1 bytes @ 0x8
  1438  0078                     	ds	1
  1439  0079                     ?_rd1RegCompleteHandler:
  1440  0079                     ?_rd2RegCompleteHandler:	
  1441                           ; 1 bytes @ 0x9
  1442                           
  1443  0079                     ?_wr1RegCompleteHandler:	
  1444                           ; 1 bytes @ 0x9
  1445                           
  1446  0079                     ?_wr2RegCompleteHandler:	
  1447                           ; 1 bytes @ 0x9
  1448                           
  1449  0079                     ?_rdBlkRegCompleteHandler:	
  1450                           ; 1 bytes @ 0x9
  1451                           
  1452  0079                     ?_I2C1_CallbackReturnStop:	
  1453                           ; 1 bytes @ 0x9
  1454                           
  1455  0079                     ?_I2C1_CallbackReturnReset:	
  1456                           ; 1 bytes @ 0x9
  1457                           
  1458  0079                     rd1RegCompleteHandler@ptr:	
  1459                           ; 1 bytes @ 0x9
  1460                           
  1461  0079                     rd2RegCompleteHandler@ptr:	
  1462                           ; 1 bytes @ 0x9
  1463                           
  1464  0079                     wr1RegCompleteHandler@ptr:	
  1465                           ; 1 bytes @ 0x9
  1466                           
  1467  0079                     wr2RegCompleteHandler@ptr:	
  1468                           ; 1 bytes @ 0x9
  1469                           
  1470  0079                     rdBlkRegCompleteHandler@ptr:	
  1471                           ; 1 bytes @ 0x9
  1472                           
  1473  0079                     I2C1_CallbackReturnStop@funPtr:	
  1474                           ; 1 bytes @ 0x9
  1475                           
  1476  0079                     I2C1_CallbackReturnReset@funPtr:	
  1477                           ; 1 bytes @ 0x9
  1478                           
  1479                           
  1480                           ; 1 bytes @ 0x9
  1481  0079                     	ds	1
  1482  007A                     ??_rd1RegCompleteHandler:
  1483  007A                     ??_rd2RegCompleteHandler:	
  1484                           ; 1 bytes @ 0xA
  1485                           
  1486  007A                     ??_wr1RegCompleteHandler:	
  1487                           ; 1 bytes @ 0xA
  1488                           
  1489  007A                     ??_wr2RegCompleteHandler:	
  1490                           ; 1 bytes @ 0xA
  1491                           
  1492  007A                     ??_rdBlkRegCompleteHandler:	
  1493                           ; 1 bytes @ 0xA
  1494                           
  1495  007A                     ??_I2C1_DO_TX:	
  1496                           ; 1 bytes @ 0xA
  1497                           
  1498  007A                     ??_I2C1_DO_RX:	
  1499                           ; 1 bytes @ 0xA
  1500                           
  1501  007A                     ??_I2C1_DO_TX_EMPTY:	
  1502                           ; 1 bytes @ 0xA
  1503                           
  1504  007A                     ??_I2C1_DO_ADDRESS_NACK:	
  1505                           ; 1 bytes @ 0xA
  1506                           
  1507  007A                     ??_I2C1_CallbackReturnStop:	
  1508                           ; 1 bytes @ 0xA
  1509                           
  1510  007A                     ??_I2C1_CallbackReturnReset:	
  1511                           ; 1 bytes @ 0xA
  1512                           
  1513                           
  1514                           ; 1 bytes @ 0xA
  1515  007A                     	ds	3
  1516  007D                     ??_I2C1_Poller:
  1517  007D                     ??_I2C1_MasterOperation:	
  1518                           ; 1 bytes @ 0xD
  1519                           
  1520                           
  1521                           ; 1 bytes @ 0xD
  1522  007D                     	ds	1
  1523  007E                     ??_I2C1_MasterWrite:
  1524  007E                     ??_I2C1_WriteNBytes:	
  1525                           ; 1 bytes @ 0xE
  1526                           
  1527  007E                     ??_IO_pulseEnable:	
  1528                           ; 1 bytes @ 0xE
  1529                           
  1530  007E                     ??_main:	
  1531                           ; 1 bytes @ 0xE
  1532                           
  1533                           
  1534                           	psect	cstackBANK0
  1535  003E                     __pcstackBANK0:	
  1536                           ; 1 bytes @ 0xE
  1537                           
  1538  003E                     ??_I2C1_MasterFsm:
  1539                           
  1540                           ; 1 bytes @ 0x0
  1541  003E                     	ds	3
  1542  0041                     I2C1_MasterOperation@read:
  1543                           
  1544                           ; 1 bytes @ 0x3
  1545  0041                     	ds	1
  1546  0042                     I2C1_MasterOperation@returnValue:
  1547                           
  1548                           ; 1 bytes @ 0x4
  1549  0042                     	ds	1
  1550  0043                     ?_I2C1_WriteNBytes:
  1551  0043                     I2C1_WriteNBytes@data:	
  1552                           ; 1 bytes @ 0x5
  1553                           
  1554                           
  1555                           ; 1 bytes @ 0x5
  1556  0043                     	ds	1
  1557  0044                     I2C1_WriteNBytes@len:
  1558                           
  1559                           ; 2 bytes @ 0x6
  1560  0044                     	ds	2
  1561  0046                     I2C1_WriteNBytes@address:
  1562                           
  1563                           ; 1 bytes @ 0x8
  1564  0046                     	ds	1
  1565  0047                     ??_IO_Expander_Write:
  1566                           
  1567                           ; 1 bytes @ 0x9
  1568  0047                     	ds	1
  1569  0048                     IO_Expander_Write@Data:
  1570                           
  1571                           ; 1 bytes @ 0xA
  1572  0048                     	ds	1
  1573  0049                     IO_Expander_Write@dt:
  1574                           
  1575                           ; 1 bytes @ 0xB
  1576  0049                     	ds	1
  1577  004A                     IO_pulseEnable@Data:
  1578                           
  1579                           ; 1 bytes @ 0xC
  1580  004A                     	ds	1
  1581  004B                     ??_LCD_Write_4Bit:
  1582                           
  1583                           ; 1 bytes @ 0xD
  1584  004B                     	ds	1
  1585  004C                     LCD_Write_4Bit@Data:
  1586                           
  1587                           ; 1 bytes @ 0xE
  1588  004C                     	ds	1
  1589  004D                     ??_LCD_CMD:
  1590  004D                     ??_LCD_Write_Char:	
  1591                           ; 1 bytes @ 0xF
  1592                           
  1593                           
  1594                           ; 1 bytes @ 0xF
  1595  004D                     	ds	1
  1596  004E                     LCD_CMD@CMD:
  1597  004E                     LCD_Write_Char@Data:	
  1598                           ; 1 bytes @ 0x10
  1599                           
  1600                           
  1601                           ; 1 bytes @ 0x10
  1602  004E                     	ds	1
  1603  004F                     ??_LCD_Init:
  1604  004F                     ?_LCD_Write_String:	
  1605                           ; 1 bytes @ 0x11
  1606                           
  1607  004F                     ?_LCD_Set_Cursor:	
  1608                           ; 1 bytes @ 0x11
  1609                           
  1610  004F                     LCD_Set_Cursor@COL:	
  1611                           ; 1 bytes @ 0x11
  1612                           
  1613  004F                     LCD_Write_String@Str:	
  1614                           ; 1 bytes @ 0x11
  1615                           
  1616                           
  1617                           ; 2 bytes @ 0x11
  1618  004F                     	ds	1
  1619  0050                     ??_LCD_Set_Cursor:
  1620                           
  1621                           ; 1 bytes @ 0x12
  1622  0050                     	ds	1
  1623  0051                     ??_LCD_Write_String:
  1624  0051                     LCD_Init@I2C_Add:	
  1625                           ; 1 bytes @ 0x13
  1626                           
  1627                           
  1628                           ; 1 bytes @ 0x13
  1629  0051                     	ds	1
  1630  0052                     LCD_Set_Cursor@ROW:
  1631  0052                     LCD_Write_String@i:	
  1632                           ; 1 bytes @ 0x14
  1633                           
  1634                           
  1635                           ; 2 bytes @ 0x14
  1636  0052                     	ds	2
  1637                           
  1638                           	psect	maintext
  1639  06B9                     __pmaintext:	
  1640 ;;
  1641 ;;Main: autosize = 0, tempsize = 0, incstack = 0, save=0
  1642 ;;
  1643 ;; *************** function _main *****************
  1644 ;; Defined at:
  1645 ;;		line 98 in file "main.c"
  1646 ;; Parameters:    Size  Location     Type
  1647 ;;		None
  1648 ;; Auto vars:     Size  Location     Type
  1649 ;;		None
  1650 ;; Return value:  Size  Location     Type
  1651 ;;                  1    wreg      void 
  1652 ;; Registers used:
  1653 ;;		wreg, fsr0l, fsr0h, fsr1l, fsr1h, status,2, status,0, pclath, cstack
  1654 ;; Tracked objects:
  1655 ;;		On entry : B1F/0
  1656 ;;		On exit  : 0/0
  1657 ;;		Unchanged: 0/0
  1658 ;; Data sizes:     COMMON   BANK0   BANK1   BANK2   BANK3   BANK4
  1659 ;;      Params:         0       0       0       0       0       0
  1660 ;;      Locals:         0       0       0       0       0       0
  1661 ;;      Temps:          0       0       0       0       0       0
  1662 ;;      Totals:         0       0       0       0       0       0
  1663 ;;Total ram usage:        0 bytes
  1664 ;; Hardware stack levels required when called: 14
  1665 ;; This function calls:
  1666 ;;		_LCD_Init
  1667 ;;		_LCD_Set_Cursor
  1668 ;;		_LCD_Write_String
  1669 ;;		_SYSTEM_Initialize
  1670 ;; This function is called by:
  1671 ;;		Startup code after reset
  1672 ;; This function uses a non-reentrant model
  1673 ;;
  1674                           
  1675  06B9                     _main:	
  1676                           ;psect for function _main
  1677                           
  1678  06B9                     l2808:	
  1679                           ;incstack = 0
  1680                           ; Regs used in _main: [wreg-fsr1h+status,2+status,0+pclath+cstack]
  1681                           
  1682                           
  1683                           ;main.c: 101:     SYSTEM_Initialize();
  1684  06B9  3183  23E8  3186   	fcall	_SYSTEM_Initialize
  1685  06BC                     l2810:
  1686                           
  1687                           ;main.c: 118:     LCD_Init(0x27);
  1688  06BC  3027               	movlw	39
  1689  06BD  3187  2754  3186   	fcall	_LCD_Init
  1690  06C0                     l2812:
  1691                           
  1692                           ;main.c: 120:     LCD_Set_Cursor(1, 1);
  1693  06C0  0020               	movlb	0	; select bank0
  1694  06C1  01CF               	clrf	LCD_Set_Cursor@COL
  1695  06C2  0ACF               	incf	LCD_Set_Cursor@COL,f
  1696  06C3  3001               	movlw	1
  1697  06C4  3186  260A  3186   	fcall	_LCD_Set_Cursor
  1698  06C7                     l2814:
  1699                           
  1700                           ;main.c: 121:     LCD_Write_String(" Prima Riga !! ");
  1701  06C7  3041               	movlw	low (STR_1| (0+32768))
  1702  06C8  0020               	movlb	0	; select bank0
  1703  06C9  00CF               	movwf	LCD_Write_String@Str
  1704  06CA  3088               	movlw	high (STR_1| (0+32768))
  1705  06CB  00D0               	movwf	LCD_Write_String@Str+1
  1706  06CC  3185  2517  3186   	fcall	_LCD_Write_String
  1707  06CF                     l2816:
  1708                           
  1709                           ;main.c: 123:     LCD_Set_Cursor(2, 1);
  1710  06CF  0020               	movlb	0	; select bank0
  1711  06D0  01CF               	clrf	LCD_Set_Cursor@COL
  1712  06D1  0ACF               	incf	LCD_Set_Cursor@COL,f
  1713  06D2  3002               	movlw	2
  1714  06D3  3186  260A  3186   	fcall	_LCD_Set_Cursor
  1715  06D6                     l2818:
  1716                           
  1717                           ;main.c: 124:     LCD_Write_String(" Seconda Riga ! ");
  1718  06D6  3020               	movlw	low (STR_2| (0+32768))
  1719  06D7  0020               	movlb	0	; select bank0
  1720  06D8  00CF               	movwf	LCD_Write_String@Str
  1721  06D9  3088               	movlw	high (STR_2| (0+32768))
  1722  06DA  00D0               	movwf	LCD_Write_String@Str+1
  1723  06DB  3185  2517  3186   	fcall	_LCD_Write_String
  1724  06DE                     l2820:
  1725                           
  1726                           ;main.c: 126:     LCD_Set_Cursor(3, 1);
  1727  06DE  0020               	movlb	0	; select bank0
  1728  06DF  01CF               	clrf	LCD_Set_Cursor@COL
  1729  06E0  0ACF               	incf	LCD_Set_Cursor@COL,f
  1730  06E1  3003               	movlw	3
  1731  06E2  3186  260A  3186   	fcall	_LCD_Set_Cursor
  1732  06E5                     l2822:
  1733                           
  1734                           ;main.c: 127:     LCD_Write_String(" Terza Riga ! ");
  1735  06E5  3051               	movlw	low (STR_3| (0+32768))
  1736  06E6  0020               	movlb	0	; select bank0
  1737  06E7  00CF               	movwf	LCD_Write_String@Str
  1738  06E8  3088               	movlw	high (STR_3| (0+32768))
  1739  06E9  00D0               	movwf	LCD_Write_String@Str+1
  1740  06EA  3185  2517  3186   	fcall	_LCD_Write_String
  1741  06ED                     l2824:
  1742                           
  1743                           ;main.c: 129:     LCD_Set_Cursor(4, 1);
  1744  06ED  0020               	movlb	0	; select bank0
  1745  06EE  01CF               	clrf	LCD_Set_Cursor@COL
  1746  06EF  0ACF               	incf	LCD_Set_Cursor@COL,f
  1747  06F0  3004               	movlw	4
  1748  06F1  3186  260A  3186   	fcall	_LCD_Set_Cursor
  1749  06F4                     l2826:
  1750                           
  1751                           ;main.c: 130:     LCD_Write_String(" Quarta Riga ! ");
  1752  06F4  3031               	movlw	low (STR_4| (0+32768))
  1753  06F5  0020               	movlb	0	; select bank0
  1754  06F6  00CF               	movwf	LCD_Write_String@Str
  1755  06F7  3088               	movlw	high (STR_4| (0+32768))
  1756  06F8  00D0               	movwf	LCD_Write_String@Str+1
  1757  06F9  3185  2517  3186   	fcall	_LCD_Write_String
  1758  06FC  2EC0               	goto	l2812
  1759  06FD  3180  2802         	ljmp	start
  1760  06FF                     __end_of_main:
  1761                           
  1762                           	psect	text1
  1763  03E8                     __ptext1:	
  1764 ;; *************** function _SYSTEM_Initialize *****************
  1765 ;; Defined at:
  1766 ;;		line 50 in file "mcc_generated_files/mcc.c"
  1767 ;; Parameters:    Size  Location     Type
  1768 ;;		None
  1769 ;; Auto vars:     Size  Location     Type
  1770 ;;		None
  1771 ;; Return value:  Size  Location     Type
  1772 ;;                  1    wreg      void 
  1773 ;; Registers used:
  1774 ;;		wreg, status,2, status,0, pclath, cstack
  1775 ;; Tracked objects:
  1776 ;;		On entry : 0/0
  1777 ;;		On exit  : 0/0
  1778 ;;		Unchanged: 0/0
  1779 ;; Data sizes:     COMMON   BANK0   BANK1   BANK2   BANK3   BANK4
  1780 ;;      Params:         0       0       0       0       0       0
  1781 ;;      Locals:         0       0       0       0       0       0
  1782 ;;      Temps:          0       0       0       0       0       0
  1783 ;;      Totals:         0       0       0       0       0       0
  1784 ;;Total ram usage:        0 bytes
  1785 ;; Hardware stack levels used: 1
  1786 ;; Hardware stack levels required when called: 1
  1787 ;; This function calls:
  1788 ;;		_I2C1_Initialize
  1789 ;;		_OSCILLATOR_Initialize
  1790 ;;		_PIN_MANAGER_Initialize
  1791 ;;		_WDT_Initialize
  1792 ;; This function is called by:
  1793 ;;		_main
  1794 ;; This function uses a non-reentrant model
  1795 ;;
  1796                           
  1797  03E8                     _SYSTEM_Initialize:	
  1798                           ;psect for function _SYSTEM_Initialize
  1799                           
  1800  03E8                     l1656:	
  1801                           ;incstack = 0
  1802                           ; Regs used in _SYSTEM_Initialize: [wreg+status,2+status,0+pclath+cstack]
  1803                           
  1804                           
  1805                           ;mcc_generated_files/mcc.c: 53:     I2C1_Initialize();
  1806  03E8  3183  23AB  3183   	fcall	_I2C1_Initialize
  1807                           
  1808                           ;mcc_generated_files/mcc.c: 54:     PIN_MANAGER_Initialize();
  1809  03EB  3184  2497  3183   	fcall	_PIN_MANAGER_Initialize
  1810                           
  1811                           ;mcc_generated_files/mcc.c: 55:     OSCILLATOR_Initialize();
  1812  03EE  3183  2393  3183   	fcall	_OSCILLATOR_Initialize
  1813                           
  1814                           ;mcc_generated_files/mcc.c: 56:     WDT_Initialize();
  1815  03F1  3183  233F  3183   	fcall	_WDT_Initialize
  1816  03F4                     l486:
  1817  03F4  0008               	return
  1818  03F5                     __end_of_SYSTEM_Initialize:
  1819                           
  1820                           	psect	text2
  1821  033F                     __ptext2:	
  1822 ;; *************** function _WDT_Initialize *****************
  1823 ;; Defined at:
  1824 ;;		line 69 in file "mcc_generated_files/mcc.c"
  1825 ;; Parameters:    Size  Location     Type
  1826 ;;		None
  1827 ;; Auto vars:     Size  Location     Type
  1828 ;;		None
  1829 ;; Return value:  Size  Location     Type
  1830 ;;                  1    wreg      void 
  1831 ;; Registers used:
  1832 ;;		wreg
  1833 ;; Tracked objects:
  1834 ;;		On entry : 0/0
  1835 ;;		On exit  : 0/0
  1836 ;;		Unchanged: 0/0
  1837 ;; Data sizes:     COMMON   BANK0   BANK1   BANK2   BANK3   BANK4
  1838 ;;      Params:         0       0       0       0       0       0
  1839 ;;      Locals:         0       0       0       0       0       0
  1840 ;;      Temps:          0       0       0       0       0       0
  1841 ;;      Totals:         0       0       0       0       0       0
  1842 ;;Total ram usage:        0 bytes
  1843 ;; Hardware stack levels used: 1
  1844 ;; This function calls:
  1845 ;;		Nothing
  1846 ;; This function is called by:
  1847 ;;		_SYSTEM_Initialize
  1848 ;; This function uses a non-reentrant model
  1849 ;;
  1850                           
  1851  033F                     _WDT_Initialize:	
  1852                           ;psect for function _WDT_Initialize
  1853                           
  1854  033F                     l1644:	
  1855                           ;incstack = 0
  1856                           ; Regs used in _WDT_Initialize: [wreg]
  1857                           
  1858                           
  1859                           ;mcc_generated_files/mcc.c: 72:     WDTCON = 0x16;
  1860  033F  3016               	movlw	22
  1861  0340  0021               	movlb	1	; select bank1
  1862  0341  0097               	movwf	23	;volatile
  1863  0342                     l492:
  1864  0342  0008               	return
  1865  0343                     __end_of_WDT_Initialize:
  1866                           
  1867                           	psect	text3
  1868  0497                     __ptext3:	
  1869 ;; *************** function _PIN_MANAGER_Initialize *****************
  1870 ;; Defined at:
  1871 ;;		line 55 in file "mcc_generated_files/pin_manager.c"
  1872 ;; Parameters:    Size  Location     Type
  1873 ;;		None
  1874 ;; Auto vars:     Size  Location     Type
  1875 ;;		None
  1876 ;; Return value:  Size  Location     Type
  1877 ;;                  1    wreg      void 
  1878 ;; Registers used:
  1879 ;;		wreg, status,2
  1880 ;; Tracked objects:
  1881 ;;		On entry : 0/0
  1882 ;;		On exit  : 0/0
  1883 ;;		Unchanged: 0/0
  1884 ;; Data sizes:     COMMON   BANK0   BANK1   BANK2   BANK3   BANK4
  1885 ;;      Params:         0       0       0       0       0       0
  1886 ;;      Locals:         0       0       0       0       0       0
  1887 ;;      Temps:          0       0       0       0       0       0
  1888 ;;      Totals:         0       0       0       0       0       0
  1889 ;;Total ram usage:        0 bytes
  1890 ;; Hardware stack levels used: 1
  1891 ;; This function calls:
  1892 ;;		Nothing
  1893 ;; This function is called by:
  1894 ;;		_SYSTEM_Initialize
  1895 ;; This function uses a non-reentrant model
  1896 ;;
  1897                           
  1898  0497                     _PIN_MANAGER_Initialize:	
  1899                           ;psect for function _PIN_MANAGER_Initialize
  1900                           
  1901  0497                     l1618:	
  1902                           ;incstack = 0
  1903                           ; Regs used in _PIN_MANAGER_Initialize: [wreg+status,2]
  1904                           
  1905                           
  1906                           ;mcc_generated_files/pin_manager.c: 60:     LATA = 0x00;
  1907  0497  0022               	movlb	2	; select bank2
  1908  0498  018C               	clrf	12	;volatile
  1909                           
  1910                           ;mcc_generated_files/pin_manager.c: 61:     LATB = 0x00;
  1911  0499  018D               	clrf	13	;volatile
  1912  049A                     l1620:
  1913                           
  1914                           ;mcc_generated_files/pin_manager.c: 66:     TRISA = 0xFF;
  1915  049A  30FF               	movlw	255
  1916  049B  0021               	movlb	1	; select bank1
  1917  049C  008C               	movwf	12	;volatile
  1918  049D                     l1622:
  1919                           
  1920                           ;mcc_generated_files/pin_manager.c: 67:     TRISB = 0xFF;
  1921  049D  30FF               	movlw	255
  1922  049E  008D               	movwf	13	;volatile
  1923  049F                     l1624:
  1924                           
  1925                           ;mcc_generated_files/pin_manager.c: 72:     ANSELB = 0xEC;
  1926  049F  30EC               	movlw	236
  1927  04A0  0023               	movlb	3	; select bank3
  1928  04A1  008D               	movwf	13	;volatile
  1929  04A2                     l1626:
  1930                           
  1931                           ;mcc_generated_files/pin_manager.c: 73:     ANSELA = 0x1F;
  1932  04A2  301F               	movlw	31
  1933  04A3  008C               	movwf	12	;volatile
  1934                           
  1935                           ;mcc_generated_files/pin_manager.c: 78:     WPUB = 0x00;
  1936  04A4  0024               	movlb	4	; select bank4
  1937  04A5  018D               	clrf	13	;volatile
  1938                           
  1939                           ;mcc_generated_files/pin_manager.c: 79:     WPUA = 0x00;
  1940  04A6  018C               	clrf	12	;volatile
  1941  04A7                     l1628:
  1942                           
  1943                           ;mcc_generated_files/pin_manager.c: 80:     OPTION_REGbits.nWPUEN = 1;
  1944  04A7  0021               	movlb	1	; select bank1
  1945  04A8  1795               	bsf	21,7	;volatile
  1946                           
  1947                           ;mcc_generated_files/pin_manager.c: 86:     APFCON0 = 0x00;
  1948  04A9  0022               	movlb	2	; select bank2
  1949  04AA  019D               	clrf	29	;volatile
  1950                           
  1951                           ;mcc_generated_files/pin_manager.c: 87:     APFCON1 = 0x00;
  1952  04AB  019E               	clrf	30	;volatile
  1953  04AC                     l127:
  1954  04AC  0008               	return
  1955  04AD                     __end_of_PIN_MANAGER_Initialize:
  1956                           
  1957                           	psect	text4
  1958  0393                     __ptext4:	
  1959 ;; *************** function _OSCILLATOR_Initialize *****************
  1960 ;; Defined at:
  1961 ;;		line 59 in file "mcc_generated_files/mcc.c"
  1962 ;; Parameters:    Size  Location     Type
  1963 ;;		None
  1964 ;; Auto vars:     Size  Location     Type
  1965 ;;		None
  1966 ;; Return value:  Size  Location     Type
  1967 ;;                  1    wreg      void 
  1968 ;; Registers used:
  1969 ;;		wreg, status,2
  1970 ;; Tracked objects:
  1971 ;;		On entry : 0/0
  1972 ;;		On exit  : 0/0
  1973 ;;		Unchanged: 0/0
  1974 ;; Data sizes:     COMMON   BANK0   BANK1   BANK2   BANK3   BANK4
  1975 ;;      Params:         0       0       0       0       0       0
  1976 ;;      Locals:         0       0       0       0       0       0
  1977 ;;      Temps:          0       0       0       0       0       0
  1978 ;;      Totals:         0       0       0       0       0       0
  1979 ;;Total ram usage:        0 bytes
  1980 ;; Hardware stack levels used: 1
  1981 ;; This function calls:
  1982 ;;		Nothing
  1983 ;; This function is called by:
  1984 ;;		_SYSTEM_Initialize
  1985 ;; This function uses a non-reentrant model
  1986 ;;
  1987                           
  1988  0393                     _OSCILLATOR_Initialize:	
  1989                           ;psect for function _OSCILLATOR_Initialize
  1990                           
  1991  0393                     l1638:	
  1992                           ;incstack = 0
  1993                           ; Regs used in _OSCILLATOR_Initialize: [wreg+status,2]
  1994                           
  1995                           
  1996                           ;mcc_generated_files/mcc.c: 62:     OSCCON = 0x7A;
  1997  0393  307A               	movlw	122
  1998  0394  0021               	movlb	1	; select bank1
  1999  0395  0099               	movwf	25	;volatile
  2000  0396                     l1640:
  2001                           
  2002                           ;mcc_generated_files/mcc.c: 64:     OSCTUNE = 0x00;
  2003  0396  0198               	clrf	24	;volatile
  2004  0397                     l1642:
  2005                           
  2006                           ;mcc_generated_files/mcc.c: 66:     BORCON = 0x00;
  2007  0397  0022               	movlb	2	; select bank2
  2008  0398  0196               	clrf	22	;volatile
  2009  0399                     l489:
  2010  0399  0008               	return
  2011  039A                     __end_of_OSCILLATOR_Initialize:
  2012                           
  2013                           	psect	text5
  2014  03AB                     __ptext5:	
  2015 ;; *************** function _I2C1_Initialize *****************
  2016 ;; Defined at:
  2017 ;;		line 167 in file "mcc_generated_files/i2c1_master.c"
  2018 ;; Parameters:    Size  Location     Type
  2019 ;;		None
  2020 ;; Auto vars:     Size  Location     Type
  2021 ;;		None
  2022 ;; Return value:  Size  Location     Type
  2023 ;;                  1    wreg      void 
  2024 ;; Registers used:
  2025 ;;		wreg, status,2
  2026 ;; Tracked objects:
  2027 ;;		On entry : 0/0
  2028 ;;		On exit  : 0/0
  2029 ;;		Unchanged: 0/0
  2030 ;; Data sizes:     COMMON   BANK0   BANK1   BANK2   BANK3   BANK4
  2031 ;;      Params:         0       0       0       0       0       0
  2032 ;;      Locals:         0       0       0       0       0       0
  2033 ;;      Temps:          0       0       0       0       0       0
  2034 ;;      Totals:         0       0       0       0       0       0
  2035 ;;Total ram usage:        0 bytes
  2036 ;; Hardware stack levels used: 1
  2037 ;; This function calls:
  2038 ;;		Nothing
  2039 ;; This function is called by:
  2040 ;;		_SYSTEM_Initialize
  2041 ;; This function uses a non-reentrant model
  2042 ;;
  2043                           
  2044  03AB                     _I2C1_Initialize:	
  2045                           ;psect for function _I2C1_Initialize
  2046                           
  2047  03AB                     l1630:	
  2048                           ;incstack = 0
  2049                           ; Regs used in _I2C1_Initialize: [wreg+status,2]
  2050                           
  2051                           
  2052                           ;mcc_generated_files/i2c1_master.c: 169:     SSP1STAT = 0x00;
  2053  03AB  0024               	movlb	4	; select bank4
  2054  03AC  0194               	clrf	20	;volatile
  2055  03AD                     l1632:
  2056                           
  2057                           ;mcc_generated_files/i2c1_master.c: 170:     SSP1CON1 = 0x08;
  2058  03AD  3008               	movlw	8
  2059  03AE  0095               	movwf	21	;volatile
  2060  03AF                     l1634:
  2061                           
  2062                           ;mcc_generated_files/i2c1_master.c: 171:     SSP1CON2 = 0x00;
  2063  03AF  0196               	clrf	22	;volatile
  2064                           
  2065                           ;mcc_generated_files/i2c1_master.c: 172:     SSP1ADD = 0x27;
  2066  03B0  3027               	movlw	39
  2067  03B1  0092               	movwf	18	;volatile
  2068  03B2                     l1636:
  2069                           
  2070                           ;mcc_generated_files/i2c1_master.c: 173:     SSP1CON1bits.SSPEN = 0;
  2071  03B2  1295               	bcf	21,5	;volatile
  2072  03B3                     l237:
  2073  03B3  0008               	return
  2074  03B4                     __end_of_I2C1_Initialize:
  2075                           
  2076                           	psect	text6
  2077  0517                     __ptext6:	
  2078 ;; *************** function _LCD_Write_String *****************
  2079 ;; Defined at:
  2080 ;;		line 81 in file "./LCD2004a.c"
  2081 ;; Parameters:    Size  Location     Type
  2082 ;;  Str             2   17[BANK0 ] PTR unsigned char 
  2083 ;;		 -> STR_4(16), STR_3(15), STR_2(17), STR_1(16), 
  2084 ;; Auto vars:     Size  Location     Type
  2085 ;;  i               2   20[BANK0 ] int 
  2086 ;; Return value:  Size  Location     Type
  2087 ;;                  1    wreg      void 
  2088 ;; Registers used:
  2089 ;;		wreg, fsr0l, fsr0h, fsr1l, fsr1h, status,2, status,0, pclath, cstack
  2090 ;; Tracked objects:
  2091 ;;		On entry : 0/0
  2092 ;;		On exit  : 0/0
  2093 ;;		Unchanged: 0/0
  2094 ;; Data sizes:     COMMON   BANK0   BANK1   BANK2   BANK3   BANK4
  2095 ;;      Params:         0       2       0       0       0       0
  2096 ;;      Locals:         0       2       0       0       0       0
  2097 ;;      Temps:          0       1       0       0       0       0
  2098 ;;      Totals:         0       5       0       0       0       0
  2099 ;;Total ram usage:        5 bytes
  2100 ;; Hardware stack levels used: 1
  2101 ;; Hardware stack levels required when called: 13
  2102 ;; This function calls:
  2103 ;;		_LCD_Write_Char
  2104 ;; This function is called by:
  2105 ;;		_main
  2106 ;;		_LCD_Scroll
  2107 ;;		_LCD_Scroll2
  2108 ;; This function uses a non-reentrant model
  2109 ;;
  2110                           
  2111  0517                     _LCD_Write_String:	
  2112                           ;psect for function _LCD_Write_String
  2113                           
  2114  0517                     l2566:	
  2115                           ;incstack = 0
  2116                           ; Regs used in _LCD_Write_String: [wreg-fsr1h+status,2+status,0+pclath+cstack]
  2117                           
  2118                           
  2119                           ;./LCD2004a.c: 81: void LCD_Write_String(char* Str);./LCD2004a.c: 82: {;./LCD2004a.c: 83
      +                          :   for(int i=0; Str[i]!='\0'; i++)
  2120  0517  0020               	movlb	0	; select bank0
  2121  0518  01D2               	clrf	LCD_Write_String@i
  2122  0519  01D3               	clrf	LCD_Write_String@i+1
  2123  051A  2D2A               	goto	l2572
  2124  051B                     l2568:
  2125                           
  2126                           ;./LCD2004a.c: 84:     LCD_Write_Char(Str[i]);
  2127  051B  084F               	movf	LCD_Write_String@Str,w
  2128  051C  0752               	addwf	LCD_Write_String@i,w
  2129  051D  0084               	movwf	4
  2130  051E  0850               	movf	LCD_Write_String@Str+1,w
  2131  051F  3D53               	addwfc	LCD_Write_String@i+1,w
  2132  0520  0085               	movwf	5
  2133  0521  0800               	movf	0,w	;code access
  2134  0522  3184  24AD  3185   	fcall	_LCD_Write_Char
  2135  0525                     l2570:
  2136  0525  3001               	movlw	1
  2137  0526  0020               	movlb	0	; select bank0
  2138  0527  07D2               	addwf	LCD_Write_String@i,f
  2139  0528  3000               	movlw	0
  2140  0529  3DD3               	addwfc	LCD_Write_String@i+1,f
  2141  052A                     l2572:
  2142  052A  084F               	movf	LCD_Write_String@Str,w
  2143  052B  0752               	addwf	LCD_Write_String@i,w
  2144  052C  0084               	movwf	4
  2145  052D  0850               	movf	LCD_Write_String@Str+1,w
  2146  052E  3D53               	addwfc	LCD_Write_String@i+1,w
  2147  052F  0085               	movwf	5
  2148  0530  0012               	moviw fsr0++
  2149  0531  1D03               	btfss	3,2
  2150  0532  2D34               	goto	u581
  2151  0533  2D35               	goto	u580
  2152  0534                     u581:
  2153  0534  2D1B               	goto	l2568
  2154  0535                     u580:
  2155  0535                     l534:
  2156  0535  0008               	return
  2157  0536                     __end_of_LCD_Write_String:
  2158                           
  2159                           	psect	text7
  2160  04AD                     __ptext7:	
  2161 ;; *************** function _LCD_Write_Char *****************
  2162 ;; Defined at:
  2163 ;;		line 75 in file "./LCD2004a.c"
  2164 ;; Parameters:    Size  Location     Type
  2165 ;;  Data            1    wreg     unsigned char 
  2166 ;; Auto vars:     Size  Location     Type
  2167 ;;  Data            1   16[BANK0 ] unsigned char 
  2168 ;; Return value:  Size  Location     Type
  2169 ;;                  1    wreg      void 
  2170 ;; Registers used:
  2171 ;;		wreg, fsr0l, fsr0h, fsr1l, fsr1h, status,2, status,0, pclath, cstack
  2172 ;; Tracked objects:
  2173 ;;		On entry : 0/0
  2174 ;;		On exit  : 0/0
  2175 ;;		Unchanged: 0/0
  2176 ;; Data sizes:     COMMON   BANK0   BANK1   BANK2   BANK3   BANK4
  2177 ;;      Params:         0       0       0       0       0       0
  2178 ;;      Locals:         0       1       0       0       0       0
  2179 ;;      Temps:          0       1       0       0       0       0
  2180 ;;      Totals:         0       2       0       0       0       0
  2181 ;;Total ram usage:        2 bytes
  2182 ;; Hardware stack levels used: 1
  2183 ;; Hardware stack levels required when called: 12
  2184 ;; This function calls:
  2185 ;;		_LCD_Write_4Bit
  2186 ;; This function is called by:
  2187 ;;		_LCD_Write_String
  2188 ;;		_LCD_TypeWriter
  2189 ;;		_LCD_Scroll
  2190 ;;		_LCD_Scroll2
  2191 ;; This function uses a non-reentrant model
  2192 ;;
  2193                           
  2194  04AD                     _LCD_Write_Char:	
  2195                           ;psect for function _LCD_Write_Char
  2196                           
  2197                           
  2198                           ;incstack = 0
  2199                           ; Regs used in _LCD_Write_Char: [wreg-fsr1h+status,2+status,0+pclath+cstack]
  2200                           ;LCD_Write_Char@Data stored from wreg
  2201  04AD  0020               	movlb	0	; select bank0
  2202  04AE  00CE               	movwf	LCD_Write_Char@Data
  2203  04AF                     l2518:
  2204                           
  2205                           ;./LCD2004a.c: 75: void LCD_Write_Char(char Data);./LCD2004a.c: 76: {;./LCD2004a.c: 77: 
      +                            RS = 1;
  2206  04AF  01BD               	clrf	_RS
  2207  04B0  0ABD               	incf	_RS,f
  2208  04B1                     l2520:
  2209                           
  2210                           ;./LCD2004a.c: 78:   LCD_Write_4Bit(Data & 0xF0);
  2211  04B1  084E               	movf	LCD_Write_Char@Data,w
  2212  04B2  39F0               	andlw	240
  2213  04B3  3184  2405  3184   	fcall	_LCD_Write_4Bit
  2214                           
  2215                           ;./LCD2004a.c: 79:   LCD_Write_4Bit((Data << 4) & 0xF0);
  2216  04B6  0020               	movlb	0	; select bank0
  2217  04B7  084E               	movf	LCD_Write_Char@Data,w
  2218  04B8  00CD               	movwf	??_LCD_Write_Char
  2219  04B9  3003               	movlw	3
  2220  04BA                     u575:
  2221  04BA  35CD               	lslf	??_LCD_Write_Char,f
  2222  04BB  3EFF               	addlw	-1
  2223  04BC  1D03               	skipz
  2224  04BD  2CBA               	goto	u575
  2225  04BE  354D               	lslf	??_LCD_Write_Char,w
  2226  04BF  39F0               	andlw	240
  2227  04C0  3184  2405  3184   	fcall	_LCD_Write_4Bit
  2228  04C3                     l528:
  2229  04C3  0008               	return
  2230  04C4                     __end_of_LCD_Write_Char:
  2231                           
  2232                           	psect	text8
  2233  060A                     __ptext8:	
  2234 ;; *************** function _LCD_Set_Cursor *****************
  2235 ;; Defined at:
  2236 ;;		line 87 in file "./LCD2004a.c"
  2237 ;; Parameters:    Size  Location     Type
  2238 ;;  ROW             1    wreg     unsigned char 
  2239 ;;  COL             1   17[BANK0 ] unsigned char 
  2240 ;; Auto vars:     Size  Location     Type
  2241 ;;  ROW             1   20[BANK0 ] unsigned char 
  2242 ;; Return value:  Size  Location     Type
  2243 ;;                  1    wreg      void 
  2244 ;; Registers used:
  2245 ;;		wreg, fsr0l, fsr0h, fsr1l, fsr1h, status,2, status,0, pclath, cstack
  2246 ;; Tracked objects:
  2247 ;;		On entry : 0/0
  2248 ;;		On exit  : 0/0
  2249 ;;		Unchanged: 0/0
  2250 ;; Data sizes:     COMMON   BANK0   BANK1   BANK2   BANK3   BANK4
  2251 ;;      Params:         0       1       0       0       0       0
  2252 ;;      Locals:         0       1       0       0       0       0
  2253 ;;      Temps:          0       2       0       0       0       0
  2254 ;;      Totals:         0       4       0       0       0       0
  2255 ;;Total ram usage:        4 bytes
  2256 ;; Hardware stack levels used: 1
  2257 ;; Hardware stack levels required when called: 13
  2258 ;; This function calls:
  2259 ;;		_LCD_CMD
  2260 ;; This function is called by:
  2261 ;;		_main
  2262 ;;		_LCD_Scroll
  2263 ;;		_LCD_Scroll2
  2264 ;; This function uses a non-reentrant model
  2265 ;;
  2266                           
  2267  060A                     _LCD_Set_Cursor:	
  2268                           ;psect for function _LCD_Set_Cursor
  2269                           
  2270                           
  2271                           ;incstack = 0
  2272                           ; Regs used in _LCD_Set_Cursor: [wreg-fsr1h+status,2+status,0+pclath+cstack]
  2273                           ;LCD_Set_Cursor@ROW stored from wreg
  2274  060A  0020               	movlb	0	; select bank0
  2275  060B  00D2               	movwf	LCD_Set_Cursor@ROW
  2276  060C                     l2574:
  2277                           
  2278                           ;./LCD2004a.c: 87: void LCD_Set_Cursor(unsigned char ROW, unsigned char COL);./LCD2004a.
      +                          c: 88: {;./LCD2004a.c: 89:   switch(ROW)
  2279  060C  2E25               	goto	l2584
  2280  060D                     l2576:
  2281                           
  2282                           ;./LCD2004a.c: 92:       LCD_CMD(0xC0 + COL-1);
  2283  060D  084F               	movf	LCD_Set_Cursor@COL,w
  2284  060E  3EBF               	addlw	191
  2285  060F  3184  2481  3186   	fcall	_LCD_CMD
  2286                           
  2287                           ;./LCD2004a.c: 93:       break;
  2288  0612  2E38               	goto	l543
  2289  0613                     l2578:
  2290                           
  2291                           ;./LCD2004a.c: 95:       LCD_CMD(0x94 + COL-1);
  2292  0613  084F               	movf	LCD_Set_Cursor@COL,w
  2293  0614  3E93               	addlw	147
  2294  0615  3184  2481  3186   	fcall	_LCD_CMD
  2295                           
  2296                           ;./LCD2004a.c: 96:       break;
  2297  0618  2E38               	goto	l543
  2298  0619                     l2580:
  2299                           
  2300                           ;./LCD2004a.c: 98:       LCD_CMD(0xD4 + COL-1);
  2301  0619  084F               	movf	LCD_Set_Cursor@COL,w
  2302  061A  3ED3               	addlw	211
  2303  061B  3184  2481  3186   	fcall	_LCD_CMD
  2304                           
  2305                           ;./LCD2004a.c: 99:       break;
  2306  061E  2E38               	goto	l543
  2307  061F                     l2582:
  2308                           
  2309                           ;./LCD2004a.c: 102:       LCD_CMD(0x80 + COL-1);
  2310  061F  084F               	movf	LCD_Set_Cursor@COL,w
  2311  0620  3E7F               	addlw	127
  2312  0621  3184  2481  3186   	fcall	_LCD_CMD
  2313                           
  2314                           ;./LCD2004a.c: 103:   }
  2315  0624  2E38               	goto	l543
  2316  0625                     l2584:
  2317  0625  0852               	movf	LCD_Set_Cursor@ROW,w
  2318  0626  00D0               	movwf	??_LCD_Set_Cursor
  2319  0627  01D1               	clrf	??_LCD_Set_Cursor+1
  2320                           
  2321                           ; Switch on 2 bytes has been partitioned into a top level switch of size 1, and 1 sub-sw
      +                          itches
  2322                           ; Switch size 1, requested type "simple"
  2323                           ; Number of cases is 1, Range of values is 0 to 0
  2324                           ; switch strategies available:
  2325                           ; Name         Instructions Cycles
  2326                           ; simple_byte            4     3 (average)
  2327                           ; direct_byte            8     6 (fixed)
  2328                           ; jumptable            260     6 (fixed)
  2329                           ;	Chosen strategy is simple_byte
  2330  0628  0851               	movf	??_LCD_Set_Cursor+1,w
  2331  0629  3A00               	xorlw	0	; case 0
  2332  062A  1903               	skipnz
  2333  062B  2E2D               	goto	l2938
  2334  062C  2E1F               	goto	l2582
  2335  062D                     l2938:
  2336                           
  2337                           ; Switch size 1, requested type "simple"
  2338                           ; Number of cases is 3, Range of values is 2 to 4
  2339                           ; switch strategies available:
  2340                           ; Name         Instructions Cycles
  2341                           ; simple_byte           10     6 (average)
  2342                           ; direct_byte           15     9 (fixed)
  2343                           ; jumptable            263     9 (fixed)
  2344                           ;	Chosen strategy is simple_byte
  2345  062D  0850               	movf	??_LCD_Set_Cursor,w
  2346  062E  3A02               	xorlw	2	; case 2
  2347  062F  1903               	skipnz
  2348  0630  2E0D               	goto	l2576
  2349  0631  3A01               	xorlw	1	; case 3
  2350  0632  1903               	skipnz
  2351  0633  2E13               	goto	l2578
  2352  0634  3A07               	xorlw	7	; case 4
  2353  0635  1903               	skipnz
  2354  0636  2E19               	goto	l2580
  2355  0637  2E1F               	goto	l2582
  2356  0638                     l543:
  2357  0638  0008               	return
  2358  0639                     __end_of_LCD_Set_Cursor:
  2359                           
  2360                           	psect	text9
  2361  0754                     __ptext9:	
  2362 ;; *************** function _LCD_Init *****************
  2363 ;; Defined at:
  2364 ;;		line 14 in file "./LCD2004a.c"
  2365 ;; Parameters:    Size  Location     Type
  2366 ;;  I2C_Add         1    wreg     unsigned char 
  2367 ;; Auto vars:     Size  Location     Type
  2368 ;;  I2C_Add         1   19[BANK0 ] unsigned char 
  2369 ;; Return value:  Size  Location     Type
  2370 ;;                  1    wreg      void 
  2371 ;; Registers used:
  2372 ;;		wreg, fsr0l, fsr0h, fsr1l, fsr1h, status,2, status,0, pclath, cstack
  2373 ;; Tracked objects:
  2374 ;;		On entry : 0/0
  2375 ;;		On exit  : 0/0
  2376 ;;		Unchanged: 0/0
  2377 ;; Data sizes:     COMMON   BANK0   BANK1   BANK2   BANK3   BANK4
  2378 ;;      Params:         0       0       0       0       0       0
  2379 ;;      Locals:         0       1       0       0       0       0
  2380 ;;      Temps:          0       2       0       0       0       0
  2381 ;;      Totals:         0       3       0       0       0       0
  2382 ;;Total ram usage:        3 bytes
  2383 ;; Hardware stack levels used: 1
  2384 ;; Hardware stack levels required when called: 13
  2385 ;; This function calls:
  2386 ;;		_IO_Expander_Write
  2387 ;;		_LCD_CMD
  2388 ;;		_LCD_Write_4Bit
  2389 ;; This function is called by:
  2390 ;;		_main
  2391 ;; This function uses a non-reentrant model
  2392 ;;
  2393                           
  2394  0754                     _LCD_Init:	
  2395                           ;psect for function _LCD_Init
  2396                           
  2397                           
  2398                           ;incstack = 0
  2399                           ; Regs used in _LCD_Init: [wreg-fsr1h+status,2+status,0+pclath+cstack]
  2400                           ;LCD_Init@I2C_Add stored from wreg
  2401  0754  0020               	movlb	0	; select bank0
  2402  0755  00D1               	movwf	LCD_Init@I2C_Add
  2403  0756                     l2522:
  2404                           
  2405                           ;./LCD2004a.c: 14: void LCD_Init(unsigned char I2C_Add);./LCD2004a.c: 15: {;./LCD2004a.c
      +                          : 16:   i2c_add = I2C_Add;
  2406  0756  0851               	movf	LCD_Init@I2C_Add,w
  2407  0757  00CF               	movwf	??_LCD_Init
  2408  0758  084F               	movf	??_LCD_Init,w
  2409  0759  00D4               	movwf	_i2c_add
  2410                           
  2411                           ;./LCD2004a.c: 17:   _delay((unsigned long)((50)*(16000000/4000.0)));
  2412  075A  3002               	movlw	2
  2413  075B  0020               	movlb	0	; select bank0
  2414  075C  00D0               	movwf	??_LCD_Init+1
  2415  075D  3004               	movlw	4
  2416  075E  00CF               	movwf	??_LCD_Init
  2417  075F  30BA               	movlw	186
  2418  0760                     u797:
  2419  0760  0B89               	decfsz	9,f
  2420  0761  2F60               	goto	u797
  2421  0762  0BCF               	decfsz	??_LCD_Init,f
  2422  0763  2F60               	goto	u797
  2423  0764  0BD0               	decfsz	??_LCD_Init+1,f
  2424  0765  2F60               	goto	u797
  2425  0766  0000               	nop
  2426  0767                     l2524:
  2427                           
  2428                           ;./LCD2004a.c: 18:   IO_Expander_Write(0x00);
  2429  0767  3000               	movlw	0
  2430  0768  3184  2459  3187   	fcall	_IO_Expander_Write
  2431  076B                     l2526:
  2432                           
  2433                           ;./LCD2004a.c: 19:   _delay((unsigned long)((99)*(16000000/4000.0)));
  2434  076B  3003               	movlw	3
  2435  076C  0020               	movlb	0	; select bank0
  2436  076D  00D0               	movwf	??_LCD_Init+1
  2437  076E  3003               	movlw	3
  2438  076F  00CF               	movwf	??_LCD_Init
  2439  0770  3045               	movlw	69
  2440  0771                     u807:
  2441  0771  0B89               	decfsz	9,f
  2442  0772  2F71               	goto	u807
  2443  0773  0BCF               	decfsz	??_LCD_Init,f
  2444  0774  2F71               	goto	u807
  2445  0775  0BD0               	decfsz	??_LCD_Init+1,f
  2446  0776  2F71               	goto	u807
  2447  0777                     l2528:
  2448                           
  2449                           ;./LCD2004a.c: 21:   RS = 0;
  2450  0777  0020               	movlb	0	; select bank0
  2451  0778  01BD               	clrf	_RS
  2452  0779                     l2530:
  2453                           
  2454                           ;./LCD2004a.c: 22:   LCD_Write_4Bit(0x03 << 4);
  2455  0779  3030               	movlw	48
  2456  077A  3184  2405  3187   	fcall	_LCD_Write_4Bit
  2457  077D                     l2532:
  2458                           
  2459                           ;./LCD2004a.c: 23:   _delay((unsigned long)((4500)*(16000000/4000000.0)));
  2460  077D  3018               	movlw	24
  2461  077E  0020               	movlb	0	; select bank0
  2462  077F  00CF               	movwf	??_LCD_Init
  2463  0780  305F               	movlw	95
  2464  0781                     u817:
  2465  0781  0B89               	decfsz	9,f
  2466  0782  2F81               	goto	u817
  2467  0783  0BCF               	decfsz	??_LCD_Init,f
  2468  0784  2F81               	goto	u817
  2469  0785                     l2534:
  2470                           
  2471                           ;./LCD2004a.c: 25:    LCD_Write_4Bit(0x03 << 4);
  2472  0785  3030               	movlw	48
  2473  0786  3184  2405  3187   	fcall	_LCD_Write_4Bit
  2474  0789                     l2536:
  2475                           
  2476                           ;./LCD2004a.c: 26:   _delay((unsigned long)((4500)*(16000000/4000000.0)));
  2477  0789  3018               	movlw	24
  2478  078A  0020               	movlb	0	; select bank0
  2479  078B  00CF               	movwf	??_LCD_Init
  2480  078C  305F               	movlw	95
  2481  078D                     u827:
  2482  078D  0B89               	decfsz	9,f
  2483  078E  2F8D               	goto	u827
  2484  078F  0BCF               	decfsz	??_LCD_Init,f
  2485  0790  2F8D               	goto	u827
  2486  0791                     l2538:
  2487                           
  2488                           ;./LCD2004a.c: 28:    LCD_Write_4Bit(0x03 << 4);
  2489  0791  3030               	movlw	48
  2490  0792  3184  2405  3187   	fcall	_LCD_Write_4Bit
  2491  0795                     l2540:
  2492                           
  2493                           ;./LCD2004a.c: 29:   _delay((unsigned long)((150)*(16000000/4000000.0)));
  2494  0795  30C8               	movlw	200
  2495  0796                     u837:
  2496  0796  0B89               	decfsz	9,f
  2497  0797  2F96               	goto	u837
  2498  0798                     l2542:
  2499                           
  2500                           ;./LCD2004a.c: 31:    LCD_Write_4Bit(0x02 << 4);
  2501  0798  3020               	movlw	32
  2502  0799  3184  2405  3187   	fcall	_LCD_Write_4Bit
  2503  079C                     l2544:
  2504                           
  2505                           ;./LCD2004a.c: 32:   _delay((unsigned long)((150)*(16000000/4000000.0)));
  2506  079C  30C8               	movlw	200
  2507  079D                     u847:
  2508  079D  0B89               	decfsz	9,f
  2509  079E  2F9D               	goto	u847
  2510  079F                     l2546:
  2511                           
  2512                           ;./LCD2004a.c: 34:   LCD_CMD(0x02);
  2513  079F  3002               	movlw	2
  2514  07A0  3184  2481  3187   	fcall	_LCD_CMD
  2515  07A3                     l2548:
  2516                           
  2517                           ;./LCD2004a.c: 35:   _delay((unsigned long)((5)*(16000000/4000.0)));
  2518  07A3  301A               	movlw	26
  2519  07A4  0020               	movlb	0	; select bank0
  2520  07A5  00CF               	movwf	??_LCD_Init
  2521  07A6  30F8               	movlw	248
  2522  07A7                     u857:
  2523  07A7  0B89               	decfsz	9,f
  2524  07A8  2FA7               	goto	u857
  2525  07A9  0BCF               	decfsz	??_LCD_Init,f
  2526  07AA  2FA7               	goto	u857
  2527  07AB  0000               	nop
  2528  07AC                     l2550:
  2529                           
  2530                           ;./LCD2004a.c: 36:   LCD_CMD(0x20 | (2 << 2));
  2531  07AC  3028               	movlw	40
  2532  07AD  3184  2481  3187   	fcall	_LCD_CMD
  2533  07B0                     l2552:
  2534                           
  2535                           ;./LCD2004a.c: 37:   _delay((unsigned long)((50)*(16000000/4000.0)));
  2536  07B0  3002               	movlw	2
  2537  07B1  0020               	movlb	0	; select bank0
  2538  07B2  00D0               	movwf	??_LCD_Init+1
  2539  07B3  3004               	movlw	4
  2540  07B4  00CF               	movwf	??_LCD_Init
  2541  07B5  30BA               	movlw	186
  2542  07B6                     u867:
  2543  07B6  0B89               	decfsz	9,f
  2544  07B7  2FB6               	goto	u867
  2545  07B8  0BCF               	decfsz	??_LCD_Init,f
  2546  07B9  2FB6               	goto	u867
  2547  07BA  0BD0               	decfsz	??_LCD_Init+1,f
  2548  07BB  2FB6               	goto	u867
  2549  07BC  0000               	nop
  2550  07BD                     l2554:
  2551                           
  2552                           ;./LCD2004a.c: 38:   LCD_CMD(0x0C);
  2553  07BD  300C               	movlw	12
  2554  07BE  3184  2481  3187   	fcall	_LCD_CMD
  2555  07C1                     l2556:
  2556                           
  2557                           ;./LCD2004a.c: 39:   _delay((unsigned long)((50)*(16000000/4000.0)));
  2558  07C1  3002               	movlw	2
  2559  07C2  0020               	movlb	0	; select bank0
  2560  07C3  00D0               	movwf	??_LCD_Init+1
  2561  07C4  3004               	movlw	4
  2562  07C5  00CF               	movwf	??_LCD_Init
  2563  07C6  30BA               	movlw	186
  2564  07C7                     u877:
  2565  07C7  0B89               	decfsz	9,f
  2566  07C8  2FC7               	goto	u877
  2567  07C9  0BCF               	decfsz	??_LCD_Init,f
  2568  07CA  2FC7               	goto	u877
  2569  07CB  0BD0               	decfsz	??_LCD_Init+1,f
  2570  07CC  2FC7               	goto	u877
  2571  07CD  0000               	nop
  2572  07CE                     l2558:
  2573                           
  2574                           ;./LCD2004a.c: 40:   LCD_CMD(0x01);
  2575  07CE  3001               	movlw	1
  2576  07CF  3184  2481  3187   	fcall	_LCD_CMD
  2577  07D2                     l2560:
  2578                           
  2579                           ;./LCD2004a.c: 41:   _delay((unsigned long)((50)*(16000000/4000.0)));
  2580  07D2  3002               	movlw	2
  2581  07D3  0020               	movlb	0	; select bank0
  2582  07D4  00D0               	movwf	??_LCD_Init+1
  2583  07D5  3004               	movlw	4
  2584  07D6  00CF               	movwf	??_LCD_Init
  2585  07D7  30BA               	movlw	186
  2586  07D8                     u887:
  2587  07D8  0B89               	decfsz	9,f
  2588  07D9  2FD8               	goto	u887
  2589  07DA  0BCF               	decfsz	??_LCD_Init,f
  2590  07DB  2FD8               	goto	u887
  2591  07DC  0BD0               	decfsz	??_LCD_Init+1,f
  2592  07DD  2FD8               	goto	u887
  2593  07DE  0000               	nop
  2594  07DF                     l2562:
  2595                           
  2596                           ;./LCD2004a.c: 42:   LCD_CMD(0x04 | 0x02);
  2597  07DF  3006               	movlw	6
  2598  07E0  3184  2481  3187   	fcall	_LCD_CMD
  2599  07E3                     l2564:
  2600                           
  2601                           ;./LCD2004a.c: 43:   _delay((unsigned long)((50)*(16000000/4000.0)));
  2602  07E3  3002               	movlw	2
  2603  07E4  0020               	movlb	0	; select bank0
  2604  07E5  00D0               	movwf	??_LCD_Init+1
  2605  07E6  3004               	movlw	4
  2606  07E7  00CF               	movwf	??_LCD_Init
  2607  07E8  30BA               	movlw	186
  2608  07E9                     u897:
  2609  07E9  0B89               	decfsz	9,f
  2610  07EA  2FE9               	goto	u897
  2611  07EB  0BCF               	decfsz	??_LCD_Init,f
  2612  07EC  2FE9               	goto	u897
  2613  07ED  0BD0               	decfsz	??_LCD_Init+1,f
  2614  07EE  2FE9               	goto	u897
  2615  07EF  0000               	nop
  2616  07F0                     l513:
  2617  07F0  0008               	return
  2618  07F1                     __end_of_LCD_Init:
  2619                           
  2620                           	psect	text10
  2621  0481                     __ptext10:	
  2622 ;; *************** function _LCD_CMD *****************
  2623 ;; Defined at:
  2624 ;;		line 68 in file "./LCD2004a.c"
  2625 ;; Parameters:    Size  Location     Type
  2626 ;;  CMD             1    wreg     unsigned char 
  2627 ;; Auto vars:     Size  Location     Type
  2628 ;;  CMD             1   16[BANK0 ] unsigned char 
  2629 ;; Return value:  Size  Location     Type
  2630 ;;                  1    wreg      void 
  2631 ;; Registers used:
  2632 ;;		wreg, fsr0l, fsr0h, fsr1l, fsr1h, status,2, status,0, pclath, cstack
  2633 ;; Tracked objects:
  2634 ;;		On entry : 0/0
  2635 ;;		On exit  : 0/0
  2636 ;;		Unchanged: 0/0
  2637 ;; Data sizes:     COMMON   BANK0   BANK1   BANK2   BANK3   BANK4
  2638 ;;      Params:         0       0       0       0       0       0
  2639 ;;      Locals:         0       1       0       0       0       0
  2640 ;;      Temps:          0       1       0       0       0       0
  2641 ;;      Totals:         0       2       0       0       0       0
  2642 ;;Total ram usage:        2 bytes
  2643 ;; Hardware stack levels used: 1
  2644 ;; Hardware stack levels required when called: 12
  2645 ;; This function calls:
  2646 ;;		_LCD_Write_4Bit
  2647 ;; This function is called by:
  2648 ;;		_LCD_Init
  2649 ;;		_LCD_Set_Cursor
  2650 ;;		_LCD_SL
  2651 ;;		_LCD_SR
  2652 ;;		_LCD_Clear
  2653 ;; This function uses a non-reentrant model
  2654 ;;
  2655                           
  2656  0481                     _LCD_CMD:	
  2657                           ;psect for function _LCD_CMD
  2658                           
  2659                           
  2660                           ;incstack = 0
  2661                           ; Regs used in _LCD_CMD: [wreg-fsr1h+status,2+status,0+pclath+cstack]
  2662                           ;LCD_CMD@CMD stored from wreg
  2663  0481  0020               	movlb	0	; select bank0
  2664  0482  00CE               	movwf	LCD_CMD@CMD
  2665  0483                     l2512:
  2666                           
  2667                           ;./LCD2004a.c: 68: void LCD_CMD(unsigned char CMD);./LCD2004a.c: 69: {;./LCD2004a.c: 70:
      +                             RS = 0;
  2668  0483  01BD               	clrf	_RS
  2669  0484                     l2514:
  2670                           
  2671                           ;./LCD2004a.c: 71:   LCD_Write_4Bit(CMD & 0xF0);
  2672  0484  084E               	movf	LCD_CMD@CMD,w
  2673  0485  39F0               	andlw	240
  2674  0486  3184  2405  3184   	fcall	_LCD_Write_4Bit
  2675  0489                     l2516:
  2676                           
  2677                           ;./LCD2004a.c: 72:   LCD_Write_4Bit((CMD << 4) & 0xF0);
  2678  0489  0020               	movlb	0	; select bank0
  2679  048A  084E               	movf	LCD_CMD@CMD,w
  2680  048B  00CD               	movwf	??_LCD_CMD
  2681  048C  3003               	movlw	3
  2682  048D                     u565:
  2683  048D  35CD               	lslf	??_LCD_CMD,f
  2684  048E  3EFF               	addlw	-1
  2685  048F  1D03               	skipz
  2686  0490  2C8D               	goto	u565
  2687  0491  354D               	lslf	??_LCD_CMD,w
  2688  0492  39F0               	andlw	240
  2689  0493  3184  2405  3184   	fcall	_LCD_Write_4Bit
  2690  0496                     l525:
  2691  0496  0008               	return
  2692  0497                     __end_of_LCD_CMD:
  2693                           
  2694                           	psect	text11
  2695  0405                     __ptext11:	
  2696 ;; *************** function _LCD_Write_4Bit *****************
  2697 ;; Defined at:
  2698 ;;		line 61 in file "./LCD2004a.c"
  2699 ;; Parameters:    Size  Location     Type
  2700 ;;  Data            1    wreg     unsigned char 
  2701 ;; Auto vars:     Size  Location     Type
  2702 ;;  Data            1   14[BANK0 ] unsigned char 
  2703 ;; Return value:  Size  Location     Type
  2704 ;;                  1    wreg      void 
  2705 ;; Registers used:
  2706 ;;		wreg, fsr0l, fsr0h, fsr1l, fsr1h, status,2, status,0, pclath, cstack
  2707 ;; Tracked objects:
  2708 ;;		On entry : 0/0
  2709 ;;		On exit  : 0/0
  2710 ;;		Unchanged: 0/0
  2711 ;; Data sizes:     COMMON   BANK0   BANK1   BANK2   BANK3   BANK4
  2712 ;;      Params:         0       0       0       0       0       0
  2713 ;;      Locals:         0       1       0       0       0       0
  2714 ;;      Temps:          0       1       0       0       0       0
  2715 ;;      Totals:         0       2       0       0       0       0
  2716 ;;Total ram usage:        2 bytes
  2717 ;; Hardware stack levels used: 1
  2718 ;; Hardware stack levels required when called: 11
  2719 ;; This function calls:
  2720 ;;		_IO_Expander_Write
  2721 ;;		_IO_pulseEnable
  2722 ;; This function is called by:
  2723 ;;		_LCD_Init
  2724 ;;		_LCD_CMD
  2725 ;;		_LCD_Write_Char
  2726 ;; This function uses a non-reentrant model
  2727 ;;
  2728                           
  2729  0405                     _LCD_Write_4Bit:	
  2730                           ;psect for function _LCD_Write_4Bit
  2731                           
  2732                           
  2733                           ;incstack = 0
  2734                           ; Regs used in _LCD_Write_4Bit: [wreg-fsr1h+status,2+status,0+pclath+cstack]
  2735                           ;LCD_Write_4Bit@Data stored from wreg
  2736  0405  0020               	movlb	0	; select bank0
  2737  0406  00CC               	movwf	LCD_Write_4Bit@Data
  2738  0407                     l2506:
  2739                           
  2740                           ;./LCD2004a.c: 61: void LCD_Write_4Bit(unsigned char Data);./LCD2004a.c: 62: {;./LCD2004
      +                          a.c: 64:   Data |= RS;
  2741  0407  083D               	movf	_RS,w
  2742  0408  00CB               	movwf	??_LCD_Write_4Bit
  2743  0409  084B               	movf	??_LCD_Write_4Bit,w
  2744  040A  04CC               	iorwf	LCD_Write_4Bit@Data,f
  2745  040B                     l2508:
  2746                           
  2747                           ;./LCD2004a.c: 65:   IO_Expander_Write(Data);
  2748  040B  084C               	movf	LCD_Write_4Bit@Data,w
  2749  040C  3184  2459  3184   	fcall	_IO_Expander_Write
  2750  040F                     l2510:
  2751                           
  2752                           ;./LCD2004a.c: 66:   IO_pulseEnable(Data);
  2753  040F  0020               	movlb	0	; select bank0
  2754  0410  084C               	movf	LCD_Write_4Bit@Data,w
  2755  0411  3184  246D  3184   	fcall	_IO_pulseEnable
  2756  0414                     l522:
  2757  0414  0008               	return
  2758  0415                     __end_of_LCD_Write_4Bit:
  2759                           
  2760                           	psect	text12
  2761  046D                     __ptext12:	
  2762 ;; *************** function _IO_pulseEnable *****************
  2763 ;; Defined at:
  2764 ;;		line 54 in file "./LCD2004a.c"
  2765 ;; Parameters:    Size  Location     Type
  2766 ;;  Data            1    wreg     unsigned char 
  2767 ;; Auto vars:     Size  Location     Type
  2768 ;;  Data            1   12[BANK0 ] unsigned char 
  2769 ;; Return value:  Size  Location     Type
  2770 ;;                  1    wreg      void 
  2771 ;; Registers used:
  2772 ;;		wreg, fsr0l, fsr0h, fsr1l, fsr1h, status,2, status,0, pclath, cstack
  2773 ;; Tracked objects:
  2774 ;;		On entry : 0/0
  2775 ;;		On exit  : 0/0
  2776 ;;		Unchanged: 0/0
  2777 ;; Data sizes:     COMMON   BANK0   BANK1   BANK2   BANK3   BANK4
  2778 ;;      Params:         0       0       0       0       0       0
  2779 ;;      Locals:         0       1       0       0       0       0
  2780 ;;      Temps:          0       0       0       0       0       0
  2781 ;;      Totals:         0       1       0       0       0       0
  2782 ;;Total ram usage:        1 bytes
  2783 ;; Hardware stack levels used: 1
  2784 ;; Hardware stack levels required when called: 10
  2785 ;; This function calls:
  2786 ;;		_IO_Expander_Write
  2787 ;; This function is called by:
  2788 ;;		_LCD_Write_4Bit
  2789 ;; This function uses a non-reentrant model
  2790 ;;
  2791                           
  2792  046D                     _IO_pulseEnable:	
  2793                           ;psect for function _IO_pulseEnable
  2794                           
  2795                           
  2796                           ;incstack = 0
  2797                           ; Regs used in _IO_pulseEnable: [wreg-fsr1h+status,2+status,0+pclath+cstack]
  2798                           ;IO_pulseEnable@Data stored from wreg
  2799  046D  0020               	movlb	0	; select bank0
  2800  046E  00CA               	movwf	IO_pulseEnable@Data
  2801  046F                     l2500:
  2802                           
  2803                           ;./LCD2004a.c: 55:  IO_Expander_Write(Data | 0b00000100);
  2804  046F  084A               	movf	IO_pulseEnable@Data,w
  2805  0470  3804               	iorlw	4
  2806  0471  3184  2459  3184   	fcall	_IO_Expander_Write
  2807  0474                     l2502:
  2808                           
  2809                           ;./LCD2004a.c: 56:  _delay((unsigned long)((1)*(16000000/4000000.0)));
  2810  0474  3200               	nop2	;2 cycle nop
  2811  0475  3200               	nop2	;2 cycle nop
  2812                           
  2813                           ;./LCD2004a.c: 57:  IO_Expander_Write(Data | ~0b00000100);
  2814  0476  0020               	movlb	0	; select bank0
  2815  0477  084A               	movf	IO_pulseEnable@Data,w
  2816  0478  38FB               	iorlw	251
  2817  0479  3184  2459  3184   	fcall	_IO_Expander_Write
  2818  047C                     l2504:
  2819                           
  2820                           ;./LCD2004a.c: 58:  _delay((unsigned long)((50)*(16000000/4000000.0)));
  2821  047C  3042               	movlw	66
  2822  047D                     u907:
  2823  047D  0B89               	decfsz	9,f
  2824  047E  2C7D               	goto	u907
  2825  047F  3200               	nop2
  2826  0480                     l519:
  2827  0480  0008               	return
  2828  0481                     __end_of_IO_pulseEnable:
  2829                           
  2830                           	psect	text13
  2831  0459                     __ptext13:	
  2832 ;; *************** function _IO_Expander_Write *****************
  2833 ;; Defined at:
  2834 ;;		line 46 in file "./LCD2004a.c"
  2835 ;; Parameters:    Size  Location     Type
  2836 ;;  Data            1    wreg     unsigned char 
  2837 ;; Auto vars:     Size  Location     Type
  2838 ;;  Data            1   10[BANK0 ] unsigned char 
  2839 ;;  dt              1   11[BANK0 ] unsigned char [1]
  2840 ;; Return value:  Size  Location     Type
  2841 ;;                  1    wreg      void 
  2842 ;; Registers used:
  2843 ;;		wreg, fsr0l, fsr0h, fsr1l, fsr1h, status,2, status,0, pclath, cstack
  2844 ;; Tracked objects:
  2845 ;;		On entry : 0/0
  2846 ;;		On exit  : 0/0
  2847 ;;		Unchanged: 0/0
  2848 ;; Data sizes:     COMMON   BANK0   BANK1   BANK2   BANK3   BANK4
  2849 ;;      Params:         0       0       0       0       0       0
  2850 ;;      Locals:         0       2       0       0       0       0
  2851 ;;      Temps:          0       1       0       0       0       0
  2852 ;;      Totals:         0       3       0       0       0       0
  2853 ;;Total ram usage:        3 bytes
  2854 ;; Hardware stack levels used: 1
  2855 ;; Hardware stack levels required when called: 9
  2856 ;; This function calls:
  2857 ;;		_I2C1_WriteNBytes
  2858 ;; This function is called by:
  2859 ;;		_LCD_Init
  2860 ;;		_IO_pulseEnable
  2861 ;;		_LCD_Write_4Bit
  2862 ;;		_Backlight
  2863 ;;		_noBacklight
  2864 ;; This function uses a non-reentrant model
  2865 ;;
  2866                           
  2867  0459                     _IO_Expander_Write:	
  2868                           ;psect for function _IO_Expander_Write
  2869                           
  2870                           
  2871                           ;incstack = 0
  2872                           ; Regs used in _IO_Expander_Write: [wreg-fsr1h+status,2+status,0+pclath+cstack]
  2873                           ;IO_Expander_Write@Data stored from wreg
  2874  0459  0020               	movlb	0	; select bank0
  2875  045A  00C8               	movwf	IO_Expander_Write@Data
  2876  045B                     l2496:
  2877                           
  2878                           ;./LCD2004a.c: 46: void IO_Expander_Write(unsigned char Data);./LCD2004a.c: 47: {;./LCD2
      +                          004a.c: 48:   uint8_t dt[1];;./LCD2004a.c: 49:   dt[0]=Data | BackLight_State;
  2879  045B  0848               	movf	IO_Expander_Write@Data,w
  2880  045C  0455               	iorwf	_BackLight_State,w
  2881  045D  00C7               	movwf	??_IO_Expander_Write
  2882  045E  0847               	movf	??_IO_Expander_Write,w
  2883  045F  00C9               	movwf	IO_Expander_Write@dt
  2884  0460                     l2498:
  2885                           
  2886                           ;./LCD2004a.c: 50:   I2C1_WriteNBytes(i2c_add, &dt, 1);
  2887  0460  3049               	movlw	(low (IO_Expander_Write@dt| 0))& (0+255)
  2888  0461  00C7               	movwf	??_IO_Expander_Write
  2889  0462  0847               	movf	??_IO_Expander_Write,w
  2890  0463  00C3               	movwf	I2C1_WriteNBytes@data
  2891  0464  3001               	movlw	1
  2892  0465  00C4               	movwf	I2C1_WriteNBytes@len
  2893  0466  3000               	movlw	0
  2894  0467  00C5               	movwf	I2C1_WriteNBytes@len+1
  2895  0468  0854               	movf	_i2c_add,w
  2896  0469  3185  255C  3184   	fcall	_I2C1_WriteNBytes
  2897  046C                     l516:
  2898  046C  0008               	return
  2899  046D                     __end_of_IO_Expander_Write:
  2900                           
  2901                           	psect	text14
  2902  055C                     __ptext14:	
  2903 ;; *************** function _I2C1_WriteNBytes *****************
  2904 ;; Defined at:
  2905 ;;		line 111 in file "mcc_generated_files/examples/i2c1_master_example.c"
  2906 ;; Parameters:    Size  Location     Type
  2907 ;;  address         1    wreg     unsigned char 
  2908 ;;  data            1    5[BANK0 ] PTR unsigned char 
  2909 ;;		 -> IO_Expander_Write@dt(1), 
  2910 ;;  len             2    6[BANK0 ] unsigned int 
  2911 ;; Auto vars:     Size  Location     Type
  2912 ;;  address         1    8[BANK0 ] unsigned char 
  2913 ;; Return value:  Size  Location     Type
  2914 ;;                  1    wreg      void 
  2915 ;; Registers used:
  2916 ;;		wreg, fsr0l, fsr0h, fsr1l, fsr1h, status,2, status,0, pclath, cstack
  2917 ;; Tracked objects:
  2918 ;;		On entry : 0/0
  2919 ;;		On exit  : 0/0
  2920 ;;		Unchanged: 0/0
  2921 ;; Data sizes:     COMMON   BANK0   BANK1   BANK2   BANK3   BANK4
  2922 ;;      Params:         0       3       0       0       0       0
  2923 ;;      Locals:         0       1       0       0       0       0
  2924 ;;      Temps:          0       0       0       0       0       0
  2925 ;;      Totals:         0       4       0       0       0       0
  2926 ;;Total ram usage:        4 bytes
  2927 ;; Hardware stack levels used: 1
  2928 ;; Hardware stack levels required when called: 8
  2929 ;; This function calls:
  2930 ;;		_I2C1_Close
  2931 ;;		_I2C1_MasterWrite
  2932 ;;		_I2C1_Open
  2933 ;;		_I2C1_SetAddressNackCallback
  2934 ;;		_I2C1_SetBuffer
  2935 ;; This function is called by:
  2936 ;;		_IO_Expander_Write
  2937 ;; This function uses a non-reentrant model
  2938 ;;
  2939                           
  2940  055C                     _I2C1_WriteNBytes:	
  2941                           ;psect for function _I2C1_WriteNBytes
  2942                           
  2943                           
  2944                           ;incstack = 0
  2945                           ; Regs used in _I2C1_WriteNBytes: [wreg-fsr1h+status,2+status,0+pclath+cstack]
  2946                           ;I2C1_WriteNBytes@address stored from wreg
  2947  055C  0020               	movlb	0	; select bank0
  2948  055D  00C6               	movwf	I2C1_WriteNBytes@address
  2949  055E                     l2484:
  2950  055E                     l2486:	
  2951                           ;mcc_generated_files/examples/i2c1_master_example.c: 111: void I2C1_WriteNBytes(i2c1_add
      +                          ress_t address, uint8_t* data, size_t len);mcc_generated_files/examples/i2c1_master_exam
      +                          ple.c: 112: {;mcc_generated_files/examples/i2c1_master_example.c: 113:     while(!I2C1_O
      +                          pen(address));
  2952                           
  2953  055E  0020               	movlb	0	; select bank0
  2954  055F  0846               	movf	I2C1_WriteNBytes@address,w
  2955  0560  3186  2639  3185   	fcall	_I2C1_Open
  2956  0563  3A00               	xorlw	0
  2957  0564  1903               	skipnz
  2958  0565  2D67               	goto	u541
  2959  0566  2D68               	goto	u540
  2960  0567                     u541:
  2961  0567  2D5E               	goto	l2486
  2962  0568                     u540:
  2963  0568                     l2488:
  2964                           
  2965                           ;mcc_generated_files/examples/i2c1_master_example.c: 114:     I2C1_SetBuffer(data,len);
  2966  0568  0020               	movlb	0	; select bank0
  2967  0569  0845               	movf	I2C1_WriteNBytes@len+1,w
  2968  056A  00F1               	movwf	I2C1_SetBuffer@bufferSize+1
  2969  056B  0844               	movf	I2C1_WriteNBytes@len,w
  2970  056C  00F0               	movwf	I2C1_SetBuffer@bufferSize
  2971  056D  0843               	movf	I2C1_WriteNBytes@data,w
  2972  056E  3183  23F5  3185   	fcall	_I2C1_SetBuffer
  2973  0571                     l2490:
  2974                           
  2975                           ;mcc_generated_files/examples/i2c1_master_example.c: 115:     I2C1_SetAddressNackCallbac
      +                          k(((void*)0),((void*)0));
  2976  0571  3000               	movlw	0
  2977  0572  00F5               	movwf	I2C1_SetAddressNackCallback@cb
  2978  0573  00F6               	movwf	I2C1_SetAddressNackCallback@cb+1
  2979  0574  01F7               	clrf	I2C1_SetAddressNackCallback@ptr
  2980  0575  3183  23DB  3185   	fcall	_I2C1_SetAddressNackCallback
  2981  0578                     l2492:
  2982                           
  2983                           ;mcc_generated_files/examples/i2c1_master_example.c: 116:     I2C1_MasterWrite();
  2984  0578  3183  2375  3185   	fcall	_I2C1_MasterWrite
  2985  057B                     l2494:	
  2986                           ;mcc_generated_files/examples/i2c1_master_example.c: 117:     while(I2C1_BUSY == I2C1_Cl
      +                          ose());
  2987                           
  2988  057B  3184  24DC  3185   	fcall	_I2C1_Close
  2989  057E  3A01               	xorlw	1
  2990  057F  1903               	skipnz
  2991  0580  2D82               	goto	u551
  2992  0581  2D83               	goto	u550
  2993  0582                     u551:
  2994  0582  2D7B               	goto	l2494
  2995  0583                     u550:
  2996  0583                     l69:
  2997  0583  0008               	return
  2998  0584                     __end_of_I2C1_WriteNBytes:
  2999                           
  3000                           	psect	text15
  3001  03DB                     __ptext15:	
  3002 ;; *************** function _I2C1_SetAddressNackCallback *****************
  3003 ;; Defined at:
  3004 ;;		line 283 in file "mcc_generated_files/i2c1_master.c"
  3005 ;; Parameters:    Size  Location     Type
  3006 ;;  cb              2    5[COMMON] PTR FTN(PTR void ,)enum 
  3007 ;;		 -> Absolute function(1), 
  3008 ;;  ptr             1    7[COMMON] PTR void 
  3009 ;;		 -> NULL(0), 
  3010 ;; Auto vars:     Size  Location     Type
  3011 ;;		None
  3012 ;; Return value:  Size  Location     Type
  3013 ;;                  1    wreg      void 
  3014 ;; Registers used:
  3015 ;;		wreg, fsr1l, fsr1h, status,2, status,0, pclath, cstack
  3016 ;; Tracked objects:
  3017 ;;		On entry : 0/0
  3018 ;;		On exit  : 0/0
  3019 ;;		Unchanged: 0/0
  3020 ;; Data sizes:     COMMON   BANK0   BANK1   BANK2   BANK3   BANK4
  3021 ;;      Params:         3       0       0       0       0       0
  3022 ;;      Locals:         0       0       0       0       0       0
  3023 ;;      Temps:          1       0       0       0       0       0
  3024 ;;      Totals:         4       0       0       0       0       0
  3025 ;;Total ram usage:        4 bytes
  3026 ;; Hardware stack levels used: 1
  3027 ;; Hardware stack levels required when called: 1
  3028 ;; This function calls:
  3029 ;;		_I2C1_SetCallback
  3030 ;; This function is called by:
  3031 ;;		_I2C1_WriteNBytes
  3032 ;;		_I2C1_Read1ByteRegister
  3033 ;;		_I2C1_Read2ByteRegister
  3034 ;;		_I2C1_Write1ByteRegister
  3035 ;;		_I2C1_Write2ByteRegister
  3036 ;;		_I2C1_ReadDataBlock
  3037 ;; This function uses a non-reentrant model
  3038 ;;
  3039                           
  3040  03DB                     _I2C1_SetAddressNackCallback:	
  3041                           ;psect for function _I2C1_SetAddressNackCallback
  3042                           
  3043  03DB                     l2460:	
  3044                           ;incstack = 0
  3045                           ; Regs used in _I2C1_SetAddressNackCallback: [wreg+fsr1l+fsr1h+status,2+status,0+pclath+
      +                          cstack]
  3046                           
  3047                           
  3048                           ;mcc_generated_files/i2c1_master.c: 283: void I2C1_SetAddressNackCallback(i2c1_callback_
      +                          t cb, void *ptr);mcc_generated_files/i2c1_master.c: 284: {;mcc_generated_files/i2c1_mast
      +                          er.c: 285:     I2C1_SetCallback(I2C1_ADDR_NACK, cb, ptr);
  3049  03DB  0876               	movf	I2C1_SetAddressNackCallback@cb+1,w
  3050  03DC  00F1               	movwf	I2C1_SetCallback@cb+1
  3051  03DD  0875               	movf	I2C1_SetAddressNackCallback@cb,w
  3052  03DE  00F0               	movwf	I2C1_SetCallback@cb
  3053  03DF  0877               	movf	I2C1_SetAddressNackCallback@ptr,w
  3054  03E0  00F8               	movwf	??_I2C1_SetAddressNackCallback
  3055  03E1  0878               	movf	??_I2C1_SetAddressNackCallback,w
  3056  03E2  00F2               	movwf	I2C1_SetCallback@ptr
  3057  03E3  3002               	movlw	2
  3058  03E4  3185  2536  3183   	fcall	_I2C1_SetCallback
  3059  03E7                     l273:
  3060  03E7  0008               	return
  3061  03E8                     __end_of_I2C1_SetAddressNackCallback:
  3062                           
  3063                           	psect	text16
  3064  0639                     __ptext16:	
  3065 ;; *************** function _I2C1_Open *****************
  3066 ;; Defined at:
  3067 ;;		line 176 in file "mcc_generated_files/i2c1_master.c"
  3068 ;; Parameters:    Size  Location     Type
  3069 ;;  address         1    wreg     unsigned char 
  3070 ;; Auto vars:     Size  Location     Type
  3071 ;;  address         1    1[COMMON] unsigned char 
  3072 ;;  returnValue     1    2[COMMON] enum E355
  3073 ;; Return value:  Size  Location     Type
  3074 ;;                  1    wreg      enum E355
  3075 ;; Registers used:
  3076 ;;		wreg, status,2, status,0, pclath, cstack
  3077 ;; Tracked objects:
  3078 ;;		On entry : 0/0
  3079 ;;		On exit  : 0/0
  3080 ;;		Unchanged: 0/0
  3081 ;; Data sizes:     COMMON   BANK0   BANK1   BANK2   BANK3   BANK4
  3082 ;;      Params:         0       0       0       0       0       0
  3083 ;;      Locals:         2       0       0       0       0       0
  3084 ;;      Temps:          1       0       0       0       0       0
  3085 ;;      Totals:         3       0       0       0       0       0
  3086 ;;Total ram usage:        3 bytes
  3087 ;; Hardware stack levels used: 1
  3088 ;; Hardware stack levels required when called: 1
  3089 ;; This function calls:
  3090 ;;		_I2C1_MasterClearIrq
  3091 ;;		_I2C1_MasterOpen
  3092 ;; This function is called by:
  3093 ;;		_I2C1_WriteNBytes
  3094 ;;		_I2C1_Read1ByteRegister
  3095 ;;		_I2C1_Read2ByteRegister
  3096 ;;		_I2C1_Write1ByteRegister
  3097 ;;		_I2C1_Write2ByteRegister
  3098 ;;		_I2C1_ReadNBytes
  3099 ;;		_I2C1_ReadDataBlock
  3100 ;; This function uses a non-reentrant model
  3101 ;;
  3102                           
  3103  0639                     _I2C1_Open:	
  3104                           ;psect for function _I2C1_Open
  3105                           
  3106                           
  3107                           ;incstack = 0
  3108                           ; Regs used in _I2C1_Open: [wreg+status,2+status,0+pclath+cstack]
  3109                           ;I2C1_Open@address stored from wreg
  3110  0639  00F1               	movwf	I2C1_Open@address
  3111  063A                     l2428:
  3112                           
  3113                           ;mcc_generated_files/i2c1_master.c: 176: i2c1_error_t I2C1_Open(i2c1_address_t address);
      +                          mcc_generated_files/i2c1_master.c: 177: {;mcc_generated_files/i2c1_master.c: 178:     i2
      +                          c1_error_t returnValue = I2C1_BUSY;
  3114  063A  01F2               	clrf	I2C1_Open@returnValue
  3115  063B  0AF2               	incf	I2C1_Open@returnValue,f
  3116                           
  3117                           ;mcc_generated_files/i2c1_master.c: 180:     if(!I2C1_Status.inUse)
  3118  063C  0020               	movlb	0	; select bank0
  3119  063D  193C               	btfsc	_I2C1_Status+28,2
  3120  063E  2E40               	goto	u521
  3121  063F  2E41               	goto	u520
  3122  0640                     u521:
  3123  0640  2E71               	goto	l240
  3124  0641                     u520:
  3125  0641                     l2430:
  3126                           
  3127                           ;mcc_generated_files/i2c1_master.c: 181:     {;mcc_generated_files/i2c1_master.c: 182:  
      +                                 I2C1_Status.address = address;
  3128  0641  0871               	movf	I2C1_Open@address,w
  3129  0642  00F0               	movwf	??_I2C1_Open
  3130  0643  0870               	movf	??_I2C1_Open,w
  3131  0644  00B6               	movwf	_I2C1_Status+22
  3132  0645                     l2432:
  3133                           
  3134                           ;mcc_generated_files/i2c1_master.c: 183:         I2C1_Status.busy = 0;
  3135  0645  10BC               	bcf	_I2C1_Status+28,1
  3136  0646                     l2434:
  3137                           
  3138                           ;mcc_generated_files/i2c1_master.c: 184:         I2C1_Status.inUse = 1;
  3139  0646  153C               	bsf	_I2C1_Status+28,2
  3140  0647                     l2436:
  3141                           
  3142                           ;mcc_generated_files/i2c1_master.c: 185:         I2C1_Status.addressNackCheck = 0;
  3143  0647  103C               	bcf	_I2C1_Status+28,0
  3144                           
  3145                           ;mcc_generated_files/i2c1_master.c: 186:         I2C1_Status.state = I2C1_RESET;
  3146  0648  300E               	movlw	14
  3147  0649  00F0               	movwf	??_I2C1_Open
  3148  064A  0870               	movf	??_I2C1_Open,w
  3149  064B  00BA               	movwf	_I2C1_Status+26
  3150                           
  3151                           ;mcc_generated_files/i2c1_master.c: 187:         I2C1_Status.time_out_value = 500;
  3152  064C  30F4               	movlw	244
  3153  064D  00B4               	movwf	_I2C1_Status+20
  3154  064E  3001               	movlw	1
  3155  064F  00B5               	movwf	_I2C1_Status+21
  3156  0650                     l2438:
  3157                           
  3158                           ;mcc_generated_files/i2c1_master.c: 188:         I2C1_Status.bufferFree = 1;
  3159  0650  15BC               	bsf	_I2C1_Status+28,3
  3160                           
  3161                           ;mcc_generated_files/i2c1_master.c: 191:         I2C1_Status.callbackTable[I2C1_DATA_COM
      +                          PLETE]=I2C1_CallbackReturnStop;
  3162  0651  3018               	movlw	low _I2C1_CallbackReturnStop
  3163  0652  00A0               	movwf	_I2C1_Status
  3164  0653  3003               	movlw	high _I2C1_CallbackReturnStop
  3165  0654  00A1               	movwf	_I2C1_Status+1
  3166  0655                     l2440:
  3167                           
  3168                           ;mcc_generated_files/i2c1_master.c: 192:         I2C1_Status.callbackPayload[I2C1_DATA_C
      +                          OMPLETE] = ((void*)0);
  3169  0655  01AC               	clrf	low ((_I2C1_Status| 0+12))
  3170  0656                     l2442:
  3171                           
  3172                           ;mcc_generated_files/i2c1_master.c: 193:         I2C1_Status.callbackTable[I2C1_WRITE_CO
      +                          LLISION]=I2C1_CallbackReturnStop;
  3173  0656  3018               	movlw	low _I2C1_CallbackReturnStop
  3174  0657  00A2               	movwf	low ((_I2C1_Status| 0+2))
  3175  0658  3003               	movlw	high _I2C1_CallbackReturnStop
  3176  0659  00A3               	movwf	(low ((_I2C1_Status| 0+2))+1)
  3177                           
  3178                           ;mcc_generated_files/i2c1_master.c: 194:         I2C1_Status.callbackPayload[I2C1_WRITE_
      +                          COLLISION] = ((void*)0);
  3179  065A  01AD               	clrf	low ((_I2C1_Status| 0+13))
  3180  065B                     l2444:
  3181                           
  3182                           ;mcc_generated_files/i2c1_master.c: 195:         I2C1_Status.callbackTable[I2C1_ADDR_NAC
      +                          K]=I2C1_CallbackReturnStop;
  3183  065B  3018               	movlw	low _I2C1_CallbackReturnStop
  3184  065C  00A4               	movwf	low ((_I2C1_Status| 0+4))
  3185  065D  3003               	movlw	high _I2C1_CallbackReturnStop
  3186  065E  00A5               	movwf	(low ((_I2C1_Status| 0+4))+1)
  3187  065F                     l2446:
  3188                           
  3189                           ;mcc_generated_files/i2c1_master.c: 196:         I2C1_Status.callbackPayload[I2C1_ADDR_N
      +                          ACK] = ((void*)0);
  3190  065F  01AE               	clrf	low ((_I2C1_Status| 0+14))
  3191                           
  3192                           ;mcc_generated_files/i2c1_master.c: 197:         I2C1_Status.callbackTable[I2C1_DATA_NAC
      +                          K]=I2C1_CallbackReturnStop;
  3193  0660  3018               	movlw	low _I2C1_CallbackReturnStop
  3194  0661  00A6               	movwf	low ((_I2C1_Status| 0+6))
  3195  0662  3003               	movlw	high _I2C1_CallbackReturnStop
  3196  0663  00A7               	movwf	(low ((_I2C1_Status| 0+6))+1)
  3197  0664                     l2448:
  3198                           
  3199                           ;mcc_generated_files/i2c1_master.c: 198:         I2C1_Status.callbackPayload[I2C1_DATA_N
      +                          ACK] = ((void*)0);
  3200  0664  01AF               	clrf	low ((_I2C1_Status| 0+15))
  3201  0665                     l2450:
  3202                           
  3203                           ;mcc_generated_files/i2c1_master.c: 199:         I2C1_Status.callbackTable[I2C1_TIMEOUT]
      +                          =I2C1_CallbackReturnReset;
  3204  0665  301A               	movlw	low _I2C1_CallbackReturnReset
  3205  0666  00A8               	movwf	low ((_I2C1_Status| 0+8))
  3206  0667  3003               	movlw	high _I2C1_CallbackReturnReset
  3207  0668  00A9               	movwf	(low ((_I2C1_Status| 0+8))+1)
  3208                           
  3209                           ;mcc_generated_files/i2c1_master.c: 200:         I2C1_Status.callbackPayload[I2C1_TIMEOU
      +                          T] = ((void*)0);
  3210  0669  01B0               	clrf	low ((_I2C1_Status| 0+16))
  3211  066A                     l2452:
  3212                           
  3213                           ;mcc_generated_files/i2c1_master.c: 202:         I2C1_MasterClearIrq();
  3214  066A  3183  231C  3186   	fcall	_I2C1_MasterClearIrq
  3215  066D                     l2454:
  3216                           
  3217                           ;mcc_generated_files/i2c1_master.c: 203:         I2C1_MasterOpen();
  3218  066D  3183  23CE  3186   	fcall	_I2C1_MasterOpen
  3219  0670                     l2456:
  3220                           
  3221                           ;mcc_generated_files/i2c1_master.c: 204:         returnValue = I2C1_NOERR;
  3222  0670  01F2               	clrf	I2C1_Open@returnValue
  3223  0671                     l240:	
  3224                           ;mcc_generated_files/i2c1_master.c: 205:     }
  3225                           
  3226                           
  3227                           ;mcc_generated_files/i2c1_master.c: 206:     return returnValue;
  3228  0671  0872               	movf	I2C1_Open@returnValue,w
  3229  0672                     l241:
  3230  0672  0008               	return
  3231  0673                     __end_of_I2C1_Open:
  3232                           
  3233                           	psect	text17
  3234  03CE                     __ptext17:	
  3235 ;; *************** function _I2C1_MasterOpen *****************
  3236 ;; Defined at:
  3237 ;;		line 543 in file "mcc_generated_files/i2c1_master.c"
  3238 ;; Parameters:    Size  Location     Type
  3239 ;;		None
  3240 ;; Auto vars:     Size  Location     Type
  3241 ;;		None
  3242 ;; Return value:  Size  Location     Type
  3243 ;;                  1    wreg      _Bool 
  3244 ;; Registers used:
  3245 ;;		wreg, status,2
  3246 ;; Tracked objects:
  3247 ;;		On entry : 0/0
  3248 ;;		On exit  : 0/0
  3249 ;;		Unchanged: 0/0
  3250 ;; Data sizes:     COMMON   BANK0   BANK1   BANK2   BANK3   BANK4
  3251 ;;      Params:         0       0       0       0       0       0
  3252 ;;      Locals:         0       0       0       0       0       0
  3253 ;;      Temps:          0       0       0       0       0       0
  3254 ;;      Totals:         0       0       0       0       0       0
  3255 ;;Total ram usage:        0 bytes
  3256 ;; Hardware stack levels used: 1
  3257 ;; This function calls:
  3258 ;;		Nothing
  3259 ;; This function is called by:
  3260 ;;		_I2C1_Open
  3261 ;; This function uses a non-reentrant model
  3262 ;;
  3263                           
  3264  03CE                     _I2C1_MasterOpen:	
  3265                           ;psect for function _I2C1_MasterOpen
  3266                           
  3267  03CE                     l2392:	
  3268                           ;incstack = 0
  3269                           ; Regs used in _I2C1_MasterOpen: [wreg+status,2]
  3270                           
  3271                           
  3272                           ;mcc_generated_files/i2c1_master.c: 545:     if(!SSP1CON1bits.SSPEN)
  3273  03CE  0024               	movlb	4	; select bank4
  3274  03CF  1A95               	btfsc	21,5	;volatile
  3275  03D0  2BD2               	goto	u491
  3276  03D1  2BD3               	goto	u490
  3277  03D2                     u491:
  3278  03D2  2BDA               	goto	l406
  3279  03D3                     u490:
  3280  03D3                     l2394:
  3281                           
  3282                           ;mcc_generated_files/i2c1_master.c: 546:     {;mcc_generated_files/i2c1_master.c: 547:  
      +                                 SSP1STAT = 0x00;
  3283  03D3  0194               	clrf	20	;volatile
  3284  03D4                     l2396:
  3285                           
  3286                           ;mcc_generated_files/i2c1_master.c: 548:         SSP1CON1 = 0x08;
  3287  03D4  3008               	movlw	8
  3288  03D5  0095               	movwf	21	;volatile
  3289  03D6                     l2398:
  3290                           
  3291                           ;mcc_generated_files/i2c1_master.c: 549:         SSP1CON2 = 0x00;
  3292  03D6  0196               	clrf	22	;volatile
  3293                           
  3294                           ;mcc_generated_files/i2c1_master.c: 550:         SSP1ADD = 0x27;
  3295  03D7  3027               	movlw	39
  3296  03D8  0092               	movwf	18	;volatile
  3297  03D9                     l2400:
  3298                           
  3299                           ;mcc_generated_files/i2c1_master.c: 551:         SSP1CON1bits.SSPEN = 1;
  3300  03D9  1695               	bsf	21,5	;volatile
  3301  03DA                     l406:
  3302  03DA  0008               	return
  3303  03DB                     __end_of_I2C1_MasterOpen:
  3304                           
  3305                           	psect	text18
  3306  0375                     __ptext18:	
  3307 ;; *************** function _I2C1_MasterWrite *****************
  3308 ;; Defined at:
  3309 ;;		line 251 in file "mcc_generated_files/i2c1_master.c"
  3310 ;; Parameters:    Size  Location     Type
  3311 ;;		None
  3312 ;; Auto vars:     Size  Location     Type
  3313 ;;		None
  3314 ;; Return value:  Size  Location     Type
  3315 ;;                  1    wreg      enum E355
  3316 ;; Registers used:
  3317 ;;		wreg, fsr0l, fsr0h, fsr1l, fsr1h, status,2, status,0, pclath, cstack
  3318 ;; Tracked objects:
  3319 ;;		On entry : 0/0
  3320 ;;		On exit  : 0/0
  3321 ;;		Unchanged: 0/0
  3322 ;; Data sizes:     COMMON   BANK0   BANK1   BANK2   BANK3   BANK4
  3323 ;;      Params:         0       0       0       0       0       0
  3324 ;;      Locals:         0       0       0       0       0       0
  3325 ;;      Temps:          0       0       0       0       0       0
  3326 ;;      Totals:         0       0       0       0       0       0
  3327 ;;Total ram usage:        0 bytes
  3328 ;; Hardware stack levels used: 1
  3329 ;; Hardware stack levels required when called: 7
  3330 ;; This function calls:
  3331 ;;		_I2C1_MasterOperation
  3332 ;; This function is called by:
  3333 ;;		_I2C1_WriteNBytes
  3334 ;;		_I2C1_Read1ByteRegister
  3335 ;;		_I2C1_Read2ByteRegister
  3336 ;;		_I2C1_Write1ByteRegister
  3337 ;;		_I2C1_Write2ByteRegister
  3338 ;;		_I2C1_ReadDataBlock
  3339 ;; This function uses a non-reentrant model
  3340 ;;
  3341                           
  3342  0375                     _I2C1_MasterWrite:	
  3343                           ;psect for function _I2C1_MasterWrite
  3344                           
  3345  0375                     l2462:	
  3346                           ;incstack = 0
  3347                           ; Regs used in _I2C1_MasterWrite: [wreg-fsr1h+status,2+status,0+pclath+cstack]
  3348                           
  3349                           
  3350                           ;mcc_generated_files/i2c1_master.c: 253:     return I2C1_MasterOperation(0);;	Return val
      +                          ue of _I2C1_MasterWrite is never used
  3351  0375  3000               	movlw	0
  3352  0376  3184  24F8  3183   	fcall	_I2C1_MasterOperation
  3353  0379                     l257:
  3354  0379  0008               	return
  3355  037A                     __end_of_I2C1_MasterWrite:
  3356                           
  3357                           	psect	text19
  3358  04F8                     __ptext19:	
  3359 ;; *************** function _I2C1_MasterOperation *****************
  3360 ;; Defined at:
  3361 ;;		line 224 in file "mcc_generated_files/i2c1_master.c"
  3362 ;; Parameters:    Size  Location     Type
  3363 ;;  read            1    wreg     _Bool 
  3364 ;; Auto vars:     Size  Location     Type
  3365 ;;  read            1    3[BANK0 ] _Bool 
  3366 ;;  returnValue     1    4[BANK0 ] enum E355
  3367 ;; Return value:  Size  Location     Type
  3368 ;;                  1    wreg      enum E355
  3369 ;; Registers used:
  3370 ;;		wreg, fsr0l, fsr0h, fsr1l, fsr1h, status,2, status,0, pclath, cstack
  3371 ;; Tracked objects:
  3372 ;;		On entry : 0/0
  3373 ;;		On exit  : 0/0
  3374 ;;		Unchanged: 0/0
  3375 ;; Data sizes:     COMMON   BANK0   BANK1   BANK2   BANK3   BANK4
  3376 ;;      Params:         0       0       0       0       0       0
  3377 ;;      Locals:         0       2       0       0       0       0
  3378 ;;      Temps:          1       0       0       0       0       0
  3379 ;;      Totals:         1       2       0       0       0       0
  3380 ;;Total ram usage:        3 bytes
  3381 ;; Hardware stack levels used: 1
  3382 ;; Hardware stack levels required when called: 6
  3383 ;; This function calls:
  3384 ;;		_I2C1_MasterStart
  3385 ;;		_I2C1_Poller
  3386 ;; This function is called by:
  3387 ;;		_I2C1_MasterWrite
  3388 ;;		_I2C1_MasterRead
  3389 ;; This function uses a non-reentrant model
  3390 ;;
  3391                           
  3392  04F8                     _I2C1_MasterOperation:	
  3393                           ;psect for function _I2C1_MasterOperation
  3394                           
  3395                           
  3396                           ;incstack = 0
  3397                           ; Regs used in _I2C1_MasterOperation: [wreg-fsr1h+status,2+status,0+pclath+cstack]
  3398                           ;I2C1_MasterOperation@read stored from wreg
  3399  04F8  0020               	movlb	0	; select bank0
  3400  04F9  00C1               	movwf	I2C1_MasterOperation@read
  3401  04FA                     l2408:
  3402                           
  3403                           ;mcc_generated_files/i2c1_master.c: 224: i2c1_error_t I2C1_MasterOperation(_Bool read);m
      +                          cc_generated_files/i2c1_master.c: 225: {;mcc_generated_files/i2c1_master.c: 226:     i2c
      +                          1_error_t returnValue = I2C1_BUSY;
  3404  04FA  01C2               	clrf	I2C1_MasterOperation@returnValue
  3405  04FB  0AC2               	incf	I2C1_MasterOperation@returnValue,f
  3406                           
  3407                           ;mcc_generated_files/i2c1_master.c: 227:     if(!I2C1_Status.busy)
  3408  04FC  18BC               	btfsc	_I2C1_Status+28,1
  3409  04FD  2CFF               	goto	u501
  3410  04FE  2D00               	goto	u500
  3411  04FF                     u501:
  3412  04FF  2D14               	goto	l2424
  3413  0500                     u500:
  3414  0500                     l2410:
  3415                           
  3416                           ;mcc_generated_files/i2c1_master.c: 228:     {;mcc_generated_files/i2c1_master.c: 229:  
      +                                 I2C1_Status.busy = 1;
  3417  0500  14BC               	bsf	_I2C1_Status+28,1
  3418  0501                     l2412:
  3419                           
  3420                           ;mcc_generated_files/i2c1_master.c: 230:         returnValue = I2C1_NOERR;
  3421  0501  01C2               	clrf	I2C1_MasterOperation@returnValue
  3422  0502                     l2414:
  3423                           
  3424                           ;mcc_generated_files/i2c1_master.c: 232:         if(read)
  3425  0502  0841               	movf	I2C1_MasterOperation@read,w
  3426  0503  1903               	btfsc	3,2
  3427  0504  2D06               	goto	u511
  3428  0505  2D07               	goto	u510
  3429  0506                     u511:
  3430  0506  2D0A               	goto	l2418
  3431  0507                     u510:
  3432  0507                     l2416:
  3433                           
  3434                           ;mcc_generated_files/i2c1_master.c: 233:         {;mcc_generated_files/i2c1_master.c: 23
      +                          4:             I2C1_Status.state = I2C1_SEND_ADR_READ;
  3435  0507  01BA               	clrf	_I2C1_Status+26
  3436  0508  0ABA               	incf	_I2C1_Status+26,f
  3437                           
  3438                           ;mcc_generated_files/i2c1_master.c: 235:         }
  3439  0509  2D0E               	goto	l2420
  3440  050A                     l2418:
  3441                           
  3442                           ;mcc_generated_files/i2c1_master.c: 237:         {;mcc_generated_files/i2c1_master.c: 23
      +                          8:             I2C1_Status.state = I2C1_SEND_ADR_WRITE;
  3443  050A  3002               	movlw	2
  3444  050B  00FD               	movwf	??_I2C1_MasterOperation
  3445  050C  087D               	movf	??_I2C1_MasterOperation,w
  3446  050D  00BA               	movwf	_I2C1_Status+26
  3447  050E                     l2420:
  3448                           
  3449                           ;mcc_generated_files/i2c1_master.c: 240:         I2C1_MasterStart();
  3450  050E  3183  2325  3184   	fcall	_I2C1_MasterStart
  3451  0511                     l2422:
  3452                           
  3453                           ;mcc_generated_files/i2c1_master.c: 241:         I2C1_Poller();
  3454  0511  3183  23C1  3184   	fcall	_I2C1_Poller
  3455  0514                     l2424:
  3456                           
  3457                           ;mcc_generated_files/i2c1_master.c: 243:     return returnValue;
  3458  0514  0020               	movlb	0	; select bank0
  3459  0515  0842               	movf	I2C1_MasterOperation@returnValue,w
  3460  0516                     l251:
  3461  0516  0008               	return
  3462  0517                     __end_of_I2C1_MasterOperation:
  3463                           
  3464                           	psect	text20
  3465  03C1                     __ptext20:	
  3466 ;; *************** function _I2C1_Poller *****************
  3467 ;; Defined at:
  3468 ;;		line 312 in file "mcc_generated_files/i2c1_master.c"
  3469 ;; Parameters:    Size  Location     Type
  3470 ;;		None
  3471 ;; Auto vars:     Size  Location     Type
  3472 ;;		None
  3473 ;; Return value:  Size  Location     Type
  3474 ;;                  1    wreg      void 
  3475 ;; Registers used:
  3476 ;;		wreg, fsr0l, fsr0h, fsr1l, fsr1h, status,2, status,0, pclath, cstack
  3477 ;; Tracked objects:
  3478 ;;		On entry : 0/0
  3479 ;;		On exit  : 0/0
  3480 ;;		Unchanged: 0/0
  3481 ;; Data sizes:     COMMON   BANK0   BANK1   BANK2   BANK3   BANK4
  3482 ;;      Params:         0       0       0       0       0       0
  3483 ;;      Locals:         0       0       0       0       0       0
  3484 ;;      Temps:          0       0       0       0       0       0
  3485 ;;      Totals:         0       0       0       0       0       0
  3486 ;;Total ram usage:        0 bytes
  3487 ;; Hardware stack levels used: 1
  3488 ;; Hardware stack levels required when called: 5
  3489 ;; This function calls:
  3490 ;;		_I2C1_MasterFsm
  3491 ;;		_I2C1_MasterWaitForEvent
  3492 ;; This function is called by:
  3493 ;;		_I2C1_MasterOperation
  3494 ;; This function uses a non-reentrant model
  3495 ;;
  3496                           
  3497  03C1                     _I2C1_Poller:	
  3498                           ;psect for function _I2C1_Poller
  3499                           
  3500  03C1                     l2384:	
  3501                           ;incstack = 0
  3502                           ; Regs used in _I2C1_Poller: [wreg-fsr1h+status,2+status,0+pclath+cstack]
  3503                           
  3504                           
  3505                           ;mcc_generated_files/i2c1_master.c: 314:     while(I2C1_Status.busy)
  3506  03C1  2BC8               	goto	l2390
  3507  03C2                     l2386:
  3508                           
  3509                           ;mcc_generated_files/i2c1_master.c: 315:     {;mcc_generated_files/i2c1_master.c: 316:  
      +                                 I2C1_MasterWaitForEvent();
  3510  03C2  3183  2380  3183   	fcall	_I2C1_MasterWaitForEvent
  3511  03C5                     l2388:
  3512                           
  3513                           ;mcc_generated_files/i2c1_master.c: 317:         I2C1_MasterFsm();
  3514  03C5  3185  2584  3183   	fcall	_I2C1_MasterFsm
  3515  03C8                     l2390:
  3516                           
  3517                           ;mcc_generated_files/i2c1_master.c: 314:     while(I2C1_Status.busy)
  3518  03C8  0020               	movlb	0	; select bank0
  3519  03C9  18BC               	btfsc	_I2C1_Status+28,1
  3520  03CA  2BCC               	goto	u481
  3521  03CB  2BCD               	goto	u480
  3522  03CC                     u481:
  3523  03CC  2BC2               	goto	l2386
  3524  03CD                     u480:
  3525  03CD                     l290:
  3526  03CD  0008               	return
  3527  03CE                     __end_of_I2C1_Poller:
  3528                           
  3529                           	psect	text21
  3530  0380                     __ptext21:	
  3531 ;; *************** function _I2C1_MasterWaitForEvent *****************
  3532 ;; Defined at:
  3533 ;;		line 650 in file "mcc_generated_files/i2c1_master.c"
  3534 ;; Parameters:    Size  Location     Type
  3535 ;;		None
  3536 ;; Auto vars:     Size  Location     Type
  3537 ;;		None
  3538 ;; Return value:  Size  Location     Type
  3539 ;;                  1    wreg      void 
  3540 ;; Registers used:
  3541 ;;		None
  3542 ;; Tracked objects:
  3543 ;;		On entry : 0/0
  3544 ;;		On exit  : 0/0
  3545 ;;		Unchanged: 0/0
  3546 ;; Data sizes:     COMMON   BANK0   BANK1   BANK2   BANK3   BANK4
  3547 ;;      Params:         0       0       0       0       0       0
  3548 ;;      Locals:         0       0       0       0       0       0
  3549 ;;      Temps:          0       0       0       0       0       0
  3550 ;;      Totals:         0       0       0       0       0       0
  3551 ;;Total ram usage:        0 bytes
  3552 ;; Hardware stack levels used: 1
  3553 ;; This function calls:
  3554 ;;		Nothing
  3555 ;; This function is called by:
  3556 ;;		_I2C1_Poller
  3557 ;; This function uses a non-reentrant model
  3558 ;;
  3559                           
  3560  0380                     _I2C1_MasterWaitForEvent:	
  3561                           ;psect for function _I2C1_MasterWaitForEvent
  3562                           
  3563  0380                     l463:	
  3564                           ;incstack = 0
  3565                           ; Regs used in _I2C1_MasterWaitForEvent: []
  3566                           ;mcc_generated_files/i2c1_master.c: 652:     while(1)
  3567                           
  3568                           
  3569                           ;mcc_generated_files/i2c1_master.c: 653:     {;mcc_generated_files/i2c1_master.c: 654:  
      +                                 if(PIR1bits.SSP1IF)
  3570  0380  0020               	movlb	0	; select bank0
  3571  0381  1D91               	btfss	17,3	;volatile
  3572  0382  2B84               	goto	u451
  3573  0383  2B85               	goto	u450
  3574  0384                     u451:
  3575  0384  2B80               	goto	l463
  3576  0385                     u450:
  3577  0385                     l467:
  3578  0385  0008               	return
  3579  0386                     __end_of_I2C1_MasterWaitForEvent:
  3580                           
  3581                           	psect	text22
  3582  0584                     __ptext22:	
  3583 ;; *************** function _I2C1_MasterFsm *****************
  3584 ;; Defined at:
  3585 ;;		line 321 in file "mcc_generated_files/i2c1_master.c"
  3586 ;; Parameters:    Size  Location     Type
  3587 ;;		None
  3588 ;; Auto vars:     Size  Location     Type
  3589 ;;		None
  3590 ;; Return value:  Size  Location     Type
  3591 ;;                  1    wreg      void 
  3592 ;; Registers used:
  3593 ;;		wreg, fsr0l, fsr0h, fsr1l, fsr1h, status,2, status,0, pclath, cstack
  3594 ;; Tracked objects:
  3595 ;;		On entry : 0/0
  3596 ;;		On exit  : 0/0
  3597 ;;		Unchanged: 0/0
  3598 ;; Data sizes:     COMMON   BANK0   BANK1   BANK2   BANK3   BANK4
  3599 ;;      Params:         0       0       0       0       0       0
  3600 ;;      Locals:         0       0       0       0       0       0
  3601 ;;      Temps:          0       3       0       0       0       0
  3602 ;;      Totals:         0       3       0       0       0       0
  3603 ;;Total ram usage:        3 bytes
  3604 ;; Hardware stack levels used: 1
  3605 ;; Hardware stack levels required when called: 4
  3606 ;; This function calls:
  3607 ;;		_I2C1_DO_ADDRESS_NACK
  3608 ;;		_I2C1_DO_IDLE
  3609 ;;		_I2C1_DO_RCEN
  3610 ;;		_I2C1_DO_RESET
  3611 ;;		_I2C1_DO_RX
  3612 ;;		_I2C1_DO_RX_ACK
  3613 ;;		_I2C1_DO_RX_NACK_RESTART
  3614 ;;		_I2C1_DO_RX_NACK_STOP
  3615 ;;		_I2C1_DO_SEND_ADR_READ
  3616 ;;		_I2C1_DO_SEND_ADR_WRITE
  3617 ;;		_I2C1_DO_SEND_RESTART
  3618 ;;		_I2C1_DO_SEND_RESTART_READ
  3619 ;;		_I2C1_DO_SEND_RESTART_WRITE
  3620 ;;		_I2C1_DO_SEND_STOP
  3621 ;;		_I2C1_DO_TX
  3622 ;;		_I2C1_DO_TX_EMPTY
  3623 ;;		_I2C1_MasterClearIrq
  3624 ;;		_I2C1_MasterIsNack
  3625 ;; This function is called by:
  3626 ;;		_I2C1_Poller
  3627 ;; This function uses a non-reentrant model
  3628 ;;
  3629                           
  3630  0584                     _I2C1_MasterFsm:	
  3631                           ;psect for function _I2C1_MasterFsm
  3632                           
  3633  0584                     l2372:	
  3634                           ;incstack = 0
  3635                           ; Regs used in _I2C1_MasterFsm: [wreg-fsr1h+status,2+status,0+pclath+cstack]
  3636                           
  3637                           
  3638                           ;mcc_generated_files/i2c1_master.c: 323:     I2C1_MasterClearIrq();
  3639  0584  3183  231C  3185   	fcall	_I2C1_MasterClearIrq
  3640  0587                     l2374:
  3641                           
  3642                           ;mcc_generated_files/i2c1_master.c: 325:     if(I2C1_Status.addressNackCheck && I2C1_Mas
      +                          terIsNack())
  3643  0587  0020               	movlb	0	; select bank0
  3644  0588  1C3C               	btfss	_I2C1_Status+28,0
  3645  0589  2D8B               	goto	u461
  3646  058A  2D8C               	goto	u460
  3647  058B                     u461:
  3648  058B  2D99               	goto	l2380
  3649  058C                     u460:
  3650  058C                     l2376:
  3651  058C  3183  237A  3185   	fcall	_I2C1_MasterIsNack
  3652  058F  3A00               	xorlw	0
  3653  0590  1903               	skipnz
  3654  0591  2D93               	goto	u471
  3655  0592  2D94               	goto	u470
  3656  0593                     u471:
  3657  0593  2D99               	goto	l2380
  3658  0594                     u470:
  3659  0594                     l2378:
  3660                           
  3661                           ;mcc_generated_files/i2c1_master.c: 326:     {;mcc_generated_files/i2c1_master.c: 327:  
      +                                 I2C1_Status.state = I2C1_ADDRESS_NACK;
  3662  0594  300F               	movlw	15
  3663  0595  0020               	movlb	0	; select bank0
  3664  0596  00BE               	movwf	??_I2C1_MasterFsm
  3665  0597  083E               	movf	??_I2C1_MasterFsm,w
  3666  0598  00BA               	movwf	_I2C1_Status+26
  3667  0599                     l2380:
  3668                           
  3669                           ;mcc_generated_files/i2c1_master.c: 329:     I2C1_Status.state = i2c1_fsmStateTable[I2C1
      +                          _Status.state]();
  3670  0599  0020               	movlb	0	; select bank0
  3671  059A  083A               	movf	_I2C1_Status+26,w
  3672  059B  00BE               	movwf	??_I2C1_MasterFsm
  3673  059C  01BF               	clrf	??_I2C1_MasterFsm+1
  3674  059D  35BE               	lslf	??_I2C1_MasterFsm,f
  3675  059E  0DBF               	rlf	??_I2C1_MasterFsm+1,f
  3676  059F  3000               	movlw	low (_i2c1_fsmStateTable| (0+32768))
  3677  05A0  073E               	addwf	??_I2C1_MasterFsm,w
  3678  05A1  0084               	movwf	4
  3679  05A2  3088               	movlw	high (_i2c1_fsmStateTable| (0+32768))
  3680  05A3  3D3F               	addwfc	??_I2C1_MasterFsm+1,w
  3681  05A4  0085               	movwf	5
  3682  05A5  3F01               	moviw [1]fsr0
  3683  05A6  008A               	movwf	10
  3684  05A7  3F00               	moviw [0]fsr0
  3685  05A8  000A               	callw
  3686  05A9  3185               	pagesel	$
  3687  05AA  0020               	movlb	0	; select bank0
  3688  05AB  00C0               	movwf	??_I2C1_MasterFsm+2
  3689  05AC  0840               	movf	??_I2C1_MasterFsm+2,w
  3690  05AD  00BA               	movwf	_I2C1_Status+26
  3691  05AE                     l294:
  3692  05AE  0008               	return
  3693  05AF                     __end_of_I2C1_MasterFsm:
  3694                           
  3695                           	psect	text23
  3696  05AF                     __ptext23:	
  3697 ;; *************** function _I2C1_DO_ADDRESS_NACK *****************
  3698 ;; Defined at:
  3699 ;;		line 500 in file "mcc_generated_files/i2c1_master.c"
  3700 ;; Parameters:    Size  Location     Type
  3701 ;;		None
  3702 ;; Auto vars:     Size  Location     Type
  3703 ;;		None
  3704 ;; Return value:  Size  Location     Type
  3705 ;;                  1    wreg      enum E2870
  3706 ;; Registers used:
  3707 ;;		wreg, fsr0l, fsr0h, fsr1l, fsr1h, status,2, status,0, pclath, cstack
  3708 ;; Tracked objects:
  3709 ;;		On entry : 0/0
  3710 ;;		On exit  : 0/0
  3711 ;;		Unchanged: 0/0
  3712 ;; Data sizes:     COMMON   BANK0   BANK1   BANK2   BANK3   BANK4
  3713 ;;      Params:         0       0       0       0       0       0
  3714 ;;      Locals:         0       0       0       0       0       0
  3715 ;;      Temps:          3       0       0       0       0       0
  3716 ;;      Totals:         3       0       0       0       0       0
  3717 ;;Total ram usage:        3 bytes
  3718 ;; Hardware stack levels used: 1
  3719 ;; Hardware stack levels required when called: 3
  3720 ;; This function calls:
  3721 ;;		Absolute function
  3722 ;;		_I2C1_CallbackReturnReset
  3723 ;;		_I2C1_CallbackReturnStop
  3724 ;;		_I2C1_DO_SEND_RESTART
  3725 ;;		_I2C1_DO_SEND_STOP
  3726 ;;		_rd1RegCompleteHandler
  3727 ;;		_rd2RegCompleteHandler
  3728 ;;		_rdBlkRegCompleteHandler
  3729 ;;		_wr1RegCompleteHandler
  3730 ;;		_wr2RegCompleteHandler
  3731 ;; This function is called by:
  3732 ;;		_I2C1_MasterFsm
  3733 ;; This function uses a non-reentrant model
  3734 ;;
  3735                           
  3736  05AF                     _I2C1_DO_ADDRESS_NACK:	
  3737                           ;psect for function _I2C1_DO_ADDRESS_NACK
  3738                           
  3739  05AF                     l2350:	
  3740                           ;incstack = 0
  3741                           ; Regs used in _I2C1_DO_ADDRESS_NACK: [wreg-fsr1h+status,2+status,0+pclath+cstack]
  3742                           
  3743                           
  3744                           ;mcc_generated_files/i2c1_master.c: 502:     I2C1_Status.addressNackCheck = 0;
  3745  05AF  0020               	movlb	0	; select bank0
  3746  05B0  103C               	bcf	_I2C1_Status+28,0
  3747  05B1                     l2352:
  3748                           
  3749                           ;mcc_generated_files/i2c1_master.c: 503:     I2C1_Status.error = I2C1_FAIL;
  3750  05B1  3002               	movlw	2
  3751  05B2  00FA               	movwf	??_I2C1_DO_ADDRESS_NACK
  3752  05B3  087A               	movf	??_I2C1_DO_ADDRESS_NACK,w
  3753  05B4  00BB               	movwf	_I2C1_Status+27
  3754                           
  3755                           ;mcc_generated_files/i2c1_master.c: 504:     switch(I2C1_Status.callbackTable[I2C1_ADDR_
      +                          NACK](I2C1_Status.callbackPayload[I2C1_ADDR_NACK]))
  3756  05B5  2DBE               	goto	l2364
  3757  05B6                     l2354:
  3758                           
  3759                           ;mcc_generated_files/i2c1_master.c: 508:             return I2C1_DO_SEND_RESTART();
  3760  05B6  3183  2357  3185   	fcall	_I2C1_DO_SEND_RESTART
  3761  05B9  2DDA               	goto	l385
  3762  05BA                     l2358:
  3763                           
  3764                           ;mcc_generated_files/i2c1_master.c: 510:             return I2C1_DO_SEND_STOP();
  3765  05BA  3183  235C  3185   	fcall	_I2C1_DO_SEND_STOP
  3766  05BD  2DDA               	goto	l385
  3767  05BE                     l2364:
  3768  05BE  082E               	movf	low ((_I2C1_Status| 0+14)),w
  3769  05BF  00FA               	movwf	??_I2C1_DO_ADDRESS_NACK
  3770  05C0  087A               	movf	??_I2C1_DO_ADDRESS_NACK,w
  3771  05C1  00F9               	movwf	I2C1_CallbackReturnReset@funPtr
  3772  05C2  3004               	movlw	4
  3773  05C3  3E20               	addlw	(low (_I2C1_Status| 0))& (0+255)
  3774  05C4  0086               	movwf	6
  3775  05C5  0187               	clrf	7
  3776  05C6  3F41               	moviw [1]fsr1
  3777  05C7  008A               	movwf	10
  3778  05C8  3F40               	moviw [0]fsr1
  3779  05C9  000A               	callw
  3780  05CA  3185               	pagesel	$
  3781  05CB  00FB               	movwf	??_I2C1_DO_ADDRESS_NACK+1
  3782  05CC  01FC               	clrf	??_I2C1_DO_ADDRESS_NACK+2
  3783                           
  3784                           ; Switch on 2 bytes has been partitioned into a top level switch of size 1, and 1 sub-sw
      +                          itches
  3785                           ; Switch size 1, requested type "simple"
  3786                           ; Number of cases is 1, Range of values is 0 to 0
  3787                           ; switch strategies available:
  3788                           ; Name         Instructions Cycles
  3789                           ; simple_byte            4     3 (average)
  3790                           ; direct_byte            8     6 (fixed)
  3791                           ; jumptable            260     6 (fixed)
  3792                           ;	Chosen strategy is simple_byte
  3793  05CD  087C               	movf	??_I2C1_DO_ADDRESS_NACK+2,w
  3794  05CE  3A00               	xorlw	0	; case 0
  3795  05CF  1903               	skipnz
  3796  05D0  2DD2               	goto	l2940
  3797  05D1  2DBA               	goto	l2358
  3798  05D2                     l2940:
  3799                           
  3800                           ; Switch size 1, requested type "simple"
  3801                           ; Number of cases is 2, Range of values is 2 to 3
  3802                           ; switch strategies available:
  3803                           ; Name         Instructions Cycles
  3804                           ; simple_byte            7     4 (average)
  3805                           ; direct_byte           13     9 (fixed)
  3806                           ; jumptable            263     9 (fixed)
  3807                           ;	Chosen strategy is simple_byte
  3808  05D2  087B               	movf	??_I2C1_DO_ADDRESS_NACK+1,w
  3809  05D3  3A02               	xorlw	2	; case 2
  3810  05D4  1903               	skipnz
  3811  05D5  2DB6               	goto	l2354
  3812  05D6  3A01               	xorlw	1	; case 3
  3813  05D7  1903               	skipnz
  3814  05D8  2DB6               	goto	l2354
  3815  05D9  2DBA               	goto	l2358
  3816  05DA                     l385:
  3817  05DA  0008               	return
  3818  05DB                     __end_of_I2C1_DO_ADDRESS_NACK:
  3819                           
  3820                           	psect	text24
  3821  0370                     __ptext24:	
  3822 ;; *************** function _I2C1_DO_RESET *****************
  3823 ;; Defined at:
  3824 ;;		line 494 in file "mcc_generated_files/i2c1_master.c"
  3825 ;; Parameters:    Size  Location     Type
  3826 ;;		None
  3827 ;; Auto vars:     Size  Location     Type
  3828 ;;		None
  3829 ;; Return value:  Size  Location     Type
  3830 ;;                  1    wreg      enum E2870
  3831 ;; Registers used:
  3832 ;;		wreg, status,2
  3833 ;; Tracked objects:
  3834 ;;		On entry : 0/0
  3835 ;;		On exit  : 0/0
  3836 ;;		Unchanged: 0/0
  3837 ;; Data sizes:     COMMON   BANK0   BANK1   BANK2   BANK3   BANK4
  3838 ;;      Params:         0       0       0       0       0       0
  3839 ;;      Locals:         0       0       0       0       0       0
  3840 ;;      Temps:          0       0       0       0       0       0
  3841 ;;      Totals:         0       0       0       0       0       0
  3842 ;;Total ram usage:        0 bytes
  3843 ;; Hardware stack levels used: 1
  3844 ;; This function calls:
  3845 ;;		Nothing
  3846 ;; This function is called by:
  3847 ;;		_I2C1_MasterFsm
  3848 ;; This function uses a non-reentrant model
  3849 ;;
  3850                           
  3851  0370                     _I2C1_DO_RESET:	
  3852                           ;psect for function _I2C1_DO_RESET
  3853                           
  3854  0370                     l2342:	
  3855                           ;incstack = 0
  3856                           ; Regs used in _I2C1_DO_RESET: [wreg+status,2]
  3857                           
  3858                           
  3859                           ;mcc_generated_files/i2c1_master.c: 496:     I2C1_Status.busy = 0;
  3860  0370  0020               	movlb	0	; select bank0
  3861  0371  10BC               	bcf	_I2C1_Status+28,1
  3862  0372                     l2344:
  3863                           
  3864                           ;mcc_generated_files/i2c1_master.c: 497:     I2C1_Status.error = I2C1_NOERR;
  3865  0372  01BB               	clrf	_I2C1_Status+27
  3866  0373                     l2346:
  3867                           
  3868                           ;mcc_generated_files/i2c1_master.c: 498:     return I2C1_RESET;
  3869  0373  300E               	movlw	14
  3870  0374                     l379:
  3871  0374  0008               	return
  3872  0375                     __end_of_I2C1_DO_RESET:
  3873                           
  3874                           	psect	text25
  3875  036B                     __ptext25:	
  3876 ;; *************** function _I2C1_DO_RX_NACK_RESTART *****************
  3877 ;; Defined at:
  3878 ;;		line 488 in file "mcc_generated_files/i2c1_master.c"
  3879 ;; Parameters:    Size  Location     Type
  3880 ;;		None
  3881 ;; Auto vars:     Size  Location     Type
  3882 ;;		None
  3883 ;; Return value:  Size  Location     Type
  3884 ;;                  1    wreg      enum E2870
  3885 ;; Registers used:
  3886 ;;		wreg, status,2, status,0, pclath, cstack
  3887 ;; Tracked objects:
  3888 ;;		On entry : 0/0
  3889 ;;		On exit  : 0/0
  3890 ;;		Unchanged: 0/0
  3891 ;; Data sizes:     COMMON   BANK0   BANK1   BANK2   BANK3   BANK4
  3892 ;;      Params:         0       0       0       0       0       0
  3893 ;;      Locals:         0       0       0       0       0       0
  3894 ;;      Temps:          0       0       0       0       0       0
  3895 ;;      Totals:         0       0       0       0       0       0
  3896 ;;Total ram usage:        0 bytes
  3897 ;; Hardware stack levels used: 1
  3898 ;; Hardware stack levels required when called: 1
  3899 ;; This function calls:
  3900 ;;		_I2C1_MasterSendNack
  3901 ;; This function is called by:
  3902 ;;		_I2C1_DO_RX
  3903 ;;		_I2C1_MasterFsm
  3904 ;; This function uses a non-reentrant model
  3905 ;;
  3906                           
  3907  036B                     _I2C1_DO_RX_NACK_RESTART:	
  3908                           ;psect for function _I2C1_DO_RX_NACK_RESTART
  3909                           
  3910  036B                     l2184:	
  3911                           ;incstack = 0
  3912                           ; Regs used in _I2C1_DO_RX_NACK_RESTART: [wreg+status,2+status,0+pclath+cstack]
  3913                           
  3914                           
  3915                           ;mcc_generated_files/i2c1_master.c: 490:     I2C1_MasterSendNack();
  3916  036B  3183  2337  3183   	fcall	_I2C1_MasterSendNack
  3917  036E                     l2186:
  3918                           
  3919                           ;mcc_generated_files/i2c1_master.c: 491:     return I2C1_SEND_RESTART;
  3920  036E  3009               	movlw	9
  3921  036F                     l376:
  3922  036F  0008               	return
  3923  0370                     __end_of_I2C1_DO_RX_NACK_RESTART:
  3924                           
  3925                           	psect	text26
  3926  0366                     __ptext26:	
  3927 ;; *************** function _I2C1_DO_RX_NACK_STOP *****************
  3928 ;; Defined at:
  3929 ;;		line 482 in file "mcc_generated_files/i2c1_master.c"
  3930 ;; Parameters:    Size  Location     Type
  3931 ;;		None
  3932 ;; Auto vars:     Size  Location     Type
  3933 ;;		None
  3934 ;; Return value:  Size  Location     Type
  3935 ;;                  1    wreg      enum E2870
  3936 ;; Registers used:
  3937 ;;		wreg, status,2, status,0, pclath, cstack
  3938 ;; Tracked objects:
  3939 ;;		On entry : 0/0
  3940 ;;		On exit  : 0/0
  3941 ;;		Unchanged: 0/0
  3942 ;; Data sizes:     COMMON   BANK0   BANK1   BANK2   BANK3   BANK4
  3943 ;;      Params:         0       0       0       0       0       0
  3944 ;;      Locals:         0       0       0       0       0       0
  3945 ;;      Temps:          0       0       0       0       0       0
  3946 ;;      Totals:         0       0       0       0       0       0
  3947 ;;Total ram usage:        0 bytes
  3948 ;; Hardware stack levels used: 1
  3949 ;; Hardware stack levels required when called: 1
  3950 ;; This function calls:
  3951 ;;		_I2C1_MasterSendNack
  3952 ;; This function is called by:
  3953 ;;		_I2C1_DO_RX
  3954 ;;		_I2C1_MasterFsm
  3955 ;; This function uses a non-reentrant model
  3956 ;;
  3957                           
  3958  0366                     _I2C1_DO_RX_NACK_STOP:	
  3959                           ;psect for function _I2C1_DO_RX_NACK_STOP
  3960                           
  3961  0366                     l2190:	
  3962                           ;incstack = 0
  3963                           ; Regs used in _I2C1_DO_RX_NACK_STOP: [wreg+status,2+status,0+pclath+cstack]
  3964                           
  3965                           
  3966                           ;mcc_generated_files/i2c1_master.c: 484:     I2C1_MasterSendNack();
  3967  0366  3183  2337  3183   	fcall	_I2C1_MasterSendNack
  3968  0369                     l2192:
  3969                           
  3970                           ;mcc_generated_files/i2c1_master.c: 485:     return I2C1_SEND_STOP;
  3971  0369  300A               	movlw	10
  3972  036A                     l373:
  3973  036A  0008               	return
  3974  036B                     __end_of_I2C1_DO_RX_NACK_STOP:
  3975                           
  3976                           	psect	text27
  3977  0361                     __ptext27:	
  3978 ;; *************** function _I2C1_DO_RX_ACK *****************
  3979 ;; Defined at:
  3980 ;;		line 475 in file "mcc_generated_files/i2c1_master.c"
  3981 ;; Parameters:    Size  Location     Type
  3982 ;;		None
  3983 ;; Auto vars:     Size  Location     Type
  3984 ;;		None
  3985 ;; Return value:  Size  Location     Type
  3986 ;;                  1    wreg      enum E2870
  3987 ;; Registers used:
  3988 ;;		wreg, status,2, status,0, pclath, cstack
  3989 ;; Tracked objects:
  3990 ;;		On entry : 0/0
  3991 ;;		On exit  : 0/0
  3992 ;;		Unchanged: 0/0
  3993 ;; Data sizes:     COMMON   BANK0   BANK1   BANK2   BANK3   BANK4
  3994 ;;      Params:         0       0       0       0       0       0
  3995 ;;      Locals:         0       0       0       0       0       0
  3996 ;;      Temps:          0       0       0       0       0       0
  3997 ;;      Totals:         0       0       0       0       0       0
  3998 ;;Total ram usage:        0 bytes
  3999 ;; Hardware stack levels used: 1
  4000 ;; Hardware stack levels required when called: 1
  4001 ;; This function calls:
  4002 ;;		_I2C1_MasterSendAck
  4003 ;; This function is called by:
  4004 ;;		_I2C1_MasterFsm
  4005 ;; This function uses a non-reentrant model
  4006 ;;
  4007                           
  4008  0361                     _I2C1_DO_RX_ACK:	
  4009                           ;psect for function _I2C1_DO_RX_ACK
  4010                           
  4011  0361                     l2336:	
  4012                           ;incstack = 0
  4013                           ; Regs used in _I2C1_DO_RX_ACK: [wreg+status,2+status,0+pclath+cstack]
  4014                           
  4015                           
  4016                           ;mcc_generated_files/i2c1_master.c: 477:     I2C1_MasterSendAck();
  4017  0361  3183  233B  3183   	fcall	_I2C1_MasterSendAck
  4018  0364                     l2338:
  4019                           
  4020                           ;mcc_generated_files/i2c1_master.c: 478:     return I2C1_RCEN;
  4021  0364  3005               	movlw	5
  4022  0365                     l370:
  4023  0365  0008               	return
  4024  0366                     __end_of_I2C1_DO_RX_ACK:
  4025                           
  4026                           	psect	text28
  4027  035C                     __ptext28:	
  4028 ;; *************** function _I2C1_DO_SEND_STOP *****************
  4029 ;; Defined at:
  4030 ;;		line 469 in file "mcc_generated_files/i2c1_master.c"
  4031 ;; Parameters:    Size  Location     Type
  4032 ;;		None
  4033 ;; Auto vars:     Size  Location     Type
  4034 ;;		None
  4035 ;; Return value:  Size  Location     Type
  4036 ;;                  1    wreg      enum E2870
  4037 ;; Registers used:
  4038 ;;		wreg, status,2, status,0, pclath, cstack
  4039 ;; Tracked objects:
  4040 ;;		On entry : 0/0
  4041 ;;		On exit  : 0/0
  4042 ;;		Unchanged: 0/0
  4043 ;; Data sizes:     COMMON   BANK0   BANK1   BANK2   BANK3   BANK4
  4044 ;;      Params:         0       0       0       0       0       0
  4045 ;;      Locals:         0       0       0       0       0       0
  4046 ;;      Temps:          0       0       0       0       0       0
  4047 ;;      Totals:         0       0       0       0       0       0
  4048 ;;Total ram usage:        0 bytes
  4049 ;; Hardware stack levels used: 1
  4050 ;; Hardware stack levels required when called: 1
  4051 ;; This function calls:
  4052 ;;		_I2C1_MasterStop
  4053 ;; This function is called by:
  4054 ;;		_I2C1_DO_TX
  4055 ;;		_I2C1_DO_TX_EMPTY
  4056 ;;		_I2C1_DO_ADDRESS_NACK
  4057 ;;		_I2C1_MasterFsm
  4058 ;; This function uses a non-reentrant model
  4059 ;;
  4060                           
  4061  035C                     _I2C1_DO_SEND_STOP:	
  4062                           ;psect for function _I2C1_DO_SEND_STOP
  4063                           
  4064  035C                     l2172:	
  4065                           ;incstack = 0
  4066                           ; Regs used in _I2C1_DO_SEND_STOP: [wreg+status,2+status,0+pclath+cstack]
  4067                           
  4068                           
  4069                           ;mcc_generated_files/i2c1_master.c: 471:     I2C1_MasterStop();
  4070  035C  3183  232B  3183   	fcall	_I2C1_MasterStop
  4071  035F                     l2174:
  4072                           
  4073                           ;mcc_generated_files/i2c1_master.c: 472:     return I2C1_IDLE;
  4074  035F  3000               	movlw	0
  4075  0360                     l367:
  4076  0360  0008               	return
  4077  0361                     __end_of_I2C1_DO_SEND_STOP:
  4078                           
  4079                           	psect	text29
  4080  0357                     __ptext29:	
  4081 ;; *************** function _I2C1_DO_SEND_RESTART *****************
  4082 ;; Defined at:
  4083 ;;		line 463 in file "mcc_generated_files/i2c1_master.c"
  4084 ;; Parameters:    Size  Location     Type
  4085 ;;		None
  4086 ;; Auto vars:     Size  Location     Type
  4087 ;;		None
  4088 ;; Return value:  Size  Location     Type
  4089 ;;                  1    wreg      enum E2870
  4090 ;; Registers used:
  4091 ;;		wreg, status,2, status,0, pclath, cstack
  4092 ;; Tracked objects:
  4093 ;;		On entry : 0/0
  4094 ;;		On exit  : 0/0
  4095 ;;		Unchanged: 0/0
  4096 ;; Data sizes:     COMMON   BANK0   BANK1   BANK2   BANK3   BANK4
  4097 ;;      Params:         0       0       0       0       0       0
  4098 ;;      Locals:         0       0       0       0       0       0
  4099 ;;      Temps:          0       0       0       0       0       0
  4100 ;;      Totals:         0       0       0       0       0       0
  4101 ;;Total ram usage:        0 bytes
  4102 ;; Hardware stack levels used: 1
  4103 ;; Hardware stack levels required when called: 1
  4104 ;; This function calls:
  4105 ;;		_I2C1_MasterEnableRestart
  4106 ;; This function is called by:
  4107 ;;		_I2C1_DO_TX_EMPTY
  4108 ;;		_I2C1_DO_ADDRESS_NACK
  4109 ;;		_I2C1_MasterFsm
  4110 ;; This function uses a non-reentrant model
  4111 ;;
  4112                           
  4113  0357                     _I2C1_DO_SEND_RESTART:	
  4114                           ;psect for function _I2C1_DO_SEND_RESTART
  4115                           
  4116  0357                     l2198:	
  4117                           ;incstack = 0
  4118                           ; Regs used in _I2C1_DO_SEND_RESTART: [wreg+status,2+status,0+pclath+cstack]
  4119                           
  4120                           
  4121                           ;mcc_generated_files/i2c1_master.c: 465:     I2C1_MasterEnableRestart();
  4122  0357  3183  2328  3183   	fcall	_I2C1_MasterEnableRestart
  4123  035A                     l2200:
  4124                           
  4125                           ;mcc_generated_files/i2c1_master.c: 466:     return I2C1_SEND_ADR_READ;
  4126  035A  3001               	movlw	1
  4127  035B                     l364:
  4128  035B  0008               	return
  4129  035C                     __end_of_I2C1_DO_SEND_RESTART:
  4130                           
  4131                           	psect	text30
  4132  0352                     __ptext30:	
  4133 ;; *************** function _I2C1_DO_SEND_RESTART_WRITE *****************
  4134 ;; Defined at:
  4135 ;;		line 456 in file "mcc_generated_files/i2c1_master.c"
  4136 ;; Parameters:    Size  Location     Type
  4137 ;;		None
  4138 ;; Auto vars:     Size  Location     Type
  4139 ;;		None
  4140 ;; Return value:  Size  Location     Type
  4141 ;;                  1    wreg      enum E2870
  4142 ;; Registers used:
  4143 ;;		wreg, status,2, status,0, pclath, cstack
  4144 ;; Tracked objects:
  4145 ;;		On entry : 0/0
  4146 ;;		On exit  : 0/0
  4147 ;;		Unchanged: 0/0
  4148 ;; Data sizes:     COMMON   BANK0   BANK1   BANK2   BANK3   BANK4
  4149 ;;      Params:         0       0       0       0       0       0
  4150 ;;      Locals:         0       0       0       0       0       0
  4151 ;;      Temps:          0       0       0       0       0       0
  4152 ;;      Totals:         0       0       0       0       0       0
  4153 ;;Total ram usage:        0 bytes
  4154 ;; Hardware stack levels used: 1
  4155 ;; Hardware stack levels required when called: 1
  4156 ;; This function calls:
  4157 ;;		_I2C1_MasterEnableRestart
  4158 ;; This function is called by:
  4159 ;;		_I2C1_DO_TX
  4160 ;;		_I2C1_MasterFsm
  4161 ;; This function uses a non-reentrant model
  4162 ;;
  4163                           
  4164  0352                     _I2C1_DO_SEND_RESTART_WRITE:	
  4165                           ;psect for function _I2C1_DO_SEND_RESTART_WRITE
  4166                           
  4167  0352                     l2166:	
  4168                           ;incstack = 0
  4169                           ; Regs used in _I2C1_DO_SEND_RESTART_WRITE: [wreg+status,2+status,0+pclath+cstack]
  4170                           
  4171                           
  4172                           ;mcc_generated_files/i2c1_master.c: 458:     I2C1_MasterEnableRestart();
  4173  0352  3183  2328  3183   	fcall	_I2C1_MasterEnableRestart
  4174  0355                     l2168:
  4175                           
  4176                           ;mcc_generated_files/i2c1_master.c: 459:     return I2C1_SEND_ADR_WRITE;
  4177  0355  3002               	movlw	2
  4178  0356                     l361:
  4179  0356  0008               	return
  4180  0357                     __end_of_I2C1_DO_SEND_RESTART_WRITE:
  4181                           
  4182                           	psect	text31
  4183  034D                     __ptext31:	
  4184 ;; *************** function _I2C1_DO_SEND_RESTART_READ *****************
  4185 ;; Defined at:
  4186 ;;		line 450 in file "mcc_generated_files/i2c1_master.c"
  4187 ;; Parameters:    Size  Location     Type
  4188 ;;		None
  4189 ;; Auto vars:     Size  Location     Type
  4190 ;;		None
  4191 ;; Return value:  Size  Location     Type
  4192 ;;                  1    wreg      enum E2870
  4193 ;; Registers used:
  4194 ;;		wreg, status,2, status,0, pclath, cstack
  4195 ;; Tracked objects:
  4196 ;;		On entry : 0/0
  4197 ;;		On exit  : 0/0
  4198 ;;		Unchanged: 0/0
  4199 ;; Data sizes:     COMMON   BANK0   BANK1   BANK2   BANK3   BANK4
  4200 ;;      Params:         0       0       0       0       0       0
  4201 ;;      Locals:         0       0       0       0       0       0
  4202 ;;      Temps:          0       0       0       0       0       0
  4203 ;;      Totals:         0       0       0       0       0       0
  4204 ;;Total ram usage:        0 bytes
  4205 ;; Hardware stack levels used: 1
  4206 ;; Hardware stack levels required when called: 1
  4207 ;; This function calls:
  4208 ;;		_I2C1_MasterEnableRestart
  4209 ;; This function is called by:
  4210 ;;		_I2C1_DO_TX
  4211 ;;		_I2C1_MasterFsm
  4212 ;; This function uses a non-reentrant model
  4213 ;;
  4214                           
  4215  034D                     _I2C1_DO_SEND_RESTART_READ:	
  4216                           ;psect for function _I2C1_DO_SEND_RESTART_READ
  4217                           
  4218  034D                     l2160:	
  4219                           ;incstack = 0
  4220                           ; Regs used in _I2C1_DO_SEND_RESTART_READ: [wreg+status,2+status,0+pclath+cstack]
  4221                           
  4222                           
  4223                           ;mcc_generated_files/i2c1_master.c: 452:     I2C1_MasterEnableRestart();
  4224  034D  3183  2328  3183   	fcall	_I2C1_MasterEnableRestart
  4225  0350                     l2162:
  4226                           
  4227                           ;mcc_generated_files/i2c1_master.c: 453:     return I2C1_SEND_ADR_READ;
  4228  0350  3001               	movlw	1
  4229  0351                     l358:
  4230  0351  0008               	return
  4231  0352                     __end_of_I2C1_DO_SEND_RESTART_READ:
  4232                           
  4233                           	psect	text32
  4234  038C                     __ptext32:	
  4235 ;; *************** function _I2C1_DO_RCEN *****************
  4236 ;; Defined at:
  4237 ;;		line 402 in file "mcc_generated_files/i2c1_master.c"
  4238 ;; Parameters:    Size  Location     Type
  4239 ;;		None
  4240 ;; Auto vars:     Size  Location     Type
  4241 ;;		None
  4242 ;; Return value:  Size  Location     Type
  4243 ;;                  1    wreg      enum E2870
  4244 ;; Registers used:
  4245 ;;		wreg, status,2, status,0, pclath, cstack
  4246 ;; Tracked objects:
  4247 ;;		On entry : 0/0
  4248 ;;		On exit  : 0/0
  4249 ;;		Unchanged: 0/0
  4250 ;; Data sizes:     COMMON   BANK0   BANK1   BANK2   BANK3   BANK4
  4251 ;;      Params:         0       0       0       0       0       0
  4252 ;;      Locals:         0       0       0       0       0       0
  4253 ;;      Temps:          0       0       0       0       0       0
  4254 ;;      Totals:         0       0       0       0       0       0
  4255 ;;Total ram usage:        0 bytes
  4256 ;; Hardware stack levels used: 1
  4257 ;; Hardware stack levels required when called: 1
  4258 ;; This function calls:
  4259 ;;		_I2C1_MasterStartRx
  4260 ;; This function is called by:
  4261 ;;		_I2C1_MasterFsm
  4262 ;; This function uses a non-reentrant model
  4263 ;;
  4264                           
  4265  038C                     _I2C1_DO_RCEN:	
  4266                           ;psect for function _I2C1_DO_RCEN
  4267                           
  4268  038C                     l2304:	
  4269                           ;incstack = 0
  4270                           ; Regs used in _I2C1_DO_RCEN: [wreg+status,2+status,0+pclath+cstack]
  4271                           
  4272                           
  4273                           ;mcc_generated_files/i2c1_master.c: 404:     I2C1_Status.addressNackCheck = 0;
  4274  038C  0020               	movlb	0	; select bank0
  4275  038D  103C               	bcf	_I2C1_Status+28,0
  4276  038E                     l2306:
  4277                           
  4278                           ;mcc_generated_files/i2c1_master.c: 405:     I2C1_MasterStartRx();
  4279  038E  3183  232E  3183   	fcall	_I2C1_MasterStartRx
  4280  0391                     l2308:
  4281                           
  4282                           ;mcc_generated_files/i2c1_master.c: 406:     return I2C1_RX;
  4283  0391  3004               	movlw	4
  4284  0392                     l334:
  4285  0392  0008               	return
  4286  0393                     __end_of_I2C1_DO_RCEN:
  4287                           
  4288                           	psect	text33
  4289  0673                     __ptext33:	
  4290 ;; *************** function _I2C1_DO_RX *****************
  4291 ;; Defined at:
  4292 ;;		line 378 in file "mcc_generated_files/i2c1_master.c"
  4293 ;; Parameters:    Size  Location     Type
  4294 ;;		None
  4295 ;; Auto vars:     Size  Location     Type
  4296 ;;		None
  4297 ;; Return value:  Size  Location     Type
  4298 ;;                  1    wreg      enum E2870
  4299 ;; Registers used:
  4300 ;;		wreg, fsr0l, fsr0h, fsr1l, fsr1h, status,2, status,0, pclath, cstack
  4301 ;; Tracked objects:
  4302 ;;		On entry : 0/0
  4303 ;;		On exit  : 0/0
  4304 ;;		Unchanged: 0/0
  4305 ;; Data sizes:     COMMON   BANK0   BANK1   BANK2   BANK3   BANK4
  4306 ;;      Params:         0       0       0       0       0       0
  4307 ;;      Locals:         0       0       0       0       0       0
  4308 ;;      Temps:          3       0       0       0       0       0
  4309 ;;      Totals:         3       0       0       0       0       0
  4310 ;;Total ram usage:        3 bytes
  4311 ;; Hardware stack levels used: 1
  4312 ;; Hardware stack levels required when called: 3
  4313 ;; This function calls:
  4314 ;;		Absolute function
  4315 ;;		_I2C1_CallbackReturnReset
  4316 ;;		_I2C1_CallbackReturnStop
  4317 ;;		_I2C1_DO_RX_NACK_RESTART
  4318 ;;		_I2C1_DO_RX_NACK_STOP
  4319 ;;		_I2C1_MasterGetRxData
  4320 ;;		_I2C1_MasterSendAck
  4321 ;;		_rd1RegCompleteHandler
  4322 ;;		_rd2RegCompleteHandler
  4323 ;;		_rdBlkRegCompleteHandler
  4324 ;;		_wr1RegCompleteHandler
  4325 ;;		_wr2RegCompleteHandler
  4326 ;; This function is called by:
  4327 ;;		_I2C1_MasterFsm
  4328 ;; This function uses a non-reentrant model
  4329 ;;
  4330                           
  4331  0673                     _I2C1_DO_RX:	
  4332                           ;psect for function _I2C1_DO_RX
  4333                           
  4334  0673                     l2274:	
  4335                           ;incstack = 0
  4336                           ; Regs used in _I2C1_DO_RX: [wreg-fsr1h+status,2+status,0+pclath+cstack]
  4337                           
  4338                           
  4339                           ;mcc_generated_files/i2c1_master.c: 380:     *I2C1_Status.data_ptr++ = I2C1_MasterGetRxD
      +                          ata();
  4340  0673  3183  2331  3186   	fcall	_I2C1_MasterGetRxData
  4341  0676  00FA               	movwf	??_I2C1_DO_RX
  4342  0677  0020               	movlb	0	; select bank0
  4343  0678  0837               	movf	low ((_I2C1_Status| 0+23)),w
  4344  0679  0086               	movwf	6
  4345  067A  0187               	clrf	7
  4346  067B  087A               	movf	??_I2C1_DO_RX,w
  4347  067C  0081               	movwf	1
  4348  067D                     l2276:
  4349  067D  3001               	movlw	1
  4350  067E  00FA               	movwf	??_I2C1_DO_RX
  4351  067F  087A               	movf	??_I2C1_DO_RX,w
  4352  0680  07B7               	addwf	low ((_I2C1_Status| 0+23)),f
  4353  0681                     l2278:
  4354                           
  4355                           ;mcc_generated_files/i2c1_master.c: 381:     if(--I2C1_Status.data_length)
  4356  0681  3001               	movlw	1
  4357  0682  02B8               	subwf	_I2C1_Status+24,f
  4358  0683  3000               	movlw	0
  4359  0684  3BB9               	subwfb	_I2C1_Status+25,f
  4360  0685  0838               	movf	_I2C1_Status+24,w
  4361  0686  0439               	iorwf	_I2C1_Status+25,w
  4362  0687  1903               	btfsc	3,2
  4363  0688  2E8A               	goto	u441
  4364  0689  2E8B               	goto	u440
  4365  068A                     u441:
  4366  068A  2E90               	goto	l322
  4367  068B                     u440:
  4368  068B                     l2280:
  4369                           
  4370                           ;mcc_generated_files/i2c1_master.c: 382:     {;mcc_generated_files/i2c1_master.c: 383:  
      +                                 I2C1_MasterSendAck();
  4371  068B  3183  233B  3186   	fcall	_I2C1_MasterSendAck
  4372  068E                     l2282:
  4373                           
  4374                           ;mcc_generated_files/i2c1_master.c: 384:         return I2C1_RCEN;
  4375  068E  3005               	movlw	5
  4376  068F  2EB8               	goto	l323
  4377  0690                     l322:	
  4378                           ;mcc_generated_files/i2c1_master.c: 386:     else
  4379                           
  4380                           
  4381                           ;mcc_generated_files/i2c1_master.c: 387:     {;mcc_generated_files/i2c1_master.c: 388:  
      +                                 I2C1_Status.bufferFree = 1;
  4382  0690  15BC               	bsf	_I2C1_Status+28,3
  4383                           
  4384                           ;mcc_generated_files/i2c1_master.c: 389:         switch(I2C1_Status.callbackTable[I2C1_D
      +                          ATA_COMPLETE](I2C1_Status.callbackPayload[I2C1_DATA_COMPLETE]))
  4385  0691  2E9A               	goto	l2298
  4386  0692                     l2288:
  4387                           
  4388                           ;mcc_generated_files/i2c1_master.c: 393:                 return I2C1_DO_RX_NACK_RESTART(
      +                          );
  4389  0692  3183  236B  3186   	fcall	_I2C1_DO_RX_NACK_RESTART
  4390  0695  2EB8               	goto	l323
  4391  0696                     l2292:
  4392                           
  4393                           ;mcc_generated_files/i2c1_master.c: 397:                 return I2C1_DO_RX_NACK_STOP();
  4394  0696  3183  2366  3186   	fcall	_I2C1_DO_RX_NACK_STOP
  4395  0699  2EB8               	goto	l323
  4396  069A                     l2298:
  4397  069A  082C               	movf	low ((_I2C1_Status| 0+12)),w
  4398  069B  00FA               	movwf	??_I2C1_DO_RX
  4399  069C  087A               	movf	??_I2C1_DO_RX,w
  4400  069D  00F9               	movwf	I2C1_CallbackReturnReset@funPtr
  4401  069E  0821               	movf	_I2C1_Status+1,w
  4402  069F  008A               	movwf	10
  4403  06A0  0820               	movf	_I2C1_Status,w
  4404  06A1  000A               	callw
  4405  06A2  3186               	pagesel	$
  4406  06A3  00FB               	movwf	??_I2C1_DO_RX+1
  4407  06A4  01FC               	clrf	??_I2C1_DO_RX+2
  4408                           
  4409                           ; Switch on 2 bytes has been partitioned into a top level switch of size 1, and 1 sub-sw
      +                          itches
  4410                           ; Switch size 1, requested type "simple"
  4411                           ; Number of cases is 1, Range of values is 0 to 0
  4412                           ; switch strategies available:
  4413                           ; Name         Instructions Cycles
  4414                           ; simple_byte            4     3 (average)
  4415                           ; direct_byte            8     6 (fixed)
  4416                           ; jumptable            260     6 (fixed)
  4417                           ;	Chosen strategy is simple_byte
  4418  06A5  087C               	movf	??_I2C1_DO_RX+2,w
  4419  06A6  3A00               	xorlw	0	; case 0
  4420  06A7  1903               	skipnz
  4421  06A8  2EAA               	goto	l2942
  4422  06A9  2E96               	goto	l2292
  4423  06AA                     l2942:
  4424                           
  4425                           ; Switch size 1, requested type "simple"
  4426                           ; Number of cases is 4, Range of values is 1 to 4
  4427                           ; switch strategies available:
  4428                           ; Name         Instructions Cycles
  4429                           ; simple_byte           13     7 (average)
  4430                           ; direct_byte           17     9 (fixed)
  4431                           ; jumptable            263     9 (fixed)
  4432                           ;	Chosen strategy is simple_byte
  4433  06AA  087B               	movf	??_I2C1_DO_RX+1,w
  4434  06AB  3A01               	xorlw	1	; case 1
  4435  06AC  1903               	skipnz
  4436  06AD  2E96               	goto	l2292
  4437  06AE  3A03               	xorlw	3	; case 2
  4438  06AF  1903               	skipnz
  4439  06B0  2E92               	goto	l2288
  4440  06B1  3A01               	xorlw	1	; case 3
  4441  06B2  1903               	skipnz
  4442  06B3  2E92               	goto	l2288
  4443  06B4  3A07               	xorlw	7	; case 4
  4444  06B5  1903               	skipnz
  4445  06B6  2E96               	goto	l2292
  4446  06B7  2E96               	goto	l2292
  4447  06B8                     l323:
  4448  06B8  0008               	return
  4449  06B9                     __end_of_I2C1_DO_RX:
  4450                           
  4451                           	psect	text34
  4452  06FF                     __ptext34:	
  4453 ;; *************** function _I2C1_DO_TX *****************
  4454 ;; Defined at:
  4455 ;;		line 354 in file "mcc_generated_files/i2c1_master.c"
  4456 ;; Parameters:    Size  Location     Type
  4457 ;;		None
  4458 ;; Auto vars:     Size  Location     Type
  4459 ;;		None
  4460 ;; Return value:  Size  Location     Type
  4461 ;;                  1    wreg      enum E2870
  4462 ;; Registers used:
  4463 ;;		wreg, fsr0l, fsr0h, fsr1l, fsr1h, status,2, status,0, pclath, cstack
  4464 ;; Tracked objects:
  4465 ;;		On entry : 0/0
  4466 ;;		On exit  : 0/0
  4467 ;;		Unchanged: 0/0
  4468 ;; Data sizes:     COMMON   BANK0   BANK1   BANK2   BANK3   BANK4
  4469 ;;      Params:         0       0       0       0       0       0
  4470 ;;      Locals:         0       0       0       0       0       0
  4471 ;;      Temps:          3       0       0       0       0       0
  4472 ;;      Totals:         3       0       0       0       0       0
  4473 ;;Total ram usage:        3 bytes
  4474 ;; Hardware stack levels used: 1
  4475 ;; Hardware stack levels required when called: 3
  4476 ;; This function calls:
  4477 ;;		Absolute function
  4478 ;;		_I2C1_CallbackReturnReset
  4479 ;;		_I2C1_CallbackReturnStop
  4480 ;;		_I2C1_DO_SEND_RESTART_READ
  4481 ;;		_I2C1_DO_SEND_RESTART_WRITE
  4482 ;;		_I2C1_DO_SEND_STOP
  4483 ;;		_I2C1_MasterIsNack
  4484 ;;		_I2C1_MasterSendTxData
  4485 ;;		_rd1RegCompleteHandler
  4486 ;;		_rd2RegCompleteHandler
  4487 ;;		_rdBlkRegCompleteHandler
  4488 ;;		_wr1RegCompleteHandler
  4489 ;;		_wr2RegCompleteHandler
  4490 ;; This function is called by:
  4491 ;;		_I2C1_MasterFsm
  4492 ;; This function uses a non-reentrant model
  4493 ;;
  4494                           
  4495  06FF                     _I2C1_DO_TX:	
  4496                           ;psect for function _I2C1_DO_TX
  4497                           
  4498  06FF                     l2240:	
  4499                           ;incstack = 0
  4500                           ; Regs used in _I2C1_DO_TX: [wreg-fsr1h+status,2+status,0+pclath+cstack]
  4501                           
  4502                           
  4503                           ;mcc_generated_files/i2c1_master.c: 356:     if(I2C1_MasterIsNack())
  4504  06FF  3183  237A  3186   	fcall	_I2C1_MasterIsNack
  4505  0702  3A00               	xorlw	0
  4506  0703  1903               	skipnz
  4507  0704  2F06               	goto	u421
  4508  0705  2F07               	goto	u420
  4509  0706                     u421:
  4510  0706  2F37               	goto	l306
  4511  0707                     u420:
  4512  0707  2F14               	goto	l2258
  4513  0708                     l2244:
  4514                           
  4515                           ;mcc_generated_files/i2c1_master.c: 361:                 return I2C1_DO_SEND_RESTART_REA
      +                          D();
  4516  0708  3183  234D  3186   	fcall	_I2C1_DO_SEND_RESTART_READ
  4517  070B  2F53               	goto	l309
  4518  070C                     l2248:
  4519                           
  4520                           ;mcc_generated_files/i2c1_master.c: 363:                   return I2C1_DO_SEND_RESTART_W
      +                          RITE();
  4521  070C  3183  2352  3186   	fcall	_I2C1_DO_SEND_RESTART_WRITE
  4522  070F  2F53               	goto	l309
  4523  0710                     l2252:
  4524                           
  4525                           ;mcc_generated_files/i2c1_master.c: 367:                 return I2C1_DO_SEND_STOP();
  4526  0710  3183  235C  3186   	fcall	_I2C1_DO_SEND_STOP
  4527  0713  2F53               	goto	l309
  4528  0714                     l2258:
  4529  0714  0020               	movlb	0	; select bank0
  4530  0715  082F               	movf	low ((_I2C1_Status| 0+15)),w
  4531  0716  00FA               	movwf	??_I2C1_DO_TX
  4532  0717  087A               	movf	??_I2C1_DO_TX,w
  4533  0718  00F9               	movwf	I2C1_CallbackReturnReset@funPtr
  4534  0719  3006               	movlw	6
  4535  071A  3E20               	addlw	(low (_I2C1_Status| 0))& (0+255)
  4536  071B  0086               	movwf	6
  4537  071C  0187               	clrf	7
  4538  071D  3F41               	moviw [1]fsr1
  4539  071E  008A               	movwf	10
  4540  071F  3F40               	moviw [0]fsr1
  4541  0720  000A               	callw
  4542  0721  3186               	pagesel	$
  4543  0722  00FB               	movwf	??_I2C1_DO_TX+1
  4544  0723  01FC               	clrf	??_I2C1_DO_TX+2
  4545                           
  4546                           ; Switch on 2 bytes has been partitioned into a top level switch of size 1, and 1 sub-sw
      +                          itches
  4547                           ; Switch size 1, requested type "simple"
  4548                           ; Number of cases is 1, Range of values is 0 to 0
  4549                           ; switch strategies available:
  4550                           ; Name         Instructions Cycles
  4551                           ; simple_byte            4     3 (average)
  4552                           ; direct_byte            8     6 (fixed)
  4553                           ; jumptable            260     6 (fixed)
  4554                           ;	Chosen strategy is simple_byte
  4555  0724  087C               	movf	??_I2C1_DO_TX+2,w
  4556  0725  3A00               	xorlw	0	; case 0
  4557  0726  1903               	skipnz
  4558  0727  2F29               	goto	l2944
  4559  0728  2F10               	goto	l2252
  4560  0729                     l2944:
  4561                           
  4562                           ; Switch size 1, requested type "simple"
  4563                           ; Number of cases is 4, Range of values is 1 to 4
  4564                           ; switch strategies available:
  4565                           ; Name         Instructions Cycles
  4566                           ; simple_byte           13     7 (average)
  4567                           ; direct_byte           17     9 (fixed)
  4568                           ; jumptable            263     9 (fixed)
  4569                           ;	Chosen strategy is simple_byte
  4570  0729  087B               	movf	??_I2C1_DO_TX+1,w
  4571  072A  3A01               	xorlw	1	; case 1
  4572  072B  1903               	skipnz
  4573  072C  2F10               	goto	l2252
  4574  072D  3A03               	xorlw	3	; case 2
  4575  072E  1903               	skipnz
  4576  072F  2F08               	goto	l2244
  4577  0730  3A01               	xorlw	1	; case 3
  4578  0731  1903               	skipnz
  4579  0732  2F0C               	goto	l2248
  4580  0733  3A07               	xorlw	7	; case 4
  4581  0734  1903               	skipnz
  4582  0735  2F10               	goto	l2252
  4583  0736  2F10               	goto	l2252
  4584  0737                     l306:	
  4585                           ;mcc_generated_files/i2c1_master.c: 370:     else
  4586                           
  4587                           
  4588                           ;mcc_generated_files/i2c1_master.c: 371:     {;mcc_generated_files/i2c1_master.c: 372:  
      +                                 I2C1_Status.addressNackCheck = 0;
  4589  0737  0020               	movlb	0	; select bank0
  4590  0738  103C               	bcf	_I2C1_Status+28,0
  4591  0739                     l2260:
  4592                           
  4593                           ;mcc_generated_files/i2c1_master.c: 373:         I2C1_MasterSendTxData(*I2C1_Status.data
      +                          _ptr++);
  4594  0739  3017               	movlw	23
  4595  073A  3E20               	addlw	(low (_I2C1_Status| 0))& (0+255)
  4596  073B  0086               	movwf	6
  4597  073C  0187               	clrf	7
  4598  073D  3F40               	moviw [0]fsr1
  4599  073E  0084               	movwf	4
  4600  073F  0185               	clrf	5
  4601  0740  0A81               	incf	1,f
  4602  0741  0800               	movf	0,w
  4603  0742  3183  2343  3186   	fcall	_I2C1_MasterSendTxData
  4604  0745                     l2262:
  4605                           
  4606                           ;mcc_generated_files/i2c1_master.c: 374:         return (--I2C1_Status.data_length)?I2C1
      +                          _TX:I2C1_TX_EMPTY;
  4607  0745  3001               	movlw	1
  4608  0746  0020               	movlb	0	; select bank0
  4609  0747  02B8               	subwf	_I2C1_Status+24,f
  4610  0748  3000               	movlw	0
  4611  0749  3BB9               	subwfb	_I2C1_Status+25,f
  4612  074A  0838               	movf	_I2C1_Status+24,w
  4613  074B  0439               	iorwf	_I2C1_Status+25,w
  4614  074C  1D03               	btfss	3,2
  4615  074D  2F4F               	goto	u431
  4616  074E  2F50               	goto	u430
  4617  074F                     u431:
  4618  074F  2F52               	goto	l2266
  4619  0750                     u430:
  4620  0750                     l2264:
  4621  0750  3006               	movlw	6
  4622  0751  2F53               	goto	l309
  4623  0752                     l2266:
  4624  0752  3003               	movlw	3
  4625  0753                     l309:
  4626  0753  0008               	return
  4627  0754                     __end_of_I2C1_DO_TX:
  4628                           
  4629                           	psect	text35
  4630  039A                     __ptext35:	
  4631 ;; *************** function _I2C1_DO_SEND_ADR_WRITE *****************
  4632 ;; Defined at:
  4633 ;;		line 347 in file "mcc_generated_files/i2c1_master.c"
  4634 ;; Parameters:    Size  Location     Type
  4635 ;;		None
  4636 ;; Auto vars:     Size  Location     Type
  4637 ;;		None
  4638 ;; Return value:  Size  Location     Type
  4639 ;;                  1    wreg      enum E2870
  4640 ;; Registers used:
  4641 ;;		wreg, status,2, status,0, pclath, cstack
  4642 ;; Tracked objects:
  4643 ;;		On entry : 0/0
  4644 ;;		On exit  : 0/0
  4645 ;;		Unchanged: 0/0
  4646 ;; Data sizes:     COMMON   BANK0   BANK1   BANK2   BANK3   BANK4
  4647 ;;      Params:         0       0       0       0       0       0
  4648 ;;      Locals:         0       0       0       0       0       0
  4649 ;;      Temps:          0       0       0       0       0       0
  4650 ;;      Totals:         0       0       0       0       0       0
  4651 ;;Total ram usage:        0 bytes
  4652 ;; Hardware stack levels used: 1
  4653 ;; Hardware stack levels required when called: 1
  4654 ;; This function calls:
  4655 ;;		_I2C1_MasterSendTxData
  4656 ;; This function is called by:
  4657 ;;		_I2C1_MasterFsm
  4658 ;; This function uses a non-reentrant model
  4659 ;;
  4660                           
  4661  039A                     _I2C1_DO_SEND_ADR_WRITE:	
  4662                           ;psect for function _I2C1_DO_SEND_ADR_WRITE
  4663                           
  4664  039A                     l2232:	
  4665                           ;incstack = 0
  4666                           ; Regs used in _I2C1_DO_SEND_ADR_WRITE: [wreg+status,2+status,0+pclath+cstack]
  4667                           
  4668                           
  4669                           ;mcc_generated_files/i2c1_master.c: 349:     I2C1_Status.addressNackCheck = 1;
  4670  039A  0020               	movlb	0	; select bank0
  4671  039B  143C               	bsf	_I2C1_Status+28,0
  4672  039C                     l2234:
  4673                           
  4674                           ;mcc_generated_files/i2c1_master.c: 350:     I2C1_MasterSendTxData((uint8_t) (I2C1_Statu
      +                          s.address << 1));
  4675  039C  3536               	lslf	_I2C1_Status+22,w
  4676  039D  3183  2343  3183   	fcall	_I2C1_MasterSendTxData
  4677  03A0                     l2236:
  4678                           
  4679                           ;mcc_generated_files/i2c1_master.c: 351:     return I2C1_TX;
  4680  03A0  3003               	movlw	3
  4681  03A1                     l303:
  4682  03A1  0008               	return
  4683  03A2                     __end_of_I2C1_DO_SEND_ADR_WRITE:
  4684                           
  4685                           	psect	text36
  4686  03A2                     __ptext36:	
  4687 ;; *************** function _I2C1_DO_SEND_ADR_READ *****************
  4688 ;; Defined at:
  4689 ;;		line 340 in file "mcc_generated_files/i2c1_master.c"
  4690 ;; Parameters:    Size  Location     Type
  4691 ;;		None
  4692 ;; Auto vars:     Size  Location     Type
  4693 ;;		None
  4694 ;; Return value:  Size  Location     Type
  4695 ;;                  1    wreg      enum E2870
  4696 ;; Registers used:
  4697 ;;		wreg, status,2, status,0, pclath, cstack
  4698 ;; Tracked objects:
  4699 ;;		On entry : 0/0
  4700 ;;		On exit  : 0/0
  4701 ;;		Unchanged: 0/0
  4702 ;; Data sizes:     COMMON   BANK0   BANK1   BANK2   BANK3   BANK4
  4703 ;;      Params:         0       0       0       0       0       0
  4704 ;;      Locals:         0       0       0       0       0       0
  4705 ;;      Temps:          0       0       0       0       0       0
  4706 ;;      Totals:         0       0       0       0       0       0
  4707 ;;Total ram usage:        0 bytes
  4708 ;; Hardware stack levels used: 1
  4709 ;; Hardware stack levels required when called: 1
  4710 ;; This function calls:
  4711 ;;		_I2C1_MasterSendTxData
  4712 ;; This function is called by:
  4713 ;;		_I2C1_MasterFsm
  4714 ;; This function uses a non-reentrant model
  4715 ;;
  4716                           
  4717  03A2                     _I2C1_DO_SEND_ADR_READ:	
  4718                           ;psect for function _I2C1_DO_SEND_ADR_READ
  4719                           
  4720  03A2                     l2224:	
  4721                           ;incstack = 0
  4722                           ; Regs used in _I2C1_DO_SEND_ADR_READ: [wreg+status,2+status,0+pclath+cstack]
  4723                           
  4724                           
  4725                           ;mcc_generated_files/i2c1_master.c: 342:     I2C1_Status.addressNackCheck = 1;
  4726  03A2  0020               	movlb	0	; select bank0
  4727  03A3  143C               	bsf	_I2C1_Status+28,0
  4728  03A4                     l2226:
  4729                           
  4730                           ;mcc_generated_files/i2c1_master.c: 343:     I2C1_MasterSendTxData((uint8_t) (I2C1_Statu
      +                          s.address << 1 | 1));
  4731  03A4  1403               	setc
  4732  03A5  0D36               	rlf	_I2C1_Status+22,w
  4733  03A6  3183  2343  3183   	fcall	_I2C1_MasterSendTxData
  4734  03A9                     l2228:
  4735                           
  4736                           ;mcc_generated_files/i2c1_master.c: 344:     return I2C1_RCEN;
  4737  03A9  3005               	movlw	5
  4738  03AA                     l300:
  4739  03AA  0008               	return
  4740  03AB                     __end_of_I2C1_DO_SEND_ADR_READ:
  4741                           
  4742                           	psect	text37
  4743  0348                     __ptext37:	
  4744 ;; *************** function _I2C1_DO_IDLE *****************
  4745 ;; Defined at:
  4746 ;;		line 333 in file "mcc_generated_files/i2c1_master.c"
  4747 ;; Parameters:    Size  Location     Type
  4748 ;;		None
  4749 ;; Auto vars:     Size  Location     Type
  4750 ;;		None
  4751 ;; Return value:  Size  Location     Type
  4752 ;;                  1    wreg      enum E2870
  4753 ;; Registers used:
  4754 ;;		wreg, status,2
  4755 ;; Tracked objects:
  4756 ;;		On entry : 0/0
  4757 ;;		On exit  : 0/0
  4758 ;;		Unchanged: 0/0
  4759 ;; Data sizes:     COMMON   BANK0   BANK1   BANK2   BANK3   BANK4
  4760 ;;      Params:         0       0       0       0       0       0
  4761 ;;      Locals:         0       0       0       0       0       0
  4762 ;;      Temps:          0       0       0       0       0       0
  4763 ;;      Totals:         0       0       0       0       0       0
  4764 ;;Total ram usage:        0 bytes
  4765 ;; Hardware stack levels used: 1
  4766 ;; This function calls:
  4767 ;;		Nothing
  4768 ;; This function is called by:
  4769 ;;		_I2C1_MasterFsm
  4770 ;; This function uses a non-reentrant model
  4771 ;;
  4772                           
  4773  0348                     _I2C1_DO_IDLE:	
  4774                           ;psect for function _I2C1_DO_IDLE
  4775                           
  4776  0348                     l2216:	
  4777                           ;incstack = 0
  4778                           ; Regs used in _I2C1_DO_IDLE: [wreg+status,2]
  4779                           
  4780                           
  4781                           ;mcc_generated_files/i2c1_master.c: 335:     I2C1_Status.busy = 0;
  4782  0348  0020               	movlb	0	; select bank0
  4783  0349  10BC               	bcf	_I2C1_Status+28,1
  4784  034A                     l2218:
  4785                           
  4786                           ;mcc_generated_files/i2c1_master.c: 336:     I2C1_Status.error = I2C1_NOERR;
  4787  034A  01BB               	clrf	_I2C1_Status+27
  4788  034B                     l2220:
  4789                           
  4790                           ;mcc_generated_files/i2c1_master.c: 337:     return I2C1_RESET;
  4791  034B  300E               	movlw	14
  4792  034C                     l297:
  4793  034C  0008               	return
  4794  034D                     __end_of_I2C1_DO_IDLE:
  4795                           
  4796                           	psect	text38
  4797  05DB                     __ptext38:	
  4798 ;; *************** function _I2C1_DO_TX_EMPTY *****************
  4799 ;; Defined at:
  4800 ;;		line 409 in file "mcc_generated_files/i2c1_master.c"
  4801 ;; Parameters:    Size  Location     Type
  4802 ;;		None
  4803 ;; Auto vars:     Size  Location     Type
  4804 ;;		None
  4805 ;; Return value:  Size  Location     Type
  4806 ;;                  1    wreg      enum E2870
  4807 ;; Registers used:
  4808 ;;		wreg, fsr0l, fsr0h, fsr1l, fsr1h, status,2, status,0, pclath, cstack
  4809 ;; Tracked objects:
  4810 ;;		On entry : 0/0
  4811 ;;		On exit  : 0/0
  4812 ;;		Unchanged: 0/0
  4813 ;; Data sizes:     COMMON   BANK0   BANK1   BANK2   BANK3   BANK4
  4814 ;;      Params:         0       0       0       0       0       0
  4815 ;;      Locals:         0       0       0       0       0       0
  4816 ;;      Temps:          3       0       0       0       0       0
  4817 ;;      Totals:         3       0       0       0       0       0
  4818 ;;Total ram usage:        3 bytes
  4819 ;; Hardware stack levels used: 1
  4820 ;; Hardware stack levels required when called: 3
  4821 ;; This function calls:
  4822 ;;		Absolute function
  4823 ;;		_I2C1_CallbackReturnReset
  4824 ;;		_I2C1_CallbackReturnStop
  4825 ;;		_I2C1_DO_SEND_RESTART
  4826 ;;		_I2C1_DO_SEND_STOP
  4827 ;;		_I2C1_MasterSetIrq
  4828 ;;		_rd1RegCompleteHandler
  4829 ;;		_rd2RegCompleteHandler
  4830 ;;		_rdBlkRegCompleteHandler
  4831 ;;		_wr1RegCompleteHandler
  4832 ;;		_wr2RegCompleteHandler
  4833 ;; This function is called by:
  4834 ;;		_I2C1_MasterFsm
  4835 ;; This function uses a non-reentrant model
  4836 ;;
  4837                           
  4838  05DB                     _I2C1_DO_TX_EMPTY:	
  4839                           ;psect for function _I2C1_DO_TX_EMPTY
  4840                           
  4841  05DB                     l2312:	
  4842                           ;incstack = 0
  4843                           ; Regs used in _I2C1_DO_TX_EMPTY: [wreg-fsr1h+status,2+status,0+pclath+cstack]
  4844                           
  4845                           
  4846                           ;mcc_generated_files/i2c1_master.c: 411:     I2C1_Status.bufferFree = 1;
  4847  05DB  0020               	movlb	0	; select bank0
  4848  05DC  15BC               	bsf	_I2C1_Status+28,3
  4849                           
  4850                           ;mcc_generated_files/i2c1_master.c: 412:     switch(I2C1_Status.callbackTable[I2C1_DATA_
      +                          COMPLETE](I2C1_Status.callbackPayload[I2C1_DATA_COMPLETE]))
  4851  05DD  2DEB               	goto	l2330
  4852  05DE                     l2314:
  4853                           
  4854                           ;mcc_generated_files/i2c1_master.c: 416:             return I2C1_DO_SEND_RESTART();
  4855  05DE  3183  2357  3185   	fcall	_I2C1_DO_SEND_RESTART
  4856  05E1  2E09               	goto	l340
  4857  05E2                     l2318:
  4858                           
  4859                           ;mcc_generated_files/i2c1_master.c: 418:             I2C1_MasterSetIrq();
  4860  05E2  3183  2334  3185   	fcall	_I2C1_MasterSetIrq
  4861  05E5                     l2320:
  4862                           
  4863                           ;mcc_generated_files/i2c1_master.c: 419:             return I2C1_TX;
  4864  05E5  3003               	movlw	3
  4865  05E6  2E09               	goto	l340
  4866  05E7                     l2324:
  4867                           
  4868                           ;mcc_generated_files/i2c1_master.c: 422:             return I2C1_DO_SEND_STOP();
  4869  05E7  3183  235C  3185   	fcall	_I2C1_DO_SEND_STOP
  4870  05EA  2E09               	goto	l340
  4871  05EB                     l2330:
  4872  05EB  082C               	movf	low ((_I2C1_Status| 0+12)),w
  4873  05EC  00FA               	movwf	??_I2C1_DO_TX_EMPTY
  4874  05ED  087A               	movf	??_I2C1_DO_TX_EMPTY,w
  4875  05EE  00F9               	movwf	I2C1_CallbackReturnReset@funPtr
  4876  05EF  0821               	movf	_I2C1_Status+1,w
  4877  05F0  008A               	movwf	10
  4878  05F1  0820               	movf	_I2C1_Status,w
  4879  05F2  000A               	callw
  4880  05F3  3185               	pagesel	$
  4881  05F4  00FB               	movwf	??_I2C1_DO_TX_EMPTY+1
  4882  05F5  01FC               	clrf	??_I2C1_DO_TX_EMPTY+2
  4883                           
  4884                           ; Switch on 2 bytes has been partitioned into a top level switch of size 1, and 1 sub-sw
      +                          itches
  4885                           ; Switch size 1, requested type "simple"
  4886                           ; Number of cases is 1, Range of values is 0 to 0
  4887                           ; switch strategies available:
  4888                           ; Name         Instructions Cycles
  4889                           ; simple_byte            4     3 (average)
  4890                           ; direct_byte            8     6 (fixed)
  4891                           ; jumptable            260     6 (fixed)
  4892                           ;	Chosen strategy is simple_byte
  4893  05F6  087C               	movf	??_I2C1_DO_TX_EMPTY+2,w
  4894  05F7  3A00               	xorlw	0	; case 0
  4895  05F8  1903               	skipnz
  4896  05F9  2DFB               	goto	l2946
  4897  05FA  2DE7               	goto	l2324
  4898  05FB                     l2946:
  4899                           
  4900                           ; Switch size 1, requested type "simple"
  4901                           ; Number of cases is 4, Range of values is 1 to 4
  4902                           ; switch strategies available:
  4903                           ; Name         Instructions Cycles
  4904                           ; simple_byte           13     7 (average)
  4905                           ; direct_byte           17     9 (fixed)
  4906                           ; jumptable            263     9 (fixed)
  4907                           ;	Chosen strategy is simple_byte
  4908  05FB  087B               	movf	??_I2C1_DO_TX_EMPTY+1,w
  4909  05FC  3A01               	xorlw	1	; case 1
  4910  05FD  1903               	skipnz
  4911  05FE  2DE7               	goto	l2324
  4912  05FF  3A03               	xorlw	3	; case 2
  4913  0600  1903               	skipnz
  4914  0601  2DDE               	goto	l2314
  4915  0602  3A01               	xorlw	1	; case 3
  4916  0603  1903               	skipnz
  4917  0604  2DDE               	goto	l2314
  4918  0605  3A07               	xorlw	7	; case 4
  4919  0606  1903               	skipnz
  4920  0607  2DE2               	goto	l2318
  4921  0608  2DE7               	goto	l2324
  4922  0609                     l340:
  4923  0609  0008               	return
  4924  060A                     __end_of_I2C1_DO_TX_EMPTY:
  4925                           
  4926                           	psect	text39
  4927  0334                     __ptext39:	
  4928 ;; *************** function _I2C1_MasterSetIrq *****************
  4929 ;; Defined at:
  4930 ;;		line 645 in file "mcc_generated_files/i2c1_master.c"
  4931 ;; Parameters:    Size  Location     Type
  4932 ;;		None
  4933 ;; Auto vars:     Size  Location     Type
  4934 ;;		None
  4935 ;; Return value:  Size  Location     Type
  4936 ;;                  1    wreg      void 
  4937 ;; Registers used:
  4938 ;;		None
  4939 ;; Tracked objects:
  4940 ;;		On entry : 0/0
  4941 ;;		On exit  : 0/0
  4942 ;;		Unchanged: 0/0
  4943 ;; Data sizes:     COMMON   BANK0   BANK1   BANK2   BANK3   BANK4
  4944 ;;      Params:         0       0       0       0       0       0
  4945 ;;      Locals:         0       0       0       0       0       0
  4946 ;;      Temps:          0       0       0       0       0       0
  4947 ;;      Totals:         0       0       0       0       0       0
  4948 ;;Total ram usage:        0 bytes
  4949 ;; Hardware stack levels used: 1
  4950 ;; This function calls:
  4951 ;;		Nothing
  4952 ;; This function is called by:
  4953 ;;		_I2C1_DO_TX_EMPTY
  4954 ;; This function uses a non-reentrant model
  4955 ;;
  4956                           
  4957  0334                     _I2C1_MasterSetIrq:	
  4958                           ;psect for function _I2C1_MasterSetIrq
  4959                           
  4960  0334                     l2204:	
  4961                           ;incstack = 0
  4962                           ; Regs used in _I2C1_MasterSetIrq: []
  4963                           
  4964                           
  4965                           ;mcc_generated_files/i2c1_master.c: 647:     PIR1bits.SSP1IF = 1;
  4966  0334  0020               	movlb	0	; select bank0
  4967  0335  1591               	bsf	17,3	;volatile
  4968  0336                     l460:
  4969  0336  0008               	return
  4970  0337                     __end_of_I2C1_MasterSetIrq:
  4971                           
  4972                           	psect	text40
  4973  037A                     __ptext40:	
  4974 ;; *************** function _I2C1_MasterIsNack *****************
  4975 ;; Defined at:
  4976 ;;		line 598 in file "mcc_generated_files/i2c1_master.c"
  4977 ;; Parameters:    Size  Location     Type
  4978 ;;		None
  4979 ;; Auto vars:     Size  Location     Type
  4980 ;;		None
  4981 ;; Return value:  Size  Location     Type
  4982 ;;                  1    wreg      _Bool 
  4983 ;; Registers used:
  4984 ;;		wreg, status,2, status,0
  4985 ;; Tracked objects:
  4986 ;;		On entry : 0/0
  4987 ;;		On exit  : 0/0
  4988 ;;		Unchanged: 0/0
  4989 ;; Data sizes:     COMMON   BANK0   BANK1   BANK2   BANK3   BANK4
  4990 ;;      Params:         0       0       0       0       0       0
  4991 ;;      Locals:         0       0       0       0       0       0
  4992 ;;      Temps:          0       0       0       0       0       0
  4993 ;;      Totals:         0       0       0       0       0       0
  4994 ;;Total ram usage:        0 bytes
  4995 ;; Hardware stack levels used: 1
  4996 ;; This function calls:
  4997 ;;		Nothing
  4998 ;; This function is called by:
  4999 ;;		_I2C1_MasterFsm
  5000 ;;		_I2C1_DO_TX
  5001 ;; This function uses a non-reentrant model
  5002 ;;
  5003                           
  5004  037A                     _I2C1_MasterIsNack:	
  5005                           ;psect for function _I2C1_MasterIsNack
  5006                           
  5007  037A                     l2154:	
  5008                           ;incstack = 0
  5009                           ; Regs used in _I2C1_MasterIsNack: [wreg+status,2+status,0]
  5010                           
  5011                           
  5012                           ;mcc_generated_files/i2c1_master.c: 600:     return SSP1CON2bits.ACKSTAT;
  5013  037A  0024               	movlb	4	; select bank4
  5014  037B  0E16               	swapf	22,w	;volatile
  5015  037C  0C89               	rrf	9,f
  5016  037D  0C89               	rrf	9,f
  5017  037E  3901               	andlw	1
  5018  037F                     l433:
  5019  037F  0008               	return
  5020  0380                     __end_of_I2C1_MasterIsNack:
  5021                           
  5022                           	psect	text41
  5023  0343                     __ptext41:	
  5024 ;; *************** function _I2C1_MasterSendTxData *****************
  5025 ;; Defined at:
  5026 ;;		line 568 in file "mcc_generated_files/i2c1_master.c"
  5027 ;; Parameters:    Size  Location     Type
  5028 ;;  data            1    wreg     unsigned char 
  5029 ;; Auto vars:     Size  Location     Type
  5030 ;;  data            1    0[COMMON] unsigned char 
  5031 ;; Return value:  Size  Location     Type
  5032 ;;                  1    wreg      void 
  5033 ;; Registers used:
  5034 ;;		wreg
  5035 ;; Tracked objects:
  5036 ;;		On entry : 0/0
  5037 ;;		On exit  : 0/0
  5038 ;;		Unchanged: 0/0
  5039 ;; Data sizes:     COMMON   BANK0   BANK1   BANK2   BANK3   BANK4
  5040 ;;      Params:         0       0       0       0       0       0
  5041 ;;      Locals:         1       0       0       0       0       0
  5042 ;;      Temps:          0       0       0       0       0       0
  5043 ;;      Totals:         1       0       0       0       0       0
  5044 ;;Total ram usage:        1 bytes
  5045 ;; Hardware stack levels used: 1
  5046 ;; This function calls:
  5047 ;;		Nothing
  5048 ;; This function is called by:
  5049 ;;		_I2C1_DO_SEND_ADR_READ
  5050 ;;		_I2C1_DO_SEND_ADR_WRITE
  5051 ;;		_I2C1_DO_TX
  5052 ;; This function uses a non-reentrant model
  5053 ;;
  5054                           
  5055  0343                     _I2C1_MasterSendTxData:	
  5056                           ;psect for function _I2C1_MasterSendTxData
  5057                           
  5058                           
  5059                           ;incstack = 0
  5060                           ; Regs used in _I2C1_MasterSendTxData: [wreg]
  5061                           ;I2C1_MasterSendTxData@data stored from wreg
  5062  0343  00F0               	movwf	I2C1_MasterSendTxData@data
  5063  0344                     l2158:
  5064                           
  5065                           ;mcc_generated_files/i2c1_master.c: 568: static __attribute__((inline)) void I2C1_Master
      +                          SendTxData(uint8_t data);mcc_generated_files/i2c1_master.c: 569: {;mcc_generated_files/i
      +                          2c1_master.c: 570:     SSP1BUF = data;
  5066  0344  0870               	movf	I2C1_MasterSendTxData@data,w
  5067  0345  0024               	movlb	4	; select bank4
  5068  0346  0091               	movwf	17	;volatile
  5069  0347                     l415:
  5070  0347  0008               	return
  5071  0348                     __end_of_I2C1_MasterSendTxData:
  5072                           
  5073                           	psect	text42
  5074  033B                     __ptext42:	
  5075 ;; *************** function _I2C1_MasterSendAck *****************
  5076 ;; Defined at:
  5077 ;;		line 603 in file "mcc_generated_files/i2c1_master.c"
  5078 ;; Parameters:    Size  Location     Type
  5079 ;;		None
  5080 ;; Auto vars:     Size  Location     Type
  5081 ;;		None
  5082 ;; Return value:  Size  Location     Type
  5083 ;;                  1    wreg      void 
  5084 ;; Registers used:
  5085 ;;		None
  5086 ;; Tracked objects:
  5087 ;;		On entry : 0/0
  5088 ;;		On exit  : 0/0
  5089 ;;		Unchanged: 0/0
  5090 ;; Data sizes:     COMMON   BANK0   BANK1   BANK2   BANK3   BANK4
  5091 ;;      Params:         0       0       0       0       0       0
  5092 ;;      Locals:         0       0       0       0       0       0
  5093 ;;      Temps:          0       0       0       0       0       0
  5094 ;;      Totals:         0       0       0       0       0       0
  5095 ;;Total ram usage:        0 bytes
  5096 ;; Hardware stack levels used: 1
  5097 ;; This function calls:
  5098 ;;		Nothing
  5099 ;; This function is called by:
  5100 ;;		_I2C1_DO_RX
  5101 ;;		_I2C1_DO_RX_ACK
  5102 ;; This function uses a non-reentrant model
  5103 ;;
  5104                           
  5105  033B                     _I2C1_MasterSendAck:	
  5106                           ;psect for function _I2C1_MasterSendAck
  5107                           
  5108  033B                     l2182:	
  5109                           ;incstack = 0
  5110                           ; Regs used in _I2C1_MasterSendAck: []
  5111                           
  5112                           
  5113                           ;mcc_generated_files/i2c1_master.c: 605:     SSP1CON2bits.ACKDT = 0;
  5114  033B  0024               	movlb	4	; select bank4
  5115  033C  1296               	bcf	22,5	;volatile
  5116                           
  5117                           ;mcc_generated_files/i2c1_master.c: 606:     SSP1CON2bits.ACKEN = 1;
  5118  033D  1616               	bsf	22,4	;volatile
  5119  033E                     l436:
  5120  033E  0008               	return
  5121  033F                     __end_of_I2C1_MasterSendAck:
  5122                           
  5123                           	psect	text43
  5124  0331                     __ptext43:	
  5125 ;; *************** function _I2C1_MasterGetRxData *****************
  5126 ;; Defined at:
  5127 ;;		line 563 in file "mcc_generated_files/i2c1_master.c"
  5128 ;; Parameters:    Size  Location     Type
  5129 ;;		None
  5130 ;; Auto vars:     Size  Location     Type
  5131 ;;		None
  5132 ;; Return value:  Size  Location     Type
  5133 ;;                  1    wreg      unsigned char 
  5134 ;; Registers used:
  5135 ;;		wreg
  5136 ;; Tracked objects:
  5137 ;;		On entry : 0/0
  5138 ;;		On exit  : 0/0
  5139 ;;		Unchanged: 0/0
  5140 ;; Data sizes:     COMMON   BANK0   BANK1   BANK2   BANK3   BANK4
  5141 ;;      Params:         0       0       0       0       0       0
  5142 ;;      Locals:         0       0       0       0       0       0
  5143 ;;      Temps:          0       0       0       0       0       0
  5144 ;;      Totals:         0       0       0       0       0       0
  5145 ;;Total ram usage:        0 bytes
  5146 ;; Hardware stack levels used: 1
  5147 ;; This function calls:
  5148 ;;		Nothing
  5149 ;; This function is called by:
  5150 ;;		_I2C1_DO_RX
  5151 ;; This function uses a non-reentrant model
  5152 ;;
  5153                           
  5154  0331                     _I2C1_MasterGetRxData:	
  5155                           ;psect for function _I2C1_MasterGetRxData
  5156                           
  5157  0331                     l2178:	
  5158                           ;incstack = 0
  5159                           ; Regs used in _I2C1_MasterGetRxData: [wreg]
  5160                           
  5161                           
  5162                           ;mcc_generated_files/i2c1_master.c: 565:     return SSP1BUF;
  5163  0331  0024               	movlb	4	; select bank4
  5164  0332  0811               	movf	17,w	;volatile
  5165  0333                     l412:
  5166  0333  0008               	return
  5167  0334                     __end_of_I2C1_MasterGetRxData:
  5168                           
  5169                           	psect	text44
  5170  0337                     __ptext44:	
  5171 ;; *************** function _I2C1_MasterSendNack *****************
  5172 ;; Defined at:
  5173 ;;		line 609 in file "mcc_generated_files/i2c1_master.c"
  5174 ;; Parameters:    Size  Location     Type
  5175 ;;		None
  5176 ;; Auto vars:     Size  Location     Type
  5177 ;;		None
  5178 ;; Return value:  Size  Location     Type
  5179 ;;                  1    wreg      void 
  5180 ;; Registers used:
  5181 ;;		None
  5182 ;; Tracked objects:
  5183 ;;		On entry : 0/0
  5184 ;;		On exit  : 0/0
  5185 ;;		Unchanged: 0/0
  5186 ;; Data sizes:     COMMON   BANK0   BANK1   BANK2   BANK3   BANK4
  5187 ;;      Params:         0       0       0       0       0       0
  5188 ;;      Locals:         0       0       0       0       0       0
  5189 ;;      Temps:          0       0       0       0       0       0
  5190 ;;      Totals:         0       0       0       0       0       0
  5191 ;;Total ram usage:        0 bytes
  5192 ;; Hardware stack levels used: 1
  5193 ;; This function calls:
  5194 ;;		Nothing
  5195 ;; This function is called by:
  5196 ;;		_I2C1_DO_RX_NACK_STOP
  5197 ;;		_I2C1_DO_RX_NACK_RESTART
  5198 ;; This function uses a non-reentrant model
  5199 ;;
  5200                           
  5201  0337                     _I2C1_MasterSendNack:	
  5202                           ;psect for function _I2C1_MasterSendNack
  5203                           
  5204  0337                     l2114:	
  5205                           ;incstack = 0
  5206                           ; Regs used in _I2C1_MasterSendNack: []
  5207                           
  5208                           
  5209                           ;mcc_generated_files/i2c1_master.c: 611:     SSP1CON2bits.ACKDT = 1;
  5210  0337  0024               	movlb	4	; select bank4
  5211  0338  1696               	bsf	22,5	;volatile
  5212                           
  5213                           ;mcc_generated_files/i2c1_master.c: 612:     SSP1CON2bits.ACKEN = 1;
  5214  0339  1616               	bsf	22,4	;volatile
  5215  033A                     l439:
  5216  033A  0008               	return
  5217  033B                     __end_of_I2C1_MasterSendNack:
  5218                           
  5219                           	psect	text45
  5220  032E                     __ptext45:	
  5221 ;; *************** function _I2C1_MasterStartRx *****************
  5222 ;; Defined at:
  5223 ;;		line 583 in file "mcc_generated_files/i2c1_master.c"
  5224 ;; Parameters:    Size  Location     Type
  5225 ;;		None
  5226 ;; Auto vars:     Size  Location     Type
  5227 ;;		None
  5228 ;; Return value:  Size  Location     Type
  5229 ;;                  1    wreg      void 
  5230 ;; Registers used:
  5231 ;;		None
  5232 ;; Tracked objects:
  5233 ;;		On entry : 0/0
  5234 ;;		On exit  : 0/0
  5235 ;;		Unchanged: 0/0
  5236 ;; Data sizes:     COMMON   BANK0   BANK1   BANK2   BANK3   BANK4
  5237 ;;      Params:         0       0       0       0       0       0
  5238 ;;      Locals:         0       0       0       0       0       0
  5239 ;;      Temps:          0       0       0       0       0       0
  5240 ;;      Totals:         0       0       0       0       0       0
  5241 ;;Total ram usage:        0 bytes
  5242 ;; Hardware stack levels used: 1
  5243 ;; This function calls:
  5244 ;;		Nothing
  5245 ;; This function is called by:
  5246 ;;		_I2C1_DO_RCEN
  5247 ;; This function uses a non-reentrant model
  5248 ;;
  5249                           
  5250  032E                     _I2C1_MasterStartRx:	
  5251                           ;psect for function _I2C1_MasterStartRx
  5252                           
  5253  032E                     l2196:	
  5254                           ;incstack = 0
  5255                           ; Regs used in _I2C1_MasterStartRx: []
  5256                           
  5257                           
  5258                           ;mcc_generated_files/i2c1_master.c: 585:     SSP1CON2bits.RCEN = 1;
  5259  032E  0024               	movlb	4	; select bank4
  5260  032F  1596               	bsf	22,3	;volatile
  5261  0330                     l424:
  5262  0330  0008               	return
  5263  0331                     __end_of_I2C1_MasterStartRx:
  5264                           
  5265                           	psect	text46
  5266  031A                     __ptext46:	
  5267 ;; *************** function _I2C1_CallbackReturnReset *****************
  5268 ;; Defined at:
  5269 ;;		line 525 in file "mcc_generated_files/i2c1_master.c"
  5270 ;; Parameters:    Size  Location     Type
  5271 ;;  funPtr          1    9[COMMON] PTR void 
  5272 ;;		 -> I2C1_ReadDataBlock@bufferBlock(3), I2C1_Write2ByteRegister@data(2), I2C1_Write1ByteRegister@data(1), I2C1_Read2B
      +yteRegister@returnValue(2), 
  5273 ;;		 -> NULL(0), I2C1_Read1ByteRegister@returnValue(1), 
  5274 ;; Auto vars:     Size  Location     Type
  5275 ;;		None
  5276 ;; Return value:  Size  Location     Type
  5277 ;;                  1    wreg      enum E360
  5278 ;; Registers used:
  5279 ;;		wreg
  5280 ;; Tracked objects:
  5281 ;;		On entry : 0/0
  5282 ;;		On exit  : 0/0
  5283 ;;		Unchanged: 0/0
  5284 ;; Data sizes:     COMMON   BANK0   BANK1   BANK2   BANK3   BANK4
  5285 ;;      Params:         1       0       0       0       0       0
  5286 ;;      Locals:         0       0       0       0       0       0
  5287 ;;      Temps:          0       0       0       0       0       0
  5288 ;;      Totals:         1       0       0       0       0       0
  5289 ;;Total ram usage:        1 bytes
  5290 ;; Hardware stack levels used: 1
  5291 ;; This function calls:
  5292 ;;		Nothing
  5293 ;; This function is called by:
  5294 ;;		_I2C1_Open
  5295 ;;		_I2C1_DO_TX
  5296 ;;		_I2C1_DO_RX
  5297 ;;		_I2C1_DO_TX_EMPTY
  5298 ;;		_I2C1_DO_ADDRESS_NACK
  5299 ;;		_I2C1_DO_RX_EMPTY
  5300 ;; This function uses a non-reentrant model
  5301 ;;
  5302                           
  5303  031A                     _I2C1_CallbackReturnReset:	
  5304                           ;psect for function _I2C1_CallbackReturnReset
  5305                           
  5306  031A                     l2210:	
  5307                           ;incstack = 0
  5308                           ; Regs used in _I2C1_CallbackReturnReset: [wreg]
  5309                           
  5310                           
  5311                           ;mcc_generated_files/i2c1_master.c: 525: i2c1_operations_t I2C1_CallbackReturnReset(void
      +                           *funPtr);mcc_generated_files/i2c1_master.c: 526: {;mcc_generated_files/i2c1_master.c: 5
      +                          27:     return I2C1_RESET_LINK;
  5312  031A  3005               	movlw	5
  5313  031B                     l396:
  5314  031B  0008               	return
  5315  031C                     __end_of_I2C1_CallbackReturnReset:
  5316                           
  5317                           	psect	text47
  5318  0318                     __ptext47:	
  5319 ;; *************** function _I2C1_CallbackReturnStop *****************
  5320 ;; Defined at:
  5321 ;;		line 520 in file "mcc_generated_files/i2c1_master.c"
  5322 ;; Parameters:    Size  Location     Type
  5323 ;;  funPtr          1    9[COMMON] PTR void 
  5324 ;;		 -> I2C1_ReadDataBlock@bufferBlock(3), I2C1_Write2ByteRegister@data(2), I2C1_Write1ByteRegister@data(1), I2C1_Read2B
      +yteRegister@returnValue(2), 
  5325 ;;		 -> NULL(0), I2C1_Read1ByteRegister@returnValue(1), 
  5326 ;; Auto vars:     Size  Location     Type
  5327 ;;		None
  5328 ;; Return value:  Size  Location     Type
  5329 ;;                  1    wreg      enum E360
  5330 ;; Registers used:
  5331 ;;		wreg
  5332 ;; Tracked objects:
  5333 ;;		On entry : 0/0
  5334 ;;		On exit  : 0/0
  5335 ;;		Unchanged: 0/0
  5336 ;; Data sizes:     COMMON   BANK0   BANK1   BANK2   BANK3   BANK4
  5337 ;;      Params:         1       0       0       0       0       0
  5338 ;;      Locals:         0       0       0       0       0       0
  5339 ;;      Temps:          0       0       0       0       0       0
  5340 ;;      Totals:         1       0       0       0       0       0
  5341 ;;Total ram usage:        1 bytes
  5342 ;; Hardware stack levels used: 1
  5343 ;; This function calls:
  5344 ;;		Nothing
  5345 ;; This function is called by:
  5346 ;;		_I2C1_Open
  5347 ;;		_I2C1_SetCallback
  5348 ;;		_I2C1_DO_TX
  5349 ;;		_I2C1_DO_RX
  5350 ;;		_I2C1_DO_TX_EMPTY
  5351 ;;		_I2C1_DO_ADDRESS_NACK
  5352 ;;		_I2C1_DO_RX_EMPTY
  5353 ;; This function uses a non-reentrant model
  5354 ;;
  5355                           
  5356  0318                     _I2C1_CallbackReturnStop:	
  5357                           ;psect for function _I2C1_CallbackReturnStop
  5358                           
  5359  0318                     l2206:	
  5360                           ;incstack = 0
  5361                           ; Regs used in _I2C1_CallbackReturnStop: [wreg]
  5362                           
  5363                           
  5364                           ;mcc_generated_files/i2c1_master.c: 520: i2c1_operations_t I2C1_CallbackReturnStop(void 
      +                          *funPtr);mcc_generated_files/i2c1_master.c: 521: {;mcc_generated_files/i2c1_master.c: 52
      +                          2:     return I2C1_STOP;
  5365  0318  3001               	movlw	1
  5366  0319                     l393:
  5367  0319  0008               	return
  5368  031A                     __end_of_I2C1_CallbackReturnStop:
  5369                           
  5370                           	psect	text48
  5371  04C4                     __ptext48:	
  5372 ;; *************** function _rdBlkRegCompleteHandler *****************
  5373 ;; Defined at:
  5374 ;;		line 170 in file "mcc_generated_files/examples/i2c1_master_example.c"
  5375 ;; Parameters:    Size  Location     Type
  5376 ;;  ptr             1    9[COMMON] PTR void 
  5377 ;;		 -> I2C1_ReadDataBlock@bufferBlock(3), I2C1_Write2ByteRegister@data(2), I2C1_Write1ByteRegister@data(1), I2C1_Read2B
      +yteRegister@returnValue(2), 
  5378 ;;		 -> NULL(0), I2C1_Read1ByteRegister@returnValue(1), 
  5379 ;; Auto vars:     Size  Location     Type
  5380 ;;		None
  5381 ;; Return value:  Size  Location     Type
  5382 ;;                  1    wreg      enum E360
  5383 ;; Registers used:
  5384 ;;		wreg, fsr1l, fsr1h, status,2, status,0, pclath, cstack
  5385 ;; Tracked objects:
  5386 ;;		On entry : 0/0
  5387 ;;		On exit  : 0/0
  5388 ;;		Unchanged: 0/0
  5389 ;; Data sizes:     COMMON   BANK0   BANK1   BANK2   BANK3   BANK4
  5390 ;;      Params:         1       0       0       0       0       0
  5391 ;;      Locals:         0       0       0       0       0       0
  5392 ;;      Temps:          0       0       0       0       0       0
  5393 ;;      Totals:         1       0       0       0       0       0
  5394 ;;Total ram usage:        1 bytes
  5395 ;; Hardware stack levels used: 1
  5396 ;; Hardware stack levels required when called: 2
  5397 ;; This function calls:
  5398 ;;		_I2C1_SetBuffer
  5399 ;;		_I2C1_SetDataCompleteCallback
  5400 ;; This function is called by:
  5401 ;;		_I2C1_ReadDataBlock
  5402 ;;		_I2C1_DO_TX
  5403 ;;		_I2C1_DO_RX
  5404 ;;		_I2C1_DO_TX_EMPTY
  5405 ;;		_I2C1_DO_ADDRESS_NACK
  5406 ;;		_I2C1_DO_RX_EMPTY
  5407 ;; This function uses a non-reentrant model
  5408 ;;
  5409                           
  5410  04C4                     _rdBlkRegCompleteHandler:	
  5411                           ;psect for function _rdBlkRegCompleteHandler
  5412                           
  5413  04C4                     l2148:	
  5414                           ;incstack = 0
  5415                           ; Regs used in _rdBlkRegCompleteHandler: [wreg+fsr1l+fsr1h+status,2+status,0+pclath+csta
      +                          ck]
  5416                           
  5417                           
  5418                           ;mcc_generated_files/examples/i2c1_master_example.c: 170: static i2c1_operations_t rdBlk
      +                          RegCompleteHandler(void *ptr);mcc_generated_files/examples/i2c1_master_example.c: 171: {
      +                          ;mcc_generated_files/examples/i2c1_master_example.c: 172:     I2C1_SetBuffer(((i2c1_buff
      +                          er_t *)ptr)->data,((i2c1_buffer_t*)ptr)->len);
  5419  04C4  0879               	movf	rdBlkRegCompleteHandler@ptr,w
  5420  04C5  0086               	movwf	6
  5421  04C6  0187               	clrf	7
  5422  04C7  3F40               	moviw [0]fsr1
  5423  04C8  00F0               	movwf	I2C1_SetBuffer@bufferSize
  5424  04C9  3F41               	moviw [1]fsr1
  5425  04CA  00F1               	movwf	I2C1_SetBuffer@bufferSize+1
  5426  04CB  0879               	movf	rdBlkRegCompleteHandler@ptr,w
  5427  04CC  3E02               	addlw	2
  5428  04CD  0086               	movwf	6
  5429  04CE  0187               	clrf	7
  5430  04CF  0801               	movf	1,w
  5431  04D0  3183  23F5  3184   	fcall	_I2C1_SetBuffer
  5432                           
  5433                           ;mcc_generated_files/examples/i2c1_master_example.c: 173:     I2C1_SetDataCompleteCallba
      +                          ck(((void*)0),((void*)0));
  5434  04D3  3000               	movlw	0
  5435  04D4  00F5               	movwf	I2C1_SetDataCompleteCallback@cb
  5436  04D5  00F6               	movwf	I2C1_SetDataCompleteCallback@cb+1
  5437  04D6  01F7               	clrf	I2C1_SetDataCompleteCallback@ptr
  5438  04D7  3183  23B4  3184   	fcall	_I2C1_SetDataCompleteCallback
  5439  04DA                     l2150:
  5440                           
  5441                           ;mcc_generated_files/examples/i2c1_master_example.c: 174:     return I2C1_RESTART_READ;
  5442  04DA  3002               	movlw	2
  5443  04DB                     l102:
  5444  04DB  0008               	return
  5445  04DC                     __end_of_rdBlkRegCompleteHandler:
  5446                           
  5447                           	psect	text49
  5448  0448                     __ptext49:	
  5449 ;; *************** function _wr1RegCompleteHandler *****************
  5450 ;; Defined at:
  5451 ;;		line 156 in file "mcc_generated_files/examples/i2c1_master_example.c"
  5452 ;; Parameters:    Size  Location     Type
  5453 ;;  ptr             1    9[COMMON] PTR void 
  5454 ;;		 -> I2C1_ReadDataBlock@bufferBlock(3), I2C1_Write2ByteRegister@data(2), I2C1_Write1ByteRegister@data(1), I2C1_Read2B
      +yteRegister@returnValue(2), 
  5455 ;;		 -> NULL(0), I2C1_Read1ByteRegister@returnValue(1), 
  5456 ;; Auto vars:     Size  Location     Type
  5457 ;;		None
  5458 ;; Return value:  Size  Location     Type
  5459 ;;                  1    wreg      enum E360
  5460 ;; Registers used:
  5461 ;;		wreg, fsr1l, fsr1h, status,2, status,0, pclath, cstack
  5462 ;; Tracked objects:
  5463 ;;		On entry : 0/0
  5464 ;;		On exit  : 0/0
  5465 ;;		Unchanged: 0/0
  5466 ;; Data sizes:     COMMON   BANK0   BANK1   BANK2   BANK3   BANK4
  5467 ;;      Params:         1       0       0       0       0       0
  5468 ;;      Locals:         0       0       0       0       0       0
  5469 ;;      Temps:          0       0       0       0       0       0
  5470 ;;      Totals:         1       0       0       0       0       0
  5471 ;;Total ram usage:        1 bytes
  5472 ;; Hardware stack levels used: 1
  5473 ;; Hardware stack levels required when called: 2
  5474 ;; This function calls:
  5475 ;;		_I2C1_SetBuffer
  5476 ;;		_I2C1_SetDataCompleteCallback
  5477 ;; This function is called by:
  5478 ;;		_I2C1_Write1ByteRegister
  5479 ;;		_I2C1_DO_TX
  5480 ;;		_I2C1_DO_RX
  5481 ;;		_I2C1_DO_TX_EMPTY
  5482 ;;		_I2C1_DO_ADDRESS_NACK
  5483 ;;		_I2C1_DO_RX_EMPTY
  5484 ;; This function uses a non-reentrant model
  5485 ;;
  5486                           
  5487  0448                     _wr1RegCompleteHandler:	
  5488                           ;psect for function _wr1RegCompleteHandler
  5489                           
  5490  0448                     l2132:	
  5491                           ;incstack = 0
  5492                           ; Regs used in _wr1RegCompleteHandler: [wreg+fsr1l+fsr1h+status,2+status,0+pclath+cstack
      +                          ]
  5493                           
  5494                           
  5495                           ;mcc_generated_files/examples/i2c1_master_example.c: 156: static i2c1_operations_t wr1Re
      +                          gCompleteHandler(void *ptr);mcc_generated_files/examples/i2c1_master_example.c: 157: {;m
      +                          cc_generated_files/examples/i2c1_master_example.c: 158:     I2C1_SetBuffer(ptr,1);
  5496  0448  3001               	movlw	1
  5497  0449  00F0               	movwf	I2C1_SetBuffer@bufferSize
  5498  044A  3000               	movlw	0
  5499  044B  00F1               	movwf	I2C1_SetBuffer@bufferSize+1
  5500  044C  0879               	movf	wr1RegCompleteHandler@ptr,w
  5501  044D  3183  23F5  3184   	fcall	_I2C1_SetBuffer
  5502  0450                     l2134:
  5503                           
  5504                           ;mcc_generated_files/examples/i2c1_master_example.c: 159:     I2C1_SetDataCompleteCallba
      +                          ck(((void*)0),((void*)0));
  5505  0450  3000               	movlw	0
  5506  0451  00F5               	movwf	I2C1_SetDataCompleteCallback@cb
  5507  0452  00F6               	movwf	I2C1_SetDataCompleteCallback@cb+1
  5508  0453  01F7               	clrf	I2C1_SetDataCompleteCallback@ptr
  5509  0454  3183  23B4  3184   	fcall	_I2C1_SetDataCompleteCallback
  5510  0457                     l2136:
  5511                           
  5512                           ;mcc_generated_files/examples/i2c1_master_example.c: 160:     return I2C1_CONTINUE;
  5513  0457  3004               	movlw	4
  5514  0458                     l96:
  5515  0458  0008               	return
  5516  0459                     __end_of_wr1RegCompleteHandler:
  5517                           
  5518                           	psect	text50
  5519  0437                     __ptext50:	
  5520 ;; *************** function _rd2RegCompleteHandler *****************
  5521 ;; Defined at:
  5522 ;;		line 149 in file "mcc_generated_files/examples/i2c1_master_example.c"
  5523 ;; Parameters:    Size  Location     Type
  5524 ;;  ptr             1    9[COMMON] PTR void 
  5525 ;;		 -> I2C1_ReadDataBlock@bufferBlock(3), I2C1_Write2ByteRegister@data(2), I2C1_Write1ByteRegister@data(1), I2C1_Read2B
      +yteRegister@returnValue(2), 
  5526 ;;		 -> NULL(0), I2C1_Read1ByteRegister@returnValue(1), 
  5527 ;; Auto vars:     Size  Location     Type
  5528 ;;		None
  5529 ;; Return value:  Size  Location     Type
  5530 ;;                  1    wreg      enum E360
  5531 ;; Registers used:
  5532 ;;		wreg, fsr1l, fsr1h, status,2, status,0, pclath, cstack
  5533 ;; Tracked objects:
  5534 ;;		On entry : 0/0
  5535 ;;		On exit  : 0/0
  5536 ;;		Unchanged: 0/0
  5537 ;; Data sizes:     COMMON   BANK0   BANK1   BANK2   BANK3   BANK4
  5538 ;;      Params:         1       0       0       0       0       0
  5539 ;;      Locals:         0       0       0       0       0       0
  5540 ;;      Temps:          0       0       0       0       0       0
  5541 ;;      Totals:         1       0       0       0       0       0
  5542 ;;Total ram usage:        1 bytes
  5543 ;; Hardware stack levels used: 1
  5544 ;; Hardware stack levels required when called: 2
  5545 ;; This function calls:
  5546 ;;		_I2C1_SetBuffer
  5547 ;;		_I2C1_SetDataCompleteCallback
  5548 ;; This function is called by:
  5549 ;;		_I2C1_Read2ByteRegister
  5550 ;;		_I2C1_DO_TX
  5551 ;;		_I2C1_DO_RX
  5552 ;;		_I2C1_DO_TX_EMPTY
  5553 ;;		_I2C1_DO_ADDRESS_NACK
  5554 ;;		_I2C1_DO_RX_EMPTY
  5555 ;; This function uses a non-reentrant model
  5556 ;;
  5557                           
  5558  0437                     _rd2RegCompleteHandler:	
  5559                           ;psect for function _rd2RegCompleteHandler
  5560                           
  5561  0437                     l2124:	
  5562                           ;incstack = 0
  5563                           ; Regs used in _rd2RegCompleteHandler: [wreg+fsr1l+fsr1h+status,2+status,0+pclath+cstack
      +                          ]
  5564                           
  5565                           
  5566                           ;mcc_generated_files/examples/i2c1_master_example.c: 149: static i2c1_operations_t rd2Re
      +                          gCompleteHandler(void *ptr);mcc_generated_files/examples/i2c1_master_example.c: 150: {;m
      +                          cc_generated_files/examples/i2c1_master_example.c: 151:     I2C1_SetBuffer(ptr,2);
  5567  0437  3002               	movlw	2
  5568  0438  00F0               	movwf	I2C1_SetBuffer@bufferSize
  5569  0439  3000               	movlw	0
  5570  043A  00F1               	movwf	I2C1_SetBuffer@bufferSize+1
  5571  043B  0879               	movf	rd2RegCompleteHandler@ptr,w
  5572  043C  3183  23F5  3184   	fcall	_I2C1_SetBuffer
  5573  043F                     l2126:
  5574                           
  5575                           ;mcc_generated_files/examples/i2c1_master_example.c: 152:     I2C1_SetDataCompleteCallba
      +                          ck(((void*)0),((void*)0));
  5576  043F  3000               	movlw	0
  5577  0440  00F5               	movwf	I2C1_SetDataCompleteCallback@cb
  5578  0441  00F6               	movwf	I2C1_SetDataCompleteCallback@cb+1
  5579  0442  01F7               	clrf	I2C1_SetDataCompleteCallback@ptr
  5580  0443  3183  23B4  3184   	fcall	_I2C1_SetDataCompleteCallback
  5581  0446                     l2128:
  5582                           
  5583                           ;mcc_generated_files/examples/i2c1_master_example.c: 153:     return I2C1_RESTART_READ;
  5584  0446  3002               	movlw	2
  5585  0447                     l93:
  5586  0447  0008               	return
  5587  0448                     __end_of_rd2RegCompleteHandler:
  5588                           
  5589                           	psect	text51
  5590  0426                     __ptext51:	
  5591 ;; *************** function _rd1RegCompleteHandler *****************
  5592 ;; Defined at:
  5593 ;;		line 142 in file "mcc_generated_files/examples/i2c1_master_example.c"
  5594 ;; Parameters:    Size  Location     Type
  5595 ;;  ptr             1    9[COMMON] PTR void 
  5596 ;;		 -> I2C1_ReadDataBlock@bufferBlock(3), I2C1_Write2ByteRegister@data(2), I2C1_Write1ByteRegister@data(1), I2C1_Read2B
      +yteRegister@returnValue(2), 
  5597 ;;		 -> NULL(0), I2C1_Read1ByteRegister@returnValue(1), 
  5598 ;; Auto vars:     Size  Location     Type
  5599 ;;		None
  5600 ;; Return value:  Size  Location     Type
  5601 ;;                  1    wreg      enum E360
  5602 ;; Registers used:
  5603 ;;		wreg, fsr1l, fsr1h, status,2, status,0, pclath, cstack
  5604 ;; Tracked objects:
  5605 ;;		On entry : 0/0
  5606 ;;		On exit  : 0/0
  5607 ;;		Unchanged: 0/0
  5608 ;; Data sizes:     COMMON   BANK0   BANK1   BANK2   BANK3   BANK4
  5609 ;;      Params:         1       0       0       0       0       0
  5610 ;;      Locals:         0       0       0       0       0       0
  5611 ;;      Temps:          0       0       0       0       0       0
  5612 ;;      Totals:         1       0       0       0       0       0
  5613 ;;Total ram usage:        1 bytes
  5614 ;; Hardware stack levels used: 1
  5615 ;; Hardware stack levels required when called: 2
  5616 ;; This function calls:
  5617 ;;		_I2C1_SetBuffer
  5618 ;;		_I2C1_SetDataCompleteCallback
  5619 ;; This function is called by:
  5620 ;;		_I2C1_Read1ByteRegister
  5621 ;;		_I2C1_DO_TX
  5622 ;;		_I2C1_DO_RX
  5623 ;;		_I2C1_DO_TX_EMPTY
  5624 ;;		_I2C1_DO_ADDRESS_NACK
  5625 ;;		_I2C1_DO_RX_EMPTY
  5626 ;; This function uses a non-reentrant model
  5627 ;;
  5628                           
  5629  0426                     _rd1RegCompleteHandler:	
  5630                           ;psect for function _rd1RegCompleteHandler
  5631                           
  5632  0426                     l2116:	
  5633                           ;incstack = 0
  5634                           ; Regs used in _rd1RegCompleteHandler: [wreg+fsr1l+fsr1h+status,2+status,0+pclath+cstack
      +                          ]
  5635                           
  5636                           
  5637                           ;mcc_generated_files/examples/i2c1_master_example.c: 142: static i2c1_operations_t rd1Re
      +                          gCompleteHandler(void *ptr);mcc_generated_files/examples/i2c1_master_example.c: 143: {;m
      +                          cc_generated_files/examples/i2c1_master_example.c: 144:     I2C1_SetBuffer(ptr,1);
  5638  0426  3001               	movlw	1
  5639  0427  00F0               	movwf	I2C1_SetBuffer@bufferSize
  5640  0428  3000               	movlw	0
  5641  0429  00F1               	movwf	I2C1_SetBuffer@bufferSize+1
  5642  042A  0879               	movf	rd1RegCompleteHandler@ptr,w
  5643  042B  3183  23F5  3184   	fcall	_I2C1_SetBuffer
  5644  042E                     l2118:
  5645                           
  5646                           ;mcc_generated_files/examples/i2c1_master_example.c: 145:     I2C1_SetDataCompleteCallba
      +                          ck(((void*)0),((void*)0));
  5647  042E  3000               	movlw	0
  5648  042F  00F5               	movwf	I2C1_SetDataCompleteCallback@cb
  5649  0430  00F6               	movwf	I2C1_SetDataCompleteCallback@cb+1
  5650  0431  01F7               	clrf	I2C1_SetDataCompleteCallback@ptr
  5651  0432  3183  23B4  3184   	fcall	_I2C1_SetDataCompleteCallback
  5652  0435                     l2120:
  5653                           
  5654                           ;mcc_generated_files/examples/i2c1_master_example.c: 146:     return I2C1_RESTART_READ;
  5655  0435  3002               	movlw	2
  5656  0436                     l90:
  5657  0436  0008               	return
  5658  0437                     __end_of_rd1RegCompleteHandler:
  5659                           
  5660                           	psect	text52
  5661  0415                     __ptext52:	
  5662 ;; *************** function _wr2RegCompleteHandler *****************
  5663 ;; Defined at:
  5664 ;;		line 163 in file "mcc_generated_files/examples/i2c1_master_example.c"
  5665 ;; Parameters:    Size  Location     Type
  5666 ;;  ptr             1    9[COMMON] PTR void 
  5667 ;;		 -> I2C1_ReadDataBlock@bufferBlock(3), I2C1_Write2ByteRegister@data(2), I2C1_Write1ByteRegister@data(1), I2C1_Read2B
      +yteRegister@returnValue(2), 
  5668 ;;		 -> NULL(0), I2C1_Read1ByteRegister@returnValue(1), 
  5669 ;; Auto vars:     Size  Location     Type
  5670 ;;		None
  5671 ;; Return value:  Size  Location     Type
  5672 ;;                  1    wreg      enum E360
  5673 ;; Registers used:
  5674 ;;		wreg, fsr1l, fsr1h, status,2, status,0, pclath, cstack
  5675 ;; Tracked objects:
  5676 ;;		On entry : 0/0
  5677 ;;		On exit  : 0/0
  5678 ;;		Unchanged: 0/0
  5679 ;; Data sizes:     COMMON   BANK0   BANK1   BANK2   BANK3   BANK4
  5680 ;;      Params:         1       0       0       0       0       0
  5681 ;;      Locals:         0       0       0       0       0       0
  5682 ;;      Temps:          0       0       0       0       0       0
  5683 ;;      Totals:         1       0       0       0       0       0
  5684 ;;Total ram usage:        1 bytes
  5685 ;; Hardware stack levels used: 1
  5686 ;; Hardware stack levels required when called: 2
  5687 ;; This function calls:
  5688 ;;		_I2C1_SetBuffer
  5689 ;;		_I2C1_SetDataCompleteCallback
  5690 ;; This function is called by:
  5691 ;;		_I2C1_Write2ByteRegister
  5692 ;;		_I2C1_DO_TX
  5693 ;;		_I2C1_DO_RX
  5694 ;;		_I2C1_DO_TX_EMPTY
  5695 ;;		_I2C1_DO_ADDRESS_NACK
  5696 ;;		_I2C1_DO_RX_EMPTY
  5697 ;; This function uses a non-reentrant model
  5698 ;;
  5699                           
  5700  0415                     _wr2RegCompleteHandler:	
  5701                           ;psect for function _wr2RegCompleteHandler
  5702                           
  5703  0415                     l2140:	
  5704                           ;incstack = 0
  5705                           ; Regs used in _wr2RegCompleteHandler: [wreg+fsr1l+fsr1h+status,2+status,0+pclath+cstack
      +                          ]
  5706                           
  5707                           
  5708                           ;mcc_generated_files/examples/i2c1_master_example.c: 163: static i2c1_operations_t wr2Re
      +                          gCompleteHandler(void *ptr);mcc_generated_files/examples/i2c1_master_example.c: 164: {;m
      +                          cc_generated_files/examples/i2c1_master_example.c: 165:     I2C1_SetBuffer(ptr,2);
  5709  0415  3002               	movlw	2
  5710  0416  00F0               	movwf	I2C1_SetBuffer@bufferSize
  5711  0417  3000               	movlw	0
  5712  0418  00F1               	movwf	I2C1_SetBuffer@bufferSize+1
  5713  0419  0879               	movf	wr2RegCompleteHandler@ptr,w
  5714  041A  3183  23F5  3184   	fcall	_I2C1_SetBuffer
  5715  041D                     l2142:
  5716                           
  5717                           ;mcc_generated_files/examples/i2c1_master_example.c: 166:     I2C1_SetDataCompleteCallba
      +                          ck(((void*)0),((void*)0));
  5718  041D  3000               	movlw	0
  5719  041E  00F5               	movwf	I2C1_SetDataCompleteCallback@cb
  5720  041F  00F6               	movwf	I2C1_SetDataCompleteCallback@cb+1
  5721  0420  01F7               	clrf	I2C1_SetDataCompleteCallback@ptr
  5722  0421  3183  23B4  3184   	fcall	_I2C1_SetDataCompleteCallback
  5723  0424                     l2144:
  5724                           
  5725                           ;mcc_generated_files/examples/i2c1_master_example.c: 167:     return I2C1_CONTINUE;
  5726  0424  3004               	movlw	4
  5727  0425                     l99:
  5728  0425  0008               	return
  5729  0426                     __end_of_wr2RegCompleteHandler:
  5730                           
  5731                           	psect	text53
  5732  03B4                     __ptext53:	
  5733 ;; *************** function _I2C1_SetDataCompleteCallback *****************
  5734 ;; Defined at:
  5735 ;;		line 273 in file "mcc_generated_files/i2c1_master.c"
  5736 ;; Parameters:    Size  Location     Type
  5737 ;;  cb              2    5[COMMON] PTR FTN(PTR void ,)enum 
  5738 ;;		 -> Absolute function(1), rdBlkRegCompleteHandler(1), wr2RegCompleteHandler(1), wr1RegCompleteHandler(1), 
  5739 ;;		 -> rd2RegCompleteHandler(1), rd1RegCompleteHandler(1), 
  5740 ;;  ptr             1    7[COMMON] PTR void 
  5741 ;;		 -> I2C1_ReadDataBlock@bufferBlock(3), I2C1_Write2ByteRegister@data(2), I2C1_Write1ByteRegister@data(1), I2C1_Read2B
      +yteRegister@returnValue(2), 
  5742 ;;		 -> NULL(0), I2C1_Read1ByteRegister@returnValue(1), 
  5743 ;; Auto vars:     Size  Location     Type
  5744 ;;		None
  5745 ;; Return value:  Size  Location     Type
  5746 ;;                  1    wreg      void 
  5747 ;; Registers used:
  5748 ;;		wreg, fsr1l, fsr1h, status,2, status,0, pclath, cstack
  5749 ;; Tracked objects:
  5750 ;;		On entry : 0/0
  5751 ;;		On exit  : 0/0
  5752 ;;		Unchanged: 0/0
  5753 ;; Data sizes:     COMMON   BANK0   BANK1   BANK2   BANK3   BANK4
  5754 ;;      Params:         3       0       0       0       0       0
  5755 ;;      Locals:         0       0       0       0       0       0
  5756 ;;      Temps:          1       0       0       0       0       0
  5757 ;;      Totals:         4       0       0       0       0       0
  5758 ;;Total ram usage:        4 bytes
  5759 ;; Hardware stack levels used: 1
  5760 ;; Hardware stack levels required when called: 1
  5761 ;; This function calls:
  5762 ;;		_I2C1_SetCallback
  5763 ;; This function is called by:
  5764 ;;		_rd1RegCompleteHandler
  5765 ;;		_rd2RegCompleteHandler
  5766 ;;		_wr1RegCompleteHandler
  5767 ;;		_wr2RegCompleteHandler
  5768 ;;		_rdBlkRegCompleteHandler
  5769 ;;		_I2C1_Read1ByteRegister
  5770 ;;		_I2C1_Read2ByteRegister
  5771 ;;		_I2C1_Write1ByteRegister
  5772 ;;		_I2C1_Write2ByteRegister
  5773 ;;		_I2C1_ReadDataBlock
  5774 ;; This function uses a non-reentrant model
  5775 ;;
  5776                           
  5777  03B4                     _I2C1_SetDataCompleteCallback:	
  5778                           ;psect for function _I2C1_SetDataCompleteCallback
  5779                           
  5780  03B4                     l2102:	
  5781                           ;incstack = 0
  5782                           ; Regs used in _I2C1_SetDataCompleteCallback: [wreg+fsr1l+fsr1h+status,2+status,0+pclath
      +                          +cstack]
  5783                           
  5784                           
  5785                           ;mcc_generated_files/i2c1_master.c: 273: void I2C1_SetDataCompleteCallback(i2c1_callback
      +                          _t cb, void *ptr);mcc_generated_files/i2c1_master.c: 274: {;mcc_generated_files/i2c1_mas
      +                          ter.c: 275:     I2C1_SetCallback(I2C1_DATA_COMPLETE, cb, ptr);
  5786  03B4  0876               	movf	I2C1_SetDataCompleteCallback@cb+1,w
  5787  03B5  00F1               	movwf	I2C1_SetCallback@cb+1
  5788  03B6  0875               	movf	I2C1_SetDataCompleteCallback@cb,w
  5789  03B7  00F0               	movwf	I2C1_SetCallback@cb
  5790  03B8  0877               	movf	I2C1_SetDataCompleteCallback@ptr,w
  5791  03B9  00F8               	movwf	??_I2C1_SetDataCompleteCallback
  5792  03BA  0878               	movf	??_I2C1_SetDataCompleteCallback,w
  5793  03BB  00F2               	movwf	I2C1_SetCallback@ptr
  5794  03BC  3000               	movlw	0
  5795  03BD  3185  2536  3183   	fcall	_I2C1_SetCallback
  5796  03C0                     l267:
  5797  03C0  0008               	return
  5798  03C1                     __end_of_I2C1_SetDataCompleteCallback:
  5799                           
  5800                           	psect	text54
  5801  0536                     __ptext54:	
  5802 ;; *************** function _I2C1_SetCallback *****************
  5803 ;; Defined at:
  5804 ;;		line 298 in file "mcc_generated_files/i2c1_master.c"
  5805 ;; Parameters:    Size  Location     Type
  5806 ;;  idx             1    wreg     enum E2888
  5807 ;;  cb              2    0[COMMON] PTR FTN(PTR void ,)enum 
  5808 ;;		 -> Absolute function(1), rdBlkRegCompleteHandler(1), wr2RegCompleteHandler(1), wr1RegCompleteHandler(1), 
  5809 ;;		 -> rd2RegCompleteHandler(1), rd1RegCompleteHandler(1), 
  5810 ;;  ptr             1    2[COMMON] PTR void 
  5811 ;;		 -> I2C1_ReadDataBlock@bufferBlock(3), I2C1_Write2ByteRegister@data(2), I2C1_Write1ByteRegister@data(1), I2C1_Read2B
      +yteRegister@returnValue(2), 
  5812 ;;		 -> NULL(0), I2C1_Read1ByteRegister@returnValue(1), 
  5813 ;; Auto vars:     Size  Location     Type
  5814 ;;  idx             1    4[COMMON] enum E2888
  5815 ;; Return value:  Size  Location     Type
  5816 ;;                  1    wreg      void 
  5817 ;; Registers used:
  5818 ;;		wreg, fsr1l, fsr1h, status,2, status,0
  5819 ;; Tracked objects:
  5820 ;;		On entry : 0/0
  5821 ;;		On exit  : 0/0
  5822 ;;		Unchanged: 0/0
  5823 ;; Data sizes:     COMMON   BANK0   BANK1   BANK2   BANK3   BANK4
  5824 ;;      Params:         3       0       0       0       0       0
  5825 ;;      Locals:         1       0       0       0       0       0
  5826 ;;      Temps:          1       0       0       0       0       0
  5827 ;;      Totals:         5       0       0       0       0       0
  5828 ;;Total ram usage:        5 bytes
  5829 ;; Hardware stack levels used: 1
  5830 ;; This function calls:
  5831 ;;		Nothing
  5832 ;; This function is called by:
  5833 ;;		_I2C1_SetDataCompleteCallback
  5834 ;;		_I2C1_SetAddressNackCallback
  5835 ;;		_I2C1_SetWriteCollisionCallback
  5836 ;;		_I2C1_SetDataNackCallback
  5837 ;;		_I2C1_SetTimeoutCallback
  5838 ;; This function uses a non-reentrant model
  5839 ;;
  5840                           
  5841  0536                     _I2C1_SetCallback:	
  5842                           ;psect for function _I2C1_SetCallback
  5843                           
  5844                           
  5845                           ;incstack = 0
  5846                           ; Regs used in _I2C1_SetCallback: [wreg+fsr1l+fsr1h+status,2+status,0]
  5847                           ;I2C1_SetCallback@idx stored from wreg
  5848  0536  00F4               	movwf	I2C1_SetCallback@idx
  5849  0537                     l2096:
  5850                           
  5851                           ;mcc_generated_files/i2c1_master.c: 298: static void I2C1_SetCallback(i2c1_callbackIndex
      +                          _t idx, i2c1_callback_t cb, void *ptr);mcc_generated_files/i2c1_master.c: 299: {;mcc_gen
      +                          erated_files/i2c1_master.c: 300:     if(cb)
  5852  0537  0870               	movf	I2C1_SetCallback@cb,w
  5853  0538  0471               	iorwf	I2C1_SetCallback@cb+1,w
  5854  0539  1903               	btfsc	3,2
  5855  053A  2D3C               	goto	u401
  5856  053B  2D3D               	goto	u400
  5857  053C                     u401:
  5858  053C  2D4E               	goto	l2100
  5859  053D                     u400:
  5860  053D                     l2098:
  5861                           
  5862                           ;mcc_generated_files/i2c1_master.c: 301:     {;mcc_generated_files/i2c1_master.c: 302:  
      +                                 I2C1_Status.callbackTable[idx] = cb;
  5863  053D  3574               	lslf	I2C1_SetCallback@idx,w
  5864  053E  3E20               	addlw	(low (_I2C1_Status| 0))& (0+255)
  5865  053F  0086               	movwf	6
  5866  0540  0187               	clrf	7
  5867  0541  0870               	movf	I2C1_SetCallback@cb,w
  5868  0542  3FC0               	movwi [0]fsr1
  5869  0543  0871               	movf	I2C1_SetCallback@cb+1,w
  5870  0544  3FC1               	movwi [1]fsr1
  5871                           
  5872                           ;mcc_generated_files/i2c1_master.c: 303:         I2C1_Status.callbackPayload[idx] = ptr;
  5873  0545  0872               	movf	I2C1_SetCallback@ptr,w
  5874  0546  00F3               	movwf	??_I2C1_SetCallback
  5875  0547  0874               	movf	I2C1_SetCallback@idx,w
  5876  0548  3E2C               	addlw	(low ((_I2C1_Status| 0+12)))& (0+255)
  5877  0549  0086               	movwf	6
  5878  054A  0187               	clrf	7
  5879  054B  0873               	movf	??_I2C1_SetCallback,w
  5880  054C  0081               	movwf	1
  5881                           
  5882                           ;mcc_generated_files/i2c1_master.c: 304:     }
  5883  054D  2D5B               	goto	l284
  5884  054E                     l2100:
  5885                           
  5886                           ;mcc_generated_files/i2c1_master.c: 306:     {;mcc_generated_files/i2c1_master.c: 307:  
      +                                 I2C1_Status.callbackTable[idx] = I2C1_CallbackReturnStop;
  5887  054E  3574               	lslf	I2C1_SetCallback@idx,w
  5888  054F  3E20               	addlw	(low (_I2C1_Status| 0))& (0+255)
  5889  0550  0086               	movwf	6
  5890  0551  0187               	clrf	7
  5891  0552  3018               	movlw	low _I2C1_CallbackReturnStop
  5892  0553  3FC0               	movwi [0]fsr1
  5893  0554  3003               	movlw	high _I2C1_CallbackReturnStop
  5894  0555  3FC1               	movwi [1]fsr1
  5895                           
  5896                           ;mcc_generated_files/i2c1_master.c: 308:         I2C1_Status.callbackPayload[idx] = ((vo
      +                          id*)0);
  5897  0556  0874               	movf	I2C1_SetCallback@idx,w
  5898  0557  3E2C               	addlw	(low ((_I2C1_Status| 0+12)))& (0+255)
  5899  0558  0086               	movwf	6
  5900  0559  0187               	clrf	7
  5901  055A  0181               	clrf	1
  5902  055B                     l284:
  5903  055B  0008               	return
  5904  055C                     __end_of_I2C1_SetCallback:
  5905                           
  5906                           	psect	text55
  5907  03F5                     __ptext55:	
  5908 ;; *************** function _I2C1_SetBuffer *****************
  5909 ;; Defined at:
  5910 ;;		line 263 in file "mcc_generated_files/i2c1_master.c"
  5911 ;; Parameters:    Size  Location     Type
  5912 ;;  buffer          1    wreg     PTR void 
  5913 ;;		 -> I2C1_Read1ByteRegister@returnValue.data(2), I2C1_Read2ByteRegister@returnValue.data(2), I2C1_Write1ByteRegister@
      +data.data(2), I2C1_Write2ByteRegister@data.data(2), 
  5914 ;;		 -> IO_Expander_Write@dt(1), I2C1_ReadDataBlock@reg(1), I2C1_ReadDataBlock@bufferBlock(3), bufferBlock.data(2), 
  5915 ;;		 -> I2C1_Write2ByteRegister@reg(1), I2C1_Write2ByteRegister@data(2), I2C1_Write1ByteRegister@reg(1), I2C1_Write1Byte
      +Register@data(1), 
  5916 ;;		 -> I2C1_Read2ByteRegister@reg(1), I2C1_Read2ByteRegister@returnValue(2), NULL(0), I2C1_Read1ByteRegister@reg(1), 
  5917 ;;		 -> I2C1_Read1ByteRegister@returnValue(1), 
  5918 ;;  bufferSize      2    0[COMMON] unsigned int 
  5919 ;; Auto vars:     Size  Location     Type
  5920 ;;  buffer          1    3[COMMON] PTR void 
  5921 ;;		 -> I2C1_Read1ByteRegister@returnValue.data(2), I2C1_Read2ByteRegister@returnValue.data(2), I2C1_Write1ByteRegister@
      +data.data(2), I2C1_Write2ByteRegister@data.data(2), 
  5922 ;;		 -> IO_Expander_Write@dt(1), I2C1_ReadDataBlock@reg(1), I2C1_ReadDataBlock@bufferBlock(3), bufferBlock.data(2), 
  5923 ;;		 -> I2C1_Write2ByteRegister@reg(1), I2C1_Write2ByteRegister@data(2), I2C1_Write1ByteRegister@reg(1), I2C1_Write1Byte
      +Register@data(1), 
  5924 ;;		 -> I2C1_Read2ByteRegister@reg(1), I2C1_Read2ByteRegister@returnValue(2), NULL(0), I2C1_Read1ByteRegister@reg(1), 
  5925 ;;		 -> I2C1_Read1ByteRegister@returnValue(1), 
  5926 ;; Return value:  Size  Location     Type
  5927 ;;                  1    wreg      void 
  5928 ;; Registers used:
  5929 ;;		wreg
  5930 ;; Tracked objects:
  5931 ;;		On entry : 0/0
  5932 ;;		On exit  : 0/0
  5933 ;;		Unchanged: 0/0
  5934 ;; Data sizes:     COMMON   BANK0   BANK1   BANK2   BANK3   BANK4
  5935 ;;      Params:         2       0       0       0       0       0
  5936 ;;      Locals:         1       0       0       0       0       0
  5937 ;;      Temps:          1       0       0       0       0       0
  5938 ;;      Totals:         4       0       0       0       0       0
  5939 ;;Total ram usage:        4 bytes
  5940 ;; Hardware stack levels used: 1
  5941 ;; This function calls:
  5942 ;;		Nothing
  5943 ;; This function is called by:
  5944 ;;		_I2C1_WriteNBytes
  5945 ;;		_rd1RegCompleteHandler
  5946 ;;		_rd2RegCompleteHandler
  5947 ;;		_wr1RegCompleteHandler
  5948 ;;		_wr2RegCompleteHandler
  5949 ;;		_rdBlkRegCompleteHandler
  5950 ;;		_I2C1_Read1ByteRegister
  5951 ;;		_I2C1_Read2ByteRegister
  5952 ;;		_I2C1_Write1ByteRegister
  5953 ;;		_I2C1_Write2ByteRegister
  5954 ;;		_I2C1_ReadNBytes
  5955 ;;		_I2C1_ReadDataBlock
  5956 ;; This function uses a non-reentrant model
  5957 ;;
  5958                           
  5959  03F5                     _I2C1_SetBuffer:	
  5960                           ;psect for function _I2C1_SetBuffer
  5961                           
  5962                           
  5963                           ;incstack = 0
  5964                           ; Regs used in _I2C1_SetBuffer: [wreg]
  5965                           ;I2C1_SetBuffer@buffer stored from wreg
  5966  03F5  00F3               	movwf	I2C1_SetBuffer@buffer
  5967  03F6                     l2104:
  5968                           
  5969                           ;mcc_generated_files/i2c1_master.c: 263: void I2C1_SetBuffer(void *buffer, size_t buffer
      +                          Size);mcc_generated_files/i2c1_master.c: 264: {;mcc_generated_files/i2c1_master.c: 265: 
      +                              if(I2C1_Status.bufferFree)
  5970  03F6  0020               	movlb	0	; select bank0
  5971  03F7  1DBC               	btfss	_I2C1_Status+28,3
  5972  03F8  2BFA               	goto	u411
  5973  03F9  2BFB               	goto	u410
  5974  03FA                     u411:
  5975  03FA  2C04               	goto	l264
  5976  03FB                     u410:
  5977  03FB                     l2106:
  5978                           
  5979                           ;mcc_generated_files/i2c1_master.c: 266:     {;mcc_generated_files/i2c1_master.c: 267:  
      +                                 I2C1_Status.data_ptr = buffer;
  5980  03FB  0873               	movf	I2C1_SetBuffer@buffer,w
  5981  03FC  00F2               	movwf	??_I2C1_SetBuffer
  5982  03FD  0872               	movf	??_I2C1_SetBuffer,w
  5983  03FE  00B7               	movwf	low ((_I2C1_Status| 0+23))
  5984                           
  5985                           ;mcc_generated_files/i2c1_master.c: 268:         I2C1_Status.data_length = bufferSize;
  5986  03FF  0871               	movf	I2C1_SetBuffer@bufferSize+1,w
  5987  0400  00B9               	movwf	_I2C1_Status+25
  5988  0401  0870               	movf	I2C1_SetBuffer@bufferSize,w
  5989  0402  00B8               	movwf	_I2C1_Status+24
  5990  0403                     l2108:
  5991                           
  5992                           ;mcc_generated_files/i2c1_master.c: 269:         I2C1_Status.bufferFree = 0;
  5993  0403  11BC               	bcf	_I2C1_Status+28,3
  5994  0404                     l264:
  5995  0404  0008               	return
  5996  0405                     __end_of_I2C1_SetBuffer:
  5997                           
  5998                           	psect	text56
  5999  032B                     __ptext56:	
  6000 ;; *************** function _I2C1_MasterStop *****************
  6001 ;; Defined at:
  6002 ;;		line 593 in file "mcc_generated_files/i2c1_master.c"
  6003 ;; Parameters:    Size  Location     Type
  6004 ;;		None
  6005 ;; Auto vars:     Size  Location     Type
  6006 ;;		None
  6007 ;; Return value:  Size  Location     Type
  6008 ;;                  1    wreg      void 
  6009 ;; Registers used:
  6010 ;;		None
  6011 ;; Tracked objects:
  6012 ;;		On entry : 0/0
  6013 ;;		On exit  : 0/0
  6014 ;;		Unchanged: 0/0
  6015 ;; Data sizes:     COMMON   BANK0   BANK1   BANK2   BANK3   BANK4
  6016 ;;      Params:         0       0       0       0       0       0
  6017 ;;      Locals:         0       0       0       0       0       0
  6018 ;;      Temps:          0       0       0       0       0       0
  6019 ;;      Totals:         0       0       0       0       0       0
  6020 ;;Total ram usage:        0 bytes
  6021 ;; Hardware stack levels used: 1
  6022 ;; This function calls:
  6023 ;;		Nothing
  6024 ;; This function is called by:
  6025 ;;		_I2C1_DO_SEND_STOP
  6026 ;; This function uses a non-reentrant model
  6027 ;;
  6028                           
  6029  032B                     _I2C1_MasterStop:	
  6030                           ;psect for function _I2C1_MasterStop
  6031                           
  6032  032B                     l2112:	
  6033                           ;incstack = 0
  6034                           ; Regs used in _I2C1_MasterStop: []
  6035                           
  6036                           
  6037                           ;mcc_generated_files/i2c1_master.c: 595:     SSP1CON2bits.PEN = 1;
  6038  032B  0024               	movlb	4	; select bank4
  6039  032C  1516               	bsf	22,2	;volatile
  6040  032D                     l430:
  6041  032D  0008               	return
  6042  032E                     __end_of_I2C1_MasterStop:
  6043                           
  6044                           	psect	text57
  6045  0328                     __ptext57:	
  6046 ;; *************** function _I2C1_MasterEnableRestart *****************
  6047 ;; Defined at:
  6048 ;;		line 573 in file "mcc_generated_files/i2c1_master.c"
  6049 ;; Parameters:    Size  Location     Type
  6050 ;;		None
  6051 ;; Auto vars:     Size  Location     Type
  6052 ;;		None
  6053 ;; Return value:  Size  Location     Type
  6054 ;;                  1    wreg      void 
  6055 ;; Registers used:
  6056 ;;		None
  6057 ;; Tracked objects:
  6058 ;;		On entry : 0/0
  6059 ;;		On exit  : 0/0
  6060 ;;		Unchanged: 0/0
  6061 ;; Data sizes:     COMMON   BANK0   BANK1   BANK2   BANK3   BANK4
  6062 ;;      Params:         0       0       0       0       0       0
  6063 ;;      Locals:         0       0       0       0       0       0
  6064 ;;      Temps:          0       0       0       0       0       0
  6065 ;;      Totals:         0       0       0       0       0       0
  6066 ;;Total ram usage:        0 bytes
  6067 ;; Hardware stack levels used: 1
  6068 ;; This function calls:
  6069 ;;		Nothing
  6070 ;; This function is called by:
  6071 ;;		_I2C1_DO_SEND_RESTART_READ
  6072 ;;		_I2C1_DO_SEND_RESTART_WRITE
  6073 ;;		_I2C1_DO_SEND_RESTART
  6074 ;;		_I2C1_DO_RX_EMPTY
  6075 ;; This function uses a non-reentrant model
  6076 ;;
  6077                           
  6078  0328                     _I2C1_MasterEnableRestart:	
  6079                           ;psect for function _I2C1_MasterEnableRestart
  6080                           
  6081  0328                     l2110:	
  6082                           ;incstack = 0
  6083                           ; Regs used in _I2C1_MasterEnableRestart: []
  6084                           
  6085                           
  6086                           ;mcc_generated_files/i2c1_master.c: 575:     SSP1CON2bits.RSEN = 1;
  6087  0328  0024               	movlb	4	; select bank4
  6088  0329  1496               	bsf	22,1	;volatile
  6089  032A                     l418:
  6090  032A  0008               	return
  6091  032B                     __end_of_I2C1_MasterEnableRestart:
  6092                           
  6093                           	psect	text58
  6094  0325                     __ptext58:	
  6095 ;; *************** function _I2C1_MasterStart *****************
  6096 ;; Defined at:
  6097 ;;		line 588 in file "mcc_generated_files/i2c1_master.c"
  6098 ;; Parameters:    Size  Location     Type
  6099 ;;		None
  6100 ;; Auto vars:     Size  Location     Type
  6101 ;;		None
  6102 ;; Return value:  Size  Location     Type
  6103 ;;                  1    wreg      void 
  6104 ;; Registers used:
  6105 ;;		None
  6106 ;; Tracked objects:
  6107 ;;		On entry : 0/0
  6108 ;;		On exit  : 0/0
  6109 ;;		Unchanged: 0/0
  6110 ;; Data sizes:     COMMON   BANK0   BANK1   BANK2   BANK3   BANK4
  6111 ;;      Params:         0       0       0       0       0       0
  6112 ;;      Locals:         0       0       0       0       0       0
  6113 ;;      Temps:          0       0       0       0       0       0
  6114 ;;      Totals:         0       0       0       0       0       0
  6115 ;;Total ram usage:        0 bytes
  6116 ;; Hardware stack levels used: 1
  6117 ;; This function calls:
  6118 ;;		Nothing
  6119 ;; This function is called by:
  6120 ;;		_I2C1_MasterOperation
  6121 ;; This function uses a non-reentrant model
  6122 ;;
  6123                           
  6124  0325                     _I2C1_MasterStart:	
  6125                           ;psect for function _I2C1_MasterStart
  6126                           
  6127  0325                     l2382:	
  6128                           ;incstack = 0
  6129                           ; Regs used in _I2C1_MasterStart: []
  6130                           
  6131                           
  6132                           ;mcc_generated_files/i2c1_master.c: 590:     SSP1CON2bits.SEN = 1;
  6133  0325  0024               	movlb	4	; select bank4
  6134  0326  1416               	bsf	22,0	;volatile
  6135  0327                     l427:
  6136  0327  0008               	return
  6137  0328                     __end_of_I2C1_MasterStart:
  6138                           
  6139                           	psect	text59
  6140  04DC                     __ptext59:	
  6141 ;; *************** function _I2C1_Close *****************
  6142 ;; Defined at:
  6143 ;;		line 209 in file "mcc_generated_files/i2c1_master.c"
  6144 ;; Parameters:    Size  Location     Type
  6145 ;;		None
  6146 ;; Auto vars:     Size  Location     Type
  6147 ;;  returnValue     1    1[COMMON] enum E355
  6148 ;; Return value:  Size  Location     Type
  6149 ;;                  1    wreg      enum E355
  6150 ;; Registers used:
  6151 ;;		wreg, status,2, status,0, pclath, cstack
  6152 ;; Tracked objects:
  6153 ;;		On entry : 0/0
  6154 ;;		On exit  : 0/0
  6155 ;;		Unchanged: 0/0
  6156 ;; Data sizes:     COMMON   BANK0   BANK1   BANK2   BANK3   BANK4
  6157 ;;      Params:         0       0       0       0       0       0
  6158 ;;      Locals:         1       0       0       0       0       0
  6159 ;;      Temps:          1       0       0       0       0       0
  6160 ;;      Totals:         2       0       0       0       0       0
  6161 ;;Total ram usage:        2 bytes
  6162 ;; Hardware stack levels used: 1
  6163 ;; Hardware stack levels required when called: 1
  6164 ;; This function calls:
  6165 ;;		_I2C1_MasterClearIrq
  6166 ;;		_I2C1_MasterClose
  6167 ;;		_I2C1_MasterDisableIrq
  6168 ;; This function is called by:
  6169 ;;		_I2C1_WriteNBytes
  6170 ;;		_I2C1_Read1ByteRegister
  6171 ;;		_I2C1_Read2ByteRegister
  6172 ;;		_I2C1_Write1ByteRegister
  6173 ;;		_I2C1_Write2ByteRegister
  6174 ;;		_I2C1_ReadNBytes
  6175 ;;		_I2C1_ReadDataBlock
  6176 ;; This function uses a non-reentrant model
  6177 ;;
  6178                           
  6179  04DC                     _I2C1_Close:	
  6180                           ;psect for function _I2C1_Close
  6181                           
  6182  04DC                     l2466:	
  6183                           ;incstack = 0
  6184                           ; Regs used in _I2C1_Close: [wreg+status,2+status,0+pclath+cstack]
  6185                           
  6186                           
  6187                           ;mcc_generated_files/i2c1_master.c: 211:     i2c1_error_t returnValue = I2C1_BUSY;
  6188  04DC  01F1               	clrf	I2C1_Close@returnValue
  6189  04DD  0AF1               	incf	I2C1_Close@returnValue,f
  6190                           
  6191                           ;mcc_generated_files/i2c1_master.c: 212:     if(!I2C1_Status.busy)
  6192  04DE  0020               	movlb	0	; select bank0
  6193  04DF  18BC               	btfsc	_I2C1_Status+28,1
  6194  04E0  2CE2               	goto	u531
  6195  04E1  2CE3               	goto	u530
  6196  04E2                     u531:
  6197  04E2  2CF6               	goto	l2480
  6198  04E3                     u530:
  6199  04E3                     l2468:
  6200                           
  6201                           ;mcc_generated_files/i2c1_master.c: 213:     {;mcc_generated_files/i2c1_master.c: 214:  
      +                                 I2C1_Status.inUse = 0;
  6202  04E3  113C               	bcf	_I2C1_Status+28,2
  6203  04E4                     l2470:
  6204                           
  6205                           ;mcc_generated_files/i2c1_master.c: 215:         I2C1_Status.address = 0xff;
  6206  04E4  30FF               	movlw	255
  6207  04E5  00F0               	movwf	??_I2C1_Close
  6208  04E6  0870               	movf	??_I2C1_Close,w
  6209  04E7  00B6               	movwf	_I2C1_Status+22
  6210  04E8                     l2472:
  6211                           
  6212                           ;mcc_generated_files/i2c1_master.c: 216:         I2C1_MasterClearIrq();
  6213  04E8  3183  231C  3184   	fcall	_I2C1_MasterClearIrq
  6214  04EB                     l2474:
  6215                           
  6216                           ;mcc_generated_files/i2c1_master.c: 217:         I2C1_MasterDisableIrq();
  6217  04EB  3183  2322  3184   	fcall	_I2C1_MasterDisableIrq
  6218  04EE                     l2476:
  6219                           
  6220                           ;mcc_generated_files/i2c1_master.c: 218:         I2C1_MasterClose();
  6221  04EE  3183  231F  3184   	fcall	_I2C1_MasterClose
  6222  04F1                     l2478:
  6223                           
  6224                           ;mcc_generated_files/i2c1_master.c: 219:         returnValue = I2C1_Status.error;
  6225  04F1  0020               	movlb	0	; select bank0
  6226  04F2  083B               	movf	_I2C1_Status+27,w
  6227  04F3  00F0               	movwf	??_I2C1_Close
  6228  04F4  0870               	movf	??_I2C1_Close,w
  6229  04F5  00F1               	movwf	I2C1_Close@returnValue
  6230  04F6                     l2480:
  6231                           
  6232                           ;mcc_generated_files/i2c1_master.c: 221:     return returnValue;
  6233  04F6  0871               	movf	I2C1_Close@returnValue,w
  6234  04F7                     l245:
  6235  04F7  0008               	return
  6236  04F8                     __end_of_I2C1_Close:
  6237                           
  6238                           	psect	text60
  6239  0322                     __ptext60:	
  6240 ;; *************** function _I2C1_MasterDisableIrq *****************
  6241 ;; Defined at:
  6242 ;;		line 635 in file "mcc_generated_files/i2c1_master.c"
  6243 ;; Parameters:    Size  Location     Type
  6244 ;;		None
  6245 ;; Auto vars:     Size  Location     Type
  6246 ;;		None
  6247 ;; Return value:  Size  Location     Type
  6248 ;;                  1    wreg      void 
  6249 ;; Registers used:
  6250 ;;		None
  6251 ;; Tracked objects:
  6252 ;;		On entry : 0/0
  6253 ;;		On exit  : 0/0
  6254 ;;		Unchanged: 0/0
  6255 ;; Data sizes:     COMMON   BANK0   BANK1   BANK2   BANK3   BANK4
  6256 ;;      Params:         0       0       0       0       0       0
  6257 ;;      Locals:         0       0       0       0       0       0
  6258 ;;      Temps:          0       0       0       0       0       0
  6259 ;;      Totals:         0       0       0       0       0       0
  6260 ;;Total ram usage:        0 bytes
  6261 ;; Hardware stack levels used: 1
  6262 ;; This function calls:
  6263 ;;		Nothing
  6264 ;; This function is called by:
  6265 ;;		_I2C1_Close
  6266 ;;		_I2C1_SetTimeOut
  6267 ;; This function uses a non-reentrant model
  6268 ;;
  6269                           
  6270  0322                     _I2C1_MasterDisableIrq:	
  6271                           ;psect for function _I2C1_MasterDisableIrq
  6272                           
  6273  0322                     l2404:	
  6274                           ;incstack = 0
  6275                           ; Regs used in _I2C1_MasterDisableIrq: []
  6276                           
  6277                           
  6278                           ;mcc_generated_files/i2c1_master.c: 637:     PIE1bits.SSP1IE = 0;
  6279  0322  0021               	movlb	1	; select bank1
  6280  0323  1191               	bcf	17,3	;volatile
  6281  0324                     l454:
  6282  0324  0008               	return
  6283  0325                     __end_of_I2C1_MasterDisableIrq:
  6284                           
  6285                           	psect	text61
  6286  031F                     __ptext61:	
  6287 ;; *************** function _I2C1_MasterClose *****************
  6288 ;; Defined at:
  6289 ;;		line 557 in file "mcc_generated_files/i2c1_master.c"
  6290 ;; Parameters:    Size  Location     Type
  6291 ;;		None
  6292 ;; Auto vars:     Size  Location     Type
  6293 ;;		None
  6294 ;; Return value:  Size  Location     Type
  6295 ;;                  1    wreg      void 
  6296 ;; Registers used:
  6297 ;;		None
  6298 ;; Tracked objects:
  6299 ;;		On entry : 0/0
  6300 ;;		On exit  : 0/0
  6301 ;;		Unchanged: 0/0
  6302 ;; Data sizes:     COMMON   BANK0   BANK1   BANK2   BANK3   BANK4
  6303 ;;      Params:         0       0       0       0       0       0
  6304 ;;      Locals:         0       0       0       0       0       0
  6305 ;;      Temps:          0       0       0       0       0       0
  6306 ;;      Totals:         0       0       0       0       0       0
  6307 ;;Total ram usage:        0 bytes
  6308 ;; Hardware stack levels used: 1
  6309 ;; This function calls:
  6310 ;;		Nothing
  6311 ;; This function is called by:
  6312 ;;		_I2C1_Close
  6313 ;; This function uses a non-reentrant model
  6314 ;;
  6315                           
  6316  031F                     _I2C1_MasterClose:	
  6317                           ;psect for function _I2C1_MasterClose
  6318                           
  6319  031F                     l2406:	
  6320                           ;incstack = 0
  6321                           ; Regs used in _I2C1_MasterClose: []
  6322                           
  6323                           
  6324                           ;mcc_generated_files/i2c1_master.c: 560:     SSP1CON1bits.SSPEN = 0;
  6325  031F  0024               	movlb	4	; select bank4
  6326  0320  1295               	bcf	21,5	;volatile
  6327  0321                     l409:
  6328  0321  0008               	return
  6329  0322                     __end_of_I2C1_MasterClose:
  6330                           
  6331                           	psect	text62
  6332  031C                     __ptext62:	
  6333 ;; *************** function _I2C1_MasterClearIrq *****************
  6334 ;; Defined at:
  6335 ;;		line 640 in file "mcc_generated_files/i2c1_master.c"
  6336 ;; Parameters:    Size  Location     Type
  6337 ;;		None
  6338 ;; Auto vars:     Size  Location     Type
  6339 ;;		None
  6340 ;; Return value:  Size  Location     Type
  6341 ;;                  1    wreg      void 
  6342 ;; Registers used:
  6343 ;;		None
  6344 ;; Tracked objects:
  6345 ;;		On entry : 0/0
  6346 ;;		On exit  : 0/0
  6347 ;;		Unchanged: 0/0
  6348 ;; Data sizes:     COMMON   BANK0   BANK1   BANK2   BANK3   BANK4
  6349 ;;      Params:         0       0       0       0       0       0
  6350 ;;      Locals:         0       0       0       0       0       0
  6351 ;;      Temps:          0       0       0       0       0       0
  6352 ;;      Totals:         0       0       0       0       0       0
  6353 ;;Total ram usage:        0 bytes
  6354 ;; Hardware stack levels used: 1
  6355 ;; This function calls:
  6356 ;;		Nothing
  6357 ;; This function is called by:
  6358 ;;		_I2C1_Open
  6359 ;;		_I2C1_Close
  6360 ;;		_I2C1_MasterFsm
  6361 ;; This function uses a non-reentrant model
  6362 ;;
  6363                           
  6364  031C                     _I2C1_MasterClearIrq:	
  6365                           ;psect for function _I2C1_MasterClearIrq
  6366                           
  6367  031C                     l2214:	
  6368                           ;incstack = 0
  6369                           ; Regs used in _I2C1_MasterClearIrq: []
  6370                           
  6371                           
  6372                           ;mcc_generated_files/i2c1_master.c: 642:     PIR1bits.SSP1IF = 0;
  6373  031C  0020               	movlb	0	; select bank0
  6374  031D  1191               	bcf	17,3	;volatile
  6375  031E                     l457:
  6376  031E  0008               	return
  6377  031F                     __end_of_I2C1_MasterClearIrq:
  6378  007E                     btemp	set	126	;btemp
  6379  007E                     wtemp0	set	126
  6380                           
  6381                           	psect	idloc
  6382                           
  6383                           ;Config register IDLOC0 @ 0x8000
  6384                           ;	unspecified, using default values
  6385  8000                     	org	32768
  6386  8000  3FFF               	dw	16383
  6387                           
  6388                           ;Config register IDLOC1 @ 0x8001
  6389                           ;	unspecified, using default values
  6390  8001                     	org	32769
  6391  8001  3FFF               	dw	16383
  6392                           
  6393                           ;Config register IDLOC2 @ 0x8002
  6394                           ;	unspecified, using default values
  6395  8002                     	org	32770
  6396  8002  3FFF               	dw	16383
  6397                           
  6398                           ;Config register IDLOC3 @ 0x8003
  6399                           ;	unspecified, using default values
  6400  8003                     	org	32771
  6401  8003  3FFF               	dw	16383
  6402                           
  6403                           	psect	config
  6404                           
  6405                           ;Config register CONFIG1 @ 0x8007
  6406                           ;	Oscillator Selection
  6407                           ;	FOSC = INTOSC, INTOSC oscillator: I/O function on CLKIN pin
  6408                           ;	Watchdog Timer Enable
  6409                           ;	WDTE = OFF, WDT disabled
  6410                           ;	Power-up Timer Enable
  6411                           ;	PWRTE = OFF, PWRT disabled
  6412                           ;	MCLR Pin Function Select
  6413                           ;	MCLRE = ON, MCLR/VPP pin function is MCLR
  6414                           ;	Flash Program Memory Code Protection
  6415                           ;	CP = OFF, Program memory code protection is disabled
  6416                           ;	Data Memory Code Protection
  6417                           ;	CPD = OFF, Data memory code protection is disabled
  6418                           ;	Brown-out Reset Enable
  6419                           ;	BOREN = ON, Brown-out Reset enabled
  6420                           ;	Clock Out Enable
  6421                           ;	CLKOUTEN = OFF, CLKOUT function is disabled. I/O or oscillator function on the CLKOUT 
      +                          pin
  6422                           ;	Internal/External Switchover
  6423                           ;	IESO = ON, Internal/External Switchover mode is enabled
  6424                           ;	Fail-Safe Clock Monitor Enable
  6425                           ;	FCMEN = ON, Fail-Safe Clock Monitor is enabled
  6426  8007                     	org	32775
  6427  8007  3FE4               	dw	16356
  6428                           
  6429                           ;Config register CONFIG2 @ 0x8008
  6430                           ;	Flash Memory Self-Write Protection
  6431                           ;	WRT = OFF, Write protection off
  6432                           ;	PLL Enable
  6433                           ;	PLLEN = OFF, 4x PLL disabled
  6434                           ;	Stack Overflow/Underflow Reset Enable
  6435                           ;	STVREN = ON, Stack Overflow or Underflow will cause a Reset
  6436                           ;	Brown-out Reset Voltage Selection
  6437                           ;	BORV = LO, Brown-out Reset Voltage (Vbor), low trip point selected.
  6438                           ;	Low-Voltage Programming Enable
  6439                           ;	LVP = ON, Low-voltage programming enabled
  6440  8008                     	org	32776
  6441  8008  3EFF               	dw	16127

Data Sizes:
    Strings     64
    Constant    32
    Data        1
    BSS         30
    Persistent  33
    Stack       0

Auto Spaces:
    Space          Size  Autos    Used
    COMMON           14     14      14
    BANK0            80     22      54
    BANK1            80      0       0
    BANK2            80      0       0
    BANK3            80      0       0
    BANK4            48      0       0

Pointer List with Targets:

    I2C1_Read1ByteRegister@returnValue.data	PTR unsigned char  size(1) Largest target is 0

    I2C1_Read2ByteRegister@returnValue.data	PTR unsigned char  size(1) Largest target is 0

    I2C1_Write1ByteRegister@data.data	PTR unsigned char  size(1) Largest target is 0

    I2C1_Write2ByteRegister@data.data	PTR unsigned char  size(1) Largest target is 0

    I2C1_DO_TX$1618$0	PTR void  size(1) Largest target is 4
		 -> I2C1_ReadDataBlock@bufferBlock(COMMON[3]), I2C1_Write2ByteRegister@data(COMMON[2]), I2C1_Write1ByteRegister@data(COMMON[1]), I2C1_Read2ByteRegister@returnValue(COMMON[2]), 
		 -> NULL(NULL[0]), I2C1_Read1ByteRegister@returnValue(COMMON[1]), 

    I2C1_DO_TX$1623	PTR void  size(1) Largest target is 4
		 -> I2C1_ReadDataBlock@bufferBlock(COMMON[3]), I2C1_Write2ByteRegister@data(COMMON[2]), I2C1_Write1ByteRegister@data(COMMON[1]), I2C1_Read2ByteRegister@returnValue(COMMON[2]), 
		 -> NULL(NULL[0]), I2C1_Read1ByteRegister@returnValue(COMMON[1]), 

    I2C1_DO_TX$1618	PTR FTN(PTR void ,)enum E360 size(2) Largest target is 1
		 -> I2C1_CallbackReturnReset(), I2C1_CallbackReturnStop(), Absolute function(), rdBlkRegCompleteHandler(), 
		 -> wr2RegCompleteHandler(), wr1RegCompleteHandler(), rd2RegCompleteHandler(), rd1RegCompleteHandler(), 

    I2C1_MasterFsm$1617	const PTR FTN()enum E2870 size(2) Largest target is 1
		 -> I2C1_DO_ADDRESS_NACK(), I2C1_DO_RESET(), I2C1_DO_RX_NACK_RESTART(), I2C1_DO_RX_NACK_STOP(), 
		 -> I2C1_DO_RX_ACK(), I2C1_DO_SEND_STOP(), I2C1_DO_SEND_RESTART(), I2C1_DO_SEND_RESTART_WRITE(), 
		 -> I2C1_DO_SEND_RESTART_READ(), I2C1_DO_TX_EMPTY(), I2C1_DO_RCEN(), I2C1_DO_RX(), 
		 -> I2C1_DO_TX(), I2C1_DO_SEND_ADR_WRITE(), I2C1_DO_SEND_ADR_READ(), I2C1_DO_IDLE(), 

    I2C1_CallbackReturnStop@funPtr	PTR void  size(1) Largest target is 4
		 -> I2C1_ReadDataBlock@bufferBlock(COMMON[3]), I2C1_Write2ByteRegister@data(COMMON[2]), I2C1_Write1ByteRegister@data(COMMON[1]), I2C1_Read2ByteRegister@returnValue(COMMON[2]), 
		 -> NULL(NULL[0]), I2C1_Read1ByteRegister@returnValue(COMMON[1]), 

    I2C1_CallbackReturnReset@funPtr	PTR void  size(1) Largest target is 4
		 -> I2C1_ReadDataBlock@bufferBlock(COMMON[3]), I2C1_Write2ByteRegister@data(COMMON[2]), I2C1_Write1ByteRegister@data(COMMON[1]), I2C1_Read2ByteRegister@returnValue(COMMON[2]), 
		 -> NULL(NULL[0]), I2C1_Read1ByteRegister@returnValue(COMMON[1]), 

    cb$0	PTR void  size(1) Largest target is 4
		 -> I2C1_ReadDataBlock@bufferBlock(COMMON[3]), I2C1_Write2ByteRegister@data(COMMON[2]), I2C1_Write1ByteRegister@data(COMMON[1]), I2C1_Read2ByteRegister@returnValue(COMMON[2]), 
		 -> NULL(NULL[0]), I2C1_Read1ByteRegister@returnValue(COMMON[1]), 

    Absolute function$0	PTR void  size(1) Largest target is 4
		 -> I2C1_ReadDataBlock@bufferBlock(COMMON[3]), I2C1_Write2ByteRegister@data(COMMON[2]), I2C1_Write1ByteRegister@data(COMMON[1]), I2C1_Read2ByteRegister@returnValue(COMMON[2]), 
		 -> NULL(NULL[0]), I2C1_Read1ByteRegister@returnValue(COMMON[1]), 

    cb$0	PTR void  size(1) Largest target is 4
		 -> I2C1_ReadDataBlock@bufferBlock(COMMON[3]), I2C1_Write2ByteRegister@data(COMMON[2]), I2C1_Write1ByteRegister@data(COMMON[1]), I2C1_Read2ByteRegister@returnValue(COMMON[2]), 
		 -> NULL(NULL[0]), I2C1_Read1ByteRegister@returnValue(COMMON[1]), 

    S298$0$0	PTR void  size(1) Largest target is 4
		 -> I2C1_ReadDataBlock@bufferBlock(COMMON[3]), I2C1_Write2ByteRegister@data(COMMON[2]), I2C1_Write1ByteRegister@data(COMMON[1]), I2C1_Read2ByteRegister@returnValue(COMMON[2]), 
		 -> NULL(NULL[0]), I2C1_Read1ByteRegister@returnValue(COMMON[1]), 

    LCD_Write_String@Str	PTR unsigned char  size(2) Largest target is 17
		 -> STR_4(CODE[16]), STR_3(CODE[15]), STR_2(CODE[17]), STR_1(CODE[16]), 

    I2C1_SetCallback@ptr	PTR void  size(1) Largest target is 4
		 -> I2C1_ReadDataBlock@bufferBlock(COMMON[3]), I2C1_Write2ByteRegister@data(COMMON[2]), I2C1_Write1ByteRegister@data(COMMON[1]), I2C1_Read2ByteRegister@returnValue(COMMON[2]), 
		 -> NULL(NULL[0]), I2C1_Read1ByteRegister@returnValue(COMMON[1]), 

    I2C1_SetCallback@cb	PTR FTN(PTR void ,)enum E360 size(2) Largest target is 1
		 -> Absolute function(), rdBlkRegCompleteHandler(), wr2RegCompleteHandler(), wr1RegCompleteHandler(), 
		 -> rd2RegCompleteHandler(), rd1RegCompleteHandler(), 

    I2C1_SetAddressNackCallback@ptr	PTR void  size(1) Largest target is 0
		 -> NULL(NULL[0]), 

    I2C1_SetAddressNackCallback@cb	PTR FTN(PTR void ,)enum E360 size(2) Largest target is 1
		 -> Absolute function(), 

    I2C1_SetDataCompleteCallback@ptr	PTR void  size(1) Largest target is 4
		 -> I2C1_ReadDataBlock@bufferBlock(COMMON[3]), I2C1_Write2ByteRegister@data(COMMON[2]), I2C1_Write1ByteRegister@data(COMMON[1]), I2C1_Read2ByteRegister@returnValue(COMMON[2]), 
		 -> NULL(NULL[0]), I2C1_Read1ByteRegister@returnValue(COMMON[1]), 

    I2C1_SetDataCompleteCallback@cb	PTR FTN(PTR void ,)enum E360 size(2) Largest target is 1
		 -> Absolute function(), rdBlkRegCompleteHandler(), wr2RegCompleteHandler(), wr1RegCompleteHandler(), 
		 -> rd2RegCompleteHandler(), rd1RegCompleteHandler(), 

    I2C1_SetBuffer@buffer	PTR void  size(1) Largest target is 4
		 -> I2C1_Read1ByteRegister@returnValue.data(COMMON[2]), I2C1_Read2ByteRegister@returnValue.data(COMMON[2]), I2C1_Write1ByteRegister@data.data(COMMON[2]), I2C1_Write2ByteRegister@data.data(COMMON[2]), 
		 -> IO_Expander_Write@dt(BANK0[1]), I2C1_ReadDataBlock@reg(COMMON[1]), I2C1_ReadDataBlock@bufferBlock(COMMON[3]), bufferBlock.data(COMMON[2]), 
		 -> I2C1_Write2ByteRegister@reg(COMMON[1]), I2C1_Write2ByteRegister@data(COMMON[2]), I2C1_Write1ByteRegister@reg(COMMON[1]), I2C1_Write1ByteRegister@data(COMMON[1]), 
		 -> I2C1_Read2ByteRegister@reg(COMMON[1]), I2C1_Read2ByteRegister@returnValue(COMMON[2]), NULL(NULL[0]), I2C1_Read1ByteRegister@reg(COMMON[1]), 
		 -> I2C1_Read1ByteRegister@returnValue(COMMON[1]), 

    S298$data_ptr	PTR unsigned char  size(1) Largest target is 4
		 -> IO_Expander_Write@dt(BANK0[1]), I2C1_ReadDataBlock@reg(COMMON[1]), I2C1_ReadDataBlock@bufferBlock(COMMON[3]), I2C1_Write2ByteRegister@reg(COMMON[1]), 
		 -> I2C1_Write2ByteRegister@data(COMMON[2]), I2C1_Write1ByteRegister@reg(COMMON[1]), I2C1_Write1ByteRegister@data(COMMON[1]), I2C1_Read2ByteRegister@reg(COMMON[1]), 
		 -> I2C1_Read2ByteRegister@returnValue(COMMON[2]), NULL(NULL[0]), I2C1_Read1ByteRegister@reg(COMMON[1]), I2C1_Read1ByteRegister@returnValue(COMMON[1]), 

    I2C1_Status.data_ptr	PTR unsigned char  size(1) Largest target is 4
		 -> I2C1_Read1ByteRegister@returnValue.data(COMMON[2]), I2C1_Read2ByteRegister@returnValue.data(COMMON[2]), I2C1_Write1ByteRegister@data.data(COMMON[2]), I2C1_Write2ByteRegister@data.data(COMMON[2]), 
		 -> IO_Expander_Write@dt(BANK0[1]), I2C1_ReadDataBlock@reg(COMMON[1]), I2C1_ReadDataBlock@bufferBlock(COMMON[3]), bufferBlock.data(COMMON[2]), 
		 -> I2C1_Write2ByteRegister@reg(COMMON[1]), I2C1_Write2ByteRegister@data(COMMON[2]), I2C1_Write1ByteRegister@reg(COMMON[1]), I2C1_Write1ByteRegister@data(COMMON[1]), 
		 -> I2C1_Read2ByteRegister@reg(COMMON[1]), I2C1_Read2ByteRegister@returnValue(COMMON[2]), NULL(NULL[0]), I2C1_Read1ByteRegister@reg(COMMON[1]), 
		 -> I2C1_Read1ByteRegister@returnValue(COMMON[1]), 

    S298$callbackPayload	PTR void [6] size(1) Largest target is 4
		 -> I2C1_ReadDataBlock@bufferBlock(COMMON[3]), I2C1_Write2ByteRegister@data(COMMON[2]), I2C1_Write1ByteRegister@data(COMMON[1]), I2C1_Read2ByteRegister@returnValue(COMMON[2]), 
		 -> NULL(NULL[0]), I2C1_Read1ByteRegister@returnValue(COMMON[1]), 

    I2C1_Status.callbackPayload	PTR void [6] size(1) Largest target is 4
		 -> I2C1_ReadDataBlock@bufferBlock(COMMON[3]), I2C1_Write2ByteRegister@data(COMMON[2]), I2C1_Write1ByteRegister@data(COMMON[1]), I2C1_Read2ByteRegister@returnValue(COMMON[2]), 
		 -> NULL(NULL[0]), I2C1_Read1ByteRegister@returnValue(COMMON[1]), 

    S298$callbackTable	PTR FTN(PTR void ,)enum E360[6] size(2) Largest target is 1
		 -> I2C1_CallbackReturnReset(), I2C1_CallbackReturnStop(), Absolute function(), rdBlkRegCompleteHandler(), 
		 -> wr2RegCompleteHandler(), wr1RegCompleteHandler(), rd2RegCompleteHandler(), rd1RegCompleteHandler(), 

    I2C1_Status.callbackTable	PTR FTN(PTR void ,)enum E360[6] size(2) Largest target is 1
		 -> I2C1_CallbackReturnReset(), I2C1_CallbackReturnStop(), Absolute function(), rdBlkRegCompleteHandler(), 
		 -> wr2RegCompleteHandler(), wr1RegCompleteHandler(), rd2RegCompleteHandler(), rd1RegCompleteHandler(), 

    i2c1_fsmStateTable	const PTR FTN()enum E2870[16] size(2) Largest target is 1
		 -> I2C1_DO_ADDRESS_NACK(), I2C1_DO_RESET(), I2C1_DO_RX_NACK_RESTART(), I2C1_DO_RX_NACK_STOP(), 
		 -> I2C1_DO_RX_ACK(), I2C1_DO_SEND_STOP(), I2C1_DO_SEND_RESTART(), I2C1_DO_SEND_RESTART_WRITE(), 
		 -> I2C1_DO_SEND_RESTART_READ(), I2C1_DO_TX_EMPTY(), I2C1_DO_RCEN(), I2C1_DO_RX(), 
		 -> I2C1_DO_TX(), I2C1_DO_SEND_ADR_WRITE(), I2C1_DO_SEND_ADR_READ(), I2C1_DO_IDLE(), 

    rdBlkRegCompleteHandler@ptr.data	PTR unsigned char  size(1) Largest target is 0

    rdBlkRegCompleteHandler@ptr	PTR void  size(1) Largest target is 4
		 -> I2C1_ReadDataBlock@bufferBlock(COMMON[3]), I2C1_Write2ByteRegister@data(COMMON[2]), I2C1_Write1ByteRegister@data(COMMON[1]), I2C1_Read2ByteRegister@returnValue(COMMON[2]), 
		 -> NULL(NULL[0]), I2C1_Read1ByteRegister@returnValue(COMMON[1]), 

    wr2RegCompleteHandler@ptr	PTR void  size(1) Largest target is 4
		 -> I2C1_ReadDataBlock@bufferBlock(COMMON[3]), I2C1_Write2ByteRegister@data(COMMON[2]), I2C1_Write1ByteRegister@data(COMMON[1]), I2C1_Read2ByteRegister@returnValue(COMMON[2]), 
		 -> NULL(NULL[0]), I2C1_Read1ByteRegister@returnValue(COMMON[1]), 

    wr1RegCompleteHandler@ptr	PTR void  size(1) Largest target is 4
		 -> I2C1_ReadDataBlock@bufferBlock(COMMON[3]), I2C1_Write2ByteRegister@data(COMMON[2]), I2C1_Write1ByteRegister@data(COMMON[1]), I2C1_Read2ByteRegister@returnValue(COMMON[2]), 
		 -> NULL(NULL[0]), I2C1_Read1ByteRegister@returnValue(COMMON[1]), 

    rd2RegCompleteHandler@ptr	PTR void  size(1) Largest target is 4
		 -> I2C1_ReadDataBlock@bufferBlock(COMMON[3]), I2C1_Write2ByteRegister@data(COMMON[2]), I2C1_Write1ByteRegister@data(COMMON[1]), I2C1_Read2ByteRegister@returnValue(COMMON[2]), 
		 -> NULL(NULL[0]), I2C1_Read1ByteRegister@returnValue(COMMON[1]), 

    rd1RegCompleteHandler@ptr	PTR void  size(1) Largest target is 4
		 -> I2C1_ReadDataBlock@bufferBlock(COMMON[3]), I2C1_Write2ByteRegister@data(COMMON[2]), I2C1_Write1ByteRegister@data(COMMON[1]), I2C1_Read2ByteRegister@returnValue(COMMON[2]), 
		 -> NULL(NULL[0]), I2C1_Read1ByteRegister@returnValue(COMMON[1]), 

    S94$data	PTR unsigned char  size(1) Largest target is 0

    bufferBlock.data	PTR unsigned char  size(1) Largest target is 0

    I2C1_WriteNBytes@data	PTR unsigned char  size(1) Largest target is 1
		 -> IO_Expander_Write@dt(BANK0[1]), 


Critical Paths under _main in COMMON

    _I2C1_SetAddressNackCallback->_I2C1_SetCallback
    _I2C1_MasterWrite->_I2C1_MasterOperation
    _I2C1_MasterFsm->_I2C1_DO_ADDRESS_NACK
    _I2C1_MasterFsm->_I2C1_DO_RX
    _I2C1_MasterFsm->_I2C1_DO_TX
    _I2C1_MasterFsm->_I2C1_DO_TX_EMPTY
    _I2C1_DO_TX_EMPTY->_I2C1_CallbackReturnReset
    _I2C1_DO_TX_EMPTY->_I2C1_CallbackReturnStop
    _I2C1_DO_TX_EMPTY->_rd1RegCompleteHandler
    _I2C1_DO_TX_EMPTY->_rd2RegCompleteHandler
    _I2C1_DO_TX_EMPTY->_rdBlkRegCompleteHandler
    _I2C1_DO_TX_EMPTY->_wr1RegCompleteHandler
    _I2C1_DO_TX_EMPTY->_wr2RegCompleteHandler
    _I2C1_DO_TX->_I2C1_CallbackReturnReset
    _I2C1_DO_TX->_I2C1_CallbackReturnStop
    _I2C1_DO_TX->_rd1RegCompleteHandler
    _I2C1_DO_TX->_rd2RegCompleteHandler
    _I2C1_DO_TX->_rdBlkRegCompleteHandler
    _I2C1_DO_TX->_wr1RegCompleteHandler
    _I2C1_DO_TX->_wr2RegCompleteHandler
    _I2C1_DO_SEND_ADR_WRITE->_I2C1_MasterSendTxData
    _I2C1_DO_RX->_I2C1_CallbackReturnReset
    _I2C1_DO_RX->_I2C1_CallbackReturnStop
    _I2C1_DO_RX->_rd1RegCompleteHandler
    _I2C1_DO_RX->_rd2RegCompleteHandler
    _I2C1_DO_RX->_rdBlkRegCompleteHandler
    _I2C1_DO_RX->_wr1RegCompleteHandler
    _I2C1_DO_RX->_wr2RegCompleteHandler
    _I2C1_DO_ADDRESS_NACK->_I2C1_CallbackReturnReset
    _I2C1_DO_ADDRESS_NACK->_I2C1_CallbackReturnStop
    _I2C1_DO_ADDRESS_NACK->_rd1RegCompleteHandler
    _I2C1_DO_ADDRESS_NACK->_rd2RegCompleteHandler
    _I2C1_DO_ADDRESS_NACK->_rdBlkRegCompleteHandler
    _I2C1_DO_ADDRESS_NACK->_wr1RegCompleteHandler
    _I2C1_DO_ADDRESS_NACK->_wr2RegCompleteHandler
    _wr2RegCompleteHandler->_I2C1_SetDataCompleteCallback
    _wr1RegCompleteHandler->_I2C1_SetDataCompleteCallback
    _rdBlkRegCompleteHandler->_I2C1_SetDataCompleteCallback
    _rd2RegCompleteHandler->_I2C1_SetDataCompleteCallback
    _rd1RegCompleteHandler->_I2C1_SetDataCompleteCallback
    _I2C1_SetDataCompleteCallback->_I2C1_SetCallback

Critical Paths under _main in BANK0

    _main->_LCD_Write_String
    _LCD_Write_String->_LCD_Write_Char
    _LCD_Write_Char->_LCD_Write_4Bit
    _LCD_Set_Cursor->_LCD_CMD
    _LCD_Init->_LCD_CMD
    _LCD_CMD->_LCD_Write_4Bit
    _LCD_Write_4Bit->_IO_pulseEnable
    _IO_pulseEnable->_IO_Expander_Write
    _IO_Expander_Write->_I2C1_WriteNBytes
    _I2C1_MasterWrite->_I2C1_MasterOperation
    _I2C1_Poller->_I2C1_MasterFsm

Critical Paths under _main in BANK1

    None.

Critical Paths under _main in BANK2

    None.

Critical Paths under _main in BANK3

    None.

Critical Paths under _main in BANK4

    None.

Call Graph Tables:

 ---------------------------------------------------------------------------------
 (Depth) Function   	        Calls       Base Space   Used Autos Params    Refs
 ---------------------------------------------------------------------------------
 (0) _main                                                 0     0      0  738572
                           _LCD_Init
                     _LCD_Set_Cursor
                   _LCD_Write_String
                  _SYSTEM_Initialize
 ---------------------------------------------------------------------------------
 (1) _SYSTEM_Initialize                                    0     0      0       0
                    _I2C1_Initialize
              _OSCILLATOR_Initialize
             _PIN_MANAGER_Initialize
                     _WDT_Initialize
 ---------------------------------------------------------------------------------
 (2) _WDT_Initialize                                       0     0      0       0
 ---------------------------------------------------------------------------------
 (2) _PIN_MANAGER_Initialize                               0     0      0       0
 ---------------------------------------------------------------------------------
 (2) _OSCILLATOR_Initialize                                0     0      0       0
 ---------------------------------------------------------------------------------
 (2) _I2C1_Initialize                                      0     0      0       0
 ---------------------------------------------------------------------------------
 (1) _LCD_Write_String                                     5     3      2  164395
                                             17 BANK0      5     3      2
                     _LCD_Write_Char
 ---------------------------------------------------------------------------------
 (2) _LCD_Write_Char                                       2     2      0  163849
                                             15 BANK0      2     2      0
                     _LCD_Write_4Bit
 ---------------------------------------------------------------------------------
 (1) _LCD_Set_Cursor                                       4     3      1  164643
                                             17 BANK0      4     3      1
                            _LCD_CMD
 ---------------------------------------------------------------------------------
 (1) _LCD_Init                                             3     3      0  409534
                                             17 BANK0      3     3      0
                  _IO_Expander_Write
                            _LCD_CMD
                     _LCD_Write_4Bit
 ---------------------------------------------------------------------------------
 (2) _LCD_CMD                                              2     2      0  163849
                                             15 BANK0      2     2      0
                     _LCD_Write_4Bit
 ---------------------------------------------------------------------------------
 (3) _LCD_Write_4Bit                                       2     2      0  163805
                                             13 BANK0      2     2      0
                  _IO_Expander_Write
                     _IO_pulseEnable
 ---------------------------------------------------------------------------------
 (4) _IO_pulseEnable                                       1     1      0   81902
                                             12 BANK0      1     1      0
                  _IO_Expander_Write
 ---------------------------------------------------------------------------------
 (5) _IO_Expander_Write                                    3     3      0   81858
                                              9 BANK0      3     3      0
                   _I2C1_WriteNBytes
 ---------------------------------------------------------------------------------
 (6) _I2C1_WriteNBytes                                     4     1      3   81810
                                              5 BANK0      4     1      3
                         _I2C1_Close
                   _I2C1_MasterWrite
                          _I2C1_Open
        _I2C1_SetAddressNackCallback
                     _I2C1_SetBuffer
 ---------------------------------------------------------------------------------
 (7) _I2C1_SetAddressNackCallback                          4     1      3    1870
                                              5 COMMON     4     1      3
                   _I2C1_SetCallback
 ---------------------------------------------------------------------------------
 (7) _I2C1_Open                                            3     3      0      46
                                              0 COMMON     3     3      0
                _I2C1_MasterClearIrq
                    _I2C1_MasterOpen
 ---------------------------------------------------------------------------------
 (8) _I2C1_MasterOpen                                      0     0      0       0
 ---------------------------------------------------------------------------------
 (7) _I2C1_MasterWrite                                     0     0      0   78300
               _I2C1_MasterOperation
 ---------------------------------------------------------------------------------
 (8) _I2C1_MasterOperation                                 3     3      0   78300
                                             13 COMMON     1     1      0
                                              3 BANK0      2     2      0
                   _I2C1_MasterStart
                        _I2C1_Poller
 ---------------------------------------------------------------------------------
 (9) _I2C1_Poller                                          0     0      0   78254
                     _I2C1_MasterFsm
            _I2C1_MasterWaitForEvent
 ---------------------------------------------------------------------------------
 (10) _I2C1_MasterWaitForEvent                             0     0      0       0
 ---------------------------------------------------------------------------------
 (10) _I2C1_MasterFsm                                      3     3      0   78254
                                              0 BANK0      3     3      0
               _I2C1_DO_ADDRESS_NACK *
                       _I2C1_DO_IDLE *
                       _I2C1_DO_RCEN *
                      _I2C1_DO_RESET *
                         _I2C1_DO_RX *
                     _I2C1_DO_RX_ACK *
            _I2C1_DO_RX_NACK_RESTART *
               _I2C1_DO_RX_NACK_STOP *
              _I2C1_DO_SEND_ADR_READ *
             _I2C1_DO_SEND_ADR_WRITE *
               _I2C1_DO_SEND_RESTART *
          _I2C1_DO_SEND_RESTART_READ *
         _I2C1_DO_SEND_RESTART_WRITE *
                  _I2C1_DO_SEND_STOP *
                         _I2C1_DO_TX *
                   _I2C1_DO_TX_EMPTY *
                _I2C1_MasterClearIrq
                  _I2C1_MasterIsNack
 ---------------------------------------------------------------------------------
 (11) _I2C1_DO_TX_EMPTY                                    3     3      0   19547
                                             10 COMMON     3     3      0
                   Absolute function *
           _I2C1_CallbackReturnReset *
            _I2C1_CallbackReturnStop *
               _I2C1_DO_SEND_RESTART
                  _I2C1_DO_SEND_STOP
                  _I2C1_MasterSetIrq
              _rd1RegCompleteHandler *
              _rd2RegCompleteHandler *
            _rdBlkRegCompleteHandler *
              _wr1RegCompleteHandler *
              _wr2RegCompleteHandler *
 ---------------------------------------------------------------------------------
 (12) _I2C1_MasterSetIrq                                   0     0      0       0
 ---------------------------------------------------------------------------------
 (11) _I2C1_DO_TX                                          3     3      0   19569
                                             10 COMMON     3     3      0
                   Absolute function *
           _I2C1_CallbackReturnReset *
            _I2C1_CallbackReturnStop *
          _I2C1_DO_SEND_RESTART_READ
         _I2C1_DO_SEND_RESTART_WRITE
                  _I2C1_DO_SEND_STOP
                  _I2C1_MasterIsNack
              _I2C1_MasterSendTxData
              _rd1RegCompleteHandler *
              _rd2RegCompleteHandler *
            _rdBlkRegCompleteHandler *
              _wr1RegCompleteHandler *
              _wr2RegCompleteHandler *
 ---------------------------------------------------------------------------------
 (11) _I2C1_MasterIsNack                                   0     0      0       0
 ---------------------------------------------------------------------------------
 (12) _I2C1_DO_SEND_RESTART_WRITE                          0     0      0       0
           _I2C1_MasterEnableRestart
 ---------------------------------------------------------------------------------
 (12) _I2C1_DO_SEND_RESTART_READ                           0     0      0       0
           _I2C1_MasterEnableRestart
 ---------------------------------------------------------------------------------
 (11) _I2C1_DO_SEND_ADR_WRITE                              0     0      0      22
              _I2C1_MasterSendTxData
 ---------------------------------------------------------------------------------
 (11) _I2C1_DO_SEND_ADR_READ                               0     0      0      22
              _I2C1_MasterSendTxData
 ---------------------------------------------------------------------------------
 (12) _I2C1_MasterSendTxData                               1     1      0      22
                                              0 COMMON     1     1      0
 ---------------------------------------------------------------------------------
 (11) _I2C1_DO_RX_ACK                                      0     0      0       0
                 _I2C1_MasterSendAck
 ---------------------------------------------------------------------------------
 (11) _I2C1_DO_RX                                          3     3      0   19547
                                             10 COMMON     3     3      0
                   Absolute function *
           _I2C1_CallbackReturnReset *
            _I2C1_CallbackReturnStop *
            _I2C1_DO_RX_NACK_RESTART
               _I2C1_DO_RX_NACK_STOP
               _I2C1_MasterGetRxData
                 _I2C1_MasterSendAck
              _rd1RegCompleteHandler *
              _rd2RegCompleteHandler *
            _rdBlkRegCompleteHandler *
              _wr1RegCompleteHandler *
              _wr2RegCompleteHandler *
 ---------------------------------------------------------------------------------
 (12) _I2C1_MasterSendAck                                  0     0      0       0
 ---------------------------------------------------------------------------------
 (12) _I2C1_MasterGetRxData                                0     0      0       0
 ---------------------------------------------------------------------------------
 (11) _I2C1_DO_RX_NACK_STOP                                0     0      0       0
                _I2C1_MasterSendNack
 ---------------------------------------------------------------------------------
 (11) _I2C1_DO_RX_NACK_RESTART                             0     0      0       0
                _I2C1_MasterSendNack
 ---------------------------------------------------------------------------------
 (12) _I2C1_MasterSendNack                                 0     0      0       0
 ---------------------------------------------------------------------------------
 (11) _I2C1_DO_RESET                                       0     0      0       0
 ---------------------------------------------------------------------------------
 (11) _I2C1_DO_RCEN                                        0     0      0       0
                 _I2C1_MasterStartRx
 ---------------------------------------------------------------------------------
 (12) _I2C1_MasterStartRx                                  0     0      0       0
 ---------------------------------------------------------------------------------
 (11) _I2C1_DO_IDLE                                        0     0      0       0
 ---------------------------------------------------------------------------------
 (11) _I2C1_DO_ADDRESS_NACK                                3     3      0   19547
                                             10 COMMON     3     3      0
                   Absolute function *
           _I2C1_CallbackReturnReset *
            _I2C1_CallbackReturnStop *
               _I2C1_DO_SEND_RESTART
                  _I2C1_DO_SEND_STOP
              _rd1RegCompleteHandler *
              _rd2RegCompleteHandler *
            _rdBlkRegCompleteHandler *
              _wr1RegCompleteHandler *
              _wr2RegCompleteHandler *
 ---------------------------------------------------------------------------------
 (12) _wr2RegCompleteHandler                               1     0      1    3852
                                              9 COMMON     1     0      1
                     _I2C1_SetBuffer
       _I2C1_SetDataCompleteCallback
 ---------------------------------------------------------------------------------
 (12) _wr1RegCompleteHandler                               1     0      1    3852
                                              9 COMMON     1     0      1
                     _I2C1_SetBuffer
       _I2C1_SetDataCompleteCallback
 ---------------------------------------------------------------------------------
 (12) _rdBlkRegCompleteHandler                             1     0      1    3874
                                              9 COMMON     1     0      1
                     _I2C1_SetBuffer
       _I2C1_SetDataCompleteCallback
 ---------------------------------------------------------------------------------
 (12) _rd2RegCompleteHandler                               1     0      1    3852
                                              9 COMMON     1     0      1
                     _I2C1_SetBuffer
       _I2C1_SetDataCompleteCallback
 ---------------------------------------------------------------------------------
 (12) _rd1RegCompleteHandler                               1     0      1    3852
                                              9 COMMON     1     0      1
                     _I2C1_SetBuffer
       _I2C1_SetDataCompleteCallback
 ---------------------------------------------------------------------------------
 (13) _I2C1_SetDataCompleteCallback                        4     1      3    2478
                                              5 COMMON     4     1      3
                   _I2C1_SetCallback
 ---------------------------------------------------------------------------------
 (8) _I2C1_SetCallback                                     5     2      3     914
                                              0 COMMON     5     2      3
 ---------------------------------------------------------------------------------
 (7) _I2C1_SetBuffer                                       4     2      2    1352
                                              0 COMMON     4     2      2
 ---------------------------------------------------------------------------------
 (12) _I2C1_DO_SEND_STOP                                   0     0      0       0
                    _I2C1_MasterStop
 ---------------------------------------------------------------------------------
 (13) _I2C1_MasterStop                                     0     0      0       0
 ---------------------------------------------------------------------------------
 (12) _I2C1_DO_SEND_RESTART                                0     0      0       0
           _I2C1_MasterEnableRestart
 ---------------------------------------------------------------------------------
 (13) _I2C1_MasterEnableRestart                            0     0      0       0
 ---------------------------------------------------------------------------------
 (12) _I2C1_CallbackReturnStop                             1     0      1       0
                                              9 COMMON     1     0      1
 ---------------------------------------------------------------------------------
 (12) _I2C1_CallbackReturnReset                            1     0      1     265
                                              9 COMMON     1     0      1
 ---------------------------------------------------------------------------------
 (12) Absolute function(Fake)                              1     0      1       0
 ---------------------------------------------------------------------------------
 (9) _I2C1_MasterStart                                     0     0      0       0
 ---------------------------------------------------------------------------------
 (7) _I2C1_Close                                           2     2      0      24
                                              0 COMMON     2     2      0
                _I2C1_MasterClearIrq
                   _I2C1_MasterClose
              _I2C1_MasterDisableIrq
 ---------------------------------------------------------------------------------
 (8) _I2C1_MasterDisableIrq                                0     0      0       0
 ---------------------------------------------------------------------------------
 (8) _I2C1_MasterClose                                     0     0      0       0
 ---------------------------------------------------------------------------------
 (8) _I2C1_MasterClearIrq                                  0     0      0       0
 ---------------------------------------------------------------------------------
 Estimated maximum stack depth 13
 ---------------------------------------------------------------------------------

 Call Graph Graphs:

 _main (ROOT)
   _LCD_Init
     _IO_Expander_Write
       _I2C1_WriteNBytes
         _I2C1_Close
           _I2C1_MasterClearIrq
           _I2C1_MasterClose
           _I2C1_MasterDisableIrq
         _I2C1_MasterWrite
           _I2C1_MasterOperation
             _I2C1_MasterStart
             _I2C1_Poller
               _I2C1_MasterFsm
                 _I2C1_DO_ADDRESS_NACK *
                   Absolute function(Fake) *
                   _I2C1_CallbackReturnReset *
                   _I2C1_CallbackReturnStop *
                   _I2C1_DO_SEND_RESTART *
                     _I2C1_MasterEnableRestart
                   _I2C1_DO_SEND_STOP *
                     _I2C1_MasterStop
                   _rd1RegCompleteHandler *
                     _I2C1_SetBuffer
                     _I2C1_SetDataCompleteCallback
                       _I2C1_SetCallback
                   _rd2RegCompleteHandler *
                     _I2C1_SetBuffer
                     _I2C1_SetDataCompleteCallback
                   _rdBlkRegCompleteHandler *
                     _I2C1_SetBuffer
                     _I2C1_SetDataCompleteCallback
                   _wr1RegCompleteHandler *
                     _I2C1_SetBuffer
                     _I2C1_SetDataCompleteCallback
                   _wr2RegCompleteHandler *
                     _I2C1_SetBuffer
                     _I2C1_SetDataCompleteCallback
                 _I2C1_DO_IDLE *
                 _I2C1_DO_RCEN *
                   _I2C1_MasterStartRx
                 _I2C1_DO_RESET *
                 _I2C1_DO_RX *
                   Absolute function(Fake) *
                   _I2C1_CallbackReturnReset *
                   _I2C1_CallbackReturnStop *
                   _I2C1_DO_RX_NACK_RESTART *
                     _I2C1_MasterSendNack
                   _I2C1_DO_RX_NACK_STOP *
                     _I2C1_MasterSendNack
                   _I2C1_MasterGetRxData *
                   _I2C1_MasterSendAck *
                   _rd1RegCompleteHandler *
                   _rd2RegCompleteHandler *
                   _rdBlkRegCompleteHandler *
                   _wr1RegCompleteHandler *
                   _wr2RegCompleteHandler *
                 _I2C1_DO_RX_ACK *
                   _I2C1_MasterSendAck
                 _I2C1_DO_RX_NACK_RESTART *
                 _I2C1_DO_RX_NACK_STOP *
                 _I2C1_DO_SEND_ADR_READ *
                   _I2C1_MasterSendTxData
                 _I2C1_DO_SEND_ADR_WRITE *
                   _I2C1_MasterSendTxData
                 _I2C1_DO_SEND_RESTART *
                 _I2C1_DO_SEND_RESTART_READ *
                   _I2C1_MasterEnableRestart
                 _I2C1_DO_SEND_RESTART_WRITE *
                   _I2C1_MasterEnableRestart
                 _I2C1_DO_SEND_STOP *
                 _I2C1_DO_TX *
                   Absolute function(Fake) *
                   _I2C1_CallbackReturnReset *
                   _I2C1_CallbackReturnStop *
                   _I2C1_DO_SEND_RESTART_READ *
                   _I2C1_DO_SEND_RESTART_WRITE *
                   _I2C1_DO_SEND_STOP *
                   _I2C1_MasterIsNack *
                   _I2C1_MasterSendTxData *
                   _rd1RegCompleteHandler *
                   _rd2RegCompleteHandler *
                   _rdBlkRegCompleteHandler *
                   _wr1RegCompleteHandler *
                   _wr2RegCompleteHandler *
                 _I2C1_DO_TX_EMPTY *
                   Absolute function(Fake) *
                   _I2C1_CallbackReturnReset *
                   _I2C1_CallbackReturnStop *
                   _I2C1_DO_SEND_RESTART *
                   _I2C1_DO_SEND_STOP *
                   _I2C1_MasterSetIrq *
                   _rd1RegCompleteHandler *
                   _rd2RegCompleteHandler *
                   _rdBlkRegCompleteHandler *
                   _wr1RegCompleteHandler *
                   _wr2RegCompleteHandler *
                 _I2C1_MasterClearIrq *
                 _I2C1_MasterIsNack *
               _I2C1_MasterWaitForEvent
         _I2C1_Open
           _I2C1_MasterClearIrq
           _I2C1_MasterOpen
         _I2C1_SetAddressNackCallback
           _I2C1_SetCallback
         _I2C1_SetBuffer
     _LCD_CMD
       _LCD_Write_4Bit
         _IO_Expander_Write
         _IO_pulseEnable
           _IO_Expander_Write
     _LCD_Write_4Bit
   _LCD_Set_Cursor
     _LCD_CMD
   _LCD_Write_String
     _LCD_Write_Char
       _LCD_Write_4Bit
   _SYSTEM_Initialize
     _I2C1_Initialize
     _OSCILLATOR_Initialize
     _PIN_MANAGER_Initialize
     _WDT_Initialize

 Address spaces:
Name               Size   Autos  Total    Cost      Usage
BIGRAM             170      0       0       0        0.0%
EEDATA             100      0       0       0        0.0%
NULL                 0      0       0       0        0.0%
CODE                 0      0       0       0        0.0%
BITCOMMON            E      0       0       1        0.0%
BITSFR0              0      0       0       1        0.0%
SFR0                 0      0       0       1        0.0%
COMMON               E      E       E       2      100.0%
BITSFR1              0      0       0       2        0.0%
SFR1                 0      0       0       2        0.0%
BITSFR2              0      0       0       3        0.0%
SFR2                 0      0       0       3        0.0%
STACK                0      0       0       3        0.0%
BITSFR3              0      0       0       4        0.0%
SFR3                 0      0       0       4        0.0%
ABS                  0      0      44       4        0.0%
BITBANK0            50      0       0       5        0.0%
BITSFR4              0      0       0       5        0.0%
SFR4                 0      0       0       5        0.0%
BANK0               50     16      36       6       67.5%
BITSFR5              0      0       0       6        0.0%
SFR5                 0      0       0       6        0.0%
BITBANK1            50      0       0       7        0.0%
BITSFR6              0      0       0       7        0.0%
SFR6                 0      0       0       7        0.0%
BANK1               50      0       0       8        0.0%
BITSFR7              0      0       0       8        0.0%
SFR7                 0      0       0       8        0.0%
BITBANK2            50      0       0       9        0.0%
BITSFR8              0      0       0       9        0.0%
SFR8                 0      0       0       9        0.0%
BANK2               50      0       0      10        0.0%
BITSFR9              0      0       0      10        0.0%
SFR9                 0      0       0      10        0.0%
BITBANK3            50      0       0      11        0.0%
BITSFR10             0      0       0      11        0.0%
SFR10                0      0       0      11        0.0%
BANK3               50      0       0      12        0.0%
BITSFR11             0      0       0      12        0.0%
SFR11                0      0       0      12        0.0%
BITBANK4            30      0       0      13        0.0%
BITSFR12             0      0       0      13        0.0%
SFR12                0      0       0      13        0.0%
BANK4               30      0       0      14        0.0%
BITSFR13             0      0       0      14        0.0%
SFR13                0      0       0      14        0.0%
BITSFR14             0      0       0      15        0.0%
SFR14                0      0       0      15        0.0%
DATA                 0      0      44      15        0.0%
BITSFR15             0      0       0      16        0.0%
SFR15                0      0       0      16        0.0%
BITSFR16             0      0       0      17        0.0%
SFR16                0      0       0      17        0.0%
BITSFR17             0      0       0      18        0.0%
SFR17                0      0       0      18        0.0%
BITSFR18             0      0       0      19        0.0%
SFR18                0      0       0      19        0.0%
BITSFR19             0      0       0      20        0.0%
SFR19                0      0       0      20        0.0%
BITSFR20             0      0       0      21        0.0%
SFR20                0      0       0      21        0.0%
BITSFR21             0      0       0      22        0.0%
SFR21                0      0       0      22        0.0%
BITSFR22             0      0       0      23        0.0%
SFR22                0      0       0      23        0.0%
BITSFR23             0      0       0      24        0.0%
SFR23                0      0       0      24        0.0%
BITSFR24             0      0       0      25        0.0%
SFR24                0      0       0      25        0.0%
BITSFR25             0      0       0      26        0.0%
SFR25                0      0       0      26        0.0%
BITSFR26             0      0       0      27        0.0%
SFR26                0      0       0      27        0.0%
BITSFR27             0      0       0      28        0.0%
SFR27                0      0       0      28        0.0%
BITSFR28             0      0       0      29        0.0%
SFR28                0      0       0      29        0.0%
BITSFR29             0      0       0      30        0.0%
SFR29                0      0       0      30        0.0%
BITSFR30             0      0       0      31        0.0%
SFR30                0      0       0      31        0.0%
BITSFR31             0      0       0      32        0.0%
SFR31                0      0       0      32        0.0%


Microchip Technology PIC Macro Assembler V2.35 build 20211206165544 
Symbol Table                                                                                   Thu Mar 31 09:26:09 2022

                                  l90 0436                                    l93 0447  
                                  l69 0583                                    l96 0458  
                                  l99 0425                                    _RS 003D  
                                 l102 04DB                                   l300 03AA  
                                 l303 03A1                                   l127 04AC  
                                 l240 0671                                   l241 0672  
                                 l306 0737                                   l322 0690  
                                 l323 06B8                                   l251 0516  
                                 l412 0333                                   l340 0609  
                                 l245 04F7                                   l309 0753  
                                 l237 03B3                                   l430 032D  
                                 l334 0392                                   l406 03DA  
                                 l415 0347                                   l264 0404  
                                 l424 0330                                   l409 0321  
                                 l433 037F                                   l361 0356  
                                 l257 0379                                   l273 03E7  
                                 l513 07F0                                   l418 032A  
                                 l370 0365                                   l290 03CD  
                                 l522 0414                                   l427 0327  
                                 l267 03C0                                   l284 055B  
                                 l436 033E                                   l460 0336  
                                 l364 035B                                   l516 046C  
                                 l373 036A                                   l525 0496  
                                 l454 0324                                   l358 0351  
                                 l294 05AE                                   l534 0535  
                                 l439 033A                                   l367 0360  
                                 l463 0380                                   l519 0480  
                                 l543 0638                                   l376 036F  
                                 l528 04C3                                   l457 031E  
                                 l393 0319                                   l297 034C  
                                 l385 05DA                                   l379 0374  
                                 l467 0385                                   l396 031B  
                                 l492 0342                                   l486 03F4  
                                 l489 0399                                   u400 053D  
                                 u401 053C                                   u410 03FB  
                                 u411 03FA                                   u420 0707  
                                 u500 0500                                   u421 0706  
                                 u501 04FF                                   u430 0750  
                                 u510 0507                                   u431 074F  
                                 u511 0506                                   u440 068B  
                                 u520 0641                                   u441 068A  
                                 u521 0640                                   u530 04E3  
                                 u450 0385                                   u531 04E2  
                                 u451 0384                                   u460 058C  
                                 u540 0568                                   u461 058B  
                                 u541 0567                                   u470 0594  
                                 u550 0583                                   u471 0593  
                                 u551 0582                                   u480 03CD  
                                 u481 03CC                                   u490 03D3  
                                 u491 03D2                                   u580 0535  
                                 u565 048D                                   u581 0534  
                                 u807 0771                                   u575 04BA  
                                 u817 0781                                   u907 047D  
                                 u827 078D                                   u837 0796  
                                 u847 079D                                   u857 07A7  
                                 u867 07B6                                   u877 07C7  
                                 u797 0760                                   u887 07D8  
                                 u897 07E9                __end_of_IO_pulseEnable 0481  
               ?_I2C1_MasterOperation 0070                                   wreg 0009  
              ?_I2C1_MasterSendTxData 0070                  _I2C1_DO_RX_NACK_STOP 0366  
           ?_I2C1_MasterEnableRestart 0070                  I2C1_SetBuffer@buffer 0073  
                     __end_of_LCD_CMD 0497                   LCD_Write_String@Str 004F  
                      _LCD_Set_Cursor 060A                                  l2100 054E  
             ??_rd2RegCompleteHandler 007A                                  l2110 0328  
                                l2102 03B4                                  l2112 032B  
                                l2104 03F6                                  l2120 0435  
                                l2200 035A                                  l2106 03FB  
                                l2210 031A                                  l2114 0337  
                                l2108 0403                                  l2140 0415  
                                l2116 0426                                  l2124 0437  
                                l2132 0448                                  l2204 0334  
                                l2220 034B                                  l2214 031C  
                                l2142 041D                                  l2118 042E  
                                l2126 043F                                  l2134 0450  
                                l2150 04DA                                  l2206 0318  
                                l2144 0424                                  l2128 0446  
                                l2136 0457                                  l2320 05E5  
                                l2312 05DB                                  l2216 0348  
                                l2224 03A2                                  l2232 039A  
                                l2240 06FF                                  l2304 038C  
                                l2160 034D                                  l2400 03D9  
                                l2154 037A                                  l2314 05DE  
                                l2330 05EB                                  l2218 034A  
                                l2226 03A4                                  l2234 039C  
                                l2306 038E                                  l2162 0350  
                                l2410 0500                                  l2404 0322  
                                l2148 04C4                                  l2324 05E7  
                                l2228 03A9                                  l2236 03A0  
                                l2260 0739                                  l2252 0710  
                                l2244 0708                                  l2308 0391  
                                l2172 035C                                  l2420 050E  
                                l2412 0501                                  l2500 046F  
                                l1620 049A                                  l2406 031F  
                                l2182 033B                                  l2158 0344  
                                l2318 05E2                                  l2262 0745  
                                l2166 0352                                  l2174 035F  
                                l2190 0366                                  l2342 0370  
                                l2350 05AF                                  l2422 0511  
                                l2414 0502                                  l2430 0641  
                                l2502 0474                                  l2510 040F  
                                l1630 03AB                                  l1622 049D  
                                l2096 0537                                  l2264 0750  
                                l2248 070C                                  l2280 068B  
                                l2168 0355                                  l2336 0361  
                                l2192 0369                                  l2184 036B  
                                l2344 0372                                  l2352 05B1  
                                l2416 0507                                  l2424 0514  
                                l2408 04FA                                  l2440 0655  
                                l2432 0645                                  l2504 047C  
                                l2512 0483                                  l2520 04B1  
                                l1632 03AD                                  l1640 0396  
                                l1624 049F                                  l2098 053D  
                                l2178 0331                                  l2266 0752  
                                l2258 0714                                  l2282 068E  
                                l2274 0673                                  l2338 0364  
                                l2186 036E                                  l2346 0373  
                                l2354 05B6                                  l2418 050A  
                                l2450 0665                                  l2442 0656  
                                l2434 0646                                  l2506 0407  
                                l2514 0484                                  l2530 0779  
                                l2522 0756                                  l1634 03AF  
                                l1642 0397                                  l1626 04A2  
                                l1618 0497                                  l2196 032E  
                                l2292 0696                                  l2276 067D  
                                l2364 05BE                                  l2380 0599  
                                l2372 0584                                  l2452 066A  
                                l2444 065B                                  l2436 0647  
                                l2428 063A                                  l2460 03DB  
                                l2508 040B                                  l2516 0489  
                                l2540 0795                                  l2532 077D  
                                l2524 0767                                  l1636 03B2  
                                l1628 04A7                                  l1644 033F  
                                l2470 04E4                                  l2382 0325  
                                l2278 0681                                  l2198 0357  
                                l2358 05BA                                  l2374 0587  
                                l2390 03C8                                  l2462 0375  
                                l2454 066D                                  l2446 065F  
                                l2438 0650                                  l2550 07AC  
                                l2542 0798                                  l2534 0785  
                                l2526 076B                                  l2518 04AF  
                                l1638 0393                                  l2472 04E8  
                                l2480 04F6                                  l2288 0692  
                                l2376 058C                                  l2384 03C1  
                                l2392 03CE                                  l2456 0670  
                                l2448 0664                                  l2560 07D2  
                                l2552 07B0                                  l2544 079C  
                                l2536 0789                                  l2528 0777  
                                l1656 03E8                                  l2474 04EB  
                                l2466 04DC                                  l2298 069A  
                                l2378 0594                                  l2386 03C2  
                                l2394 03D3                                  l2490 0571  
                                l2562 07DF                                  l2554 07BD  
                                l2546 079F                                  l2538 0791  
                                l2570 0525                                  l2810 06BC  
                                l2476 04EE                                  l2468 04E3  
                                l2388 03C5                                  l2396 03D4  
                                l2492 0578                                  l2484 055E  
                                l2564 07E3                                  l2556 07C1  
                                l2548 07A3                                  l2580 0619  
                                l2572 052A                                  l2820 06DE  
                                l2812 06C0                                  l2478 04F1  
                                l2398 03D6                                  l2494 057B  
                                l2486 055E                                  l2558 07CE  
                                l2582 061F                                  l2574 060C  
                                l2566 0517                                  l2822 06E5  
                                l2814 06C7                                  l2488 0568  
                                l2496 045B                                  l2576 060D  
                                l2584 0625                                  l2568 051B  
                                l2824 06ED                                  l2816 06CF  
                                l2808 06B9                                  l2498 0460  
                                l2578 0613                                  l2826 06F4  
                                l2818 06D6                                  l2940 05D2  
                                l2942 06AA                                  l2944 0729  
                                l2946 05FB                                  l2938 062D  
                                STR_1 0841                                  STR_2 0820  
                                STR_3 0851                                  STR_4 0831  
                                _LATA 010C                                  _LATB 010D  
                                _WPUA 020C                                  _WPUB 020D  
             ??_wr2RegCompleteHandler 007A                      ??_I2C1_MasterFsm 003E  
           ??_I2C1_CallbackReturnStop 007A                     ?_LCD_Write_String 004F  
                                _main 06B9                                  fsr0h 0005  
                                fsr1h 0007                                  indf0 0000  
                                fsr0l 0004                                  indf1 0001  
                                fsr1l 0006                                  btemp 007E  
                                start 0002                    ??_LCD_Write_String 0051  
                    ??_I2C1_SetBuffer 0072         I2C1_CallbackReturnStop@funPtr 0079  
                    __end_of_LCD_Init 07F1         __end_of_OSCILLATOR_Initialize 039A  
                   __end_of_I2C1_Open 0673                                 ?_main 0070  
          __end_of_i2c1_fsmStateTable 0820                       ?_IO_pulseEnable 0070  
                               _TRISA 008C                                 _TRISB 008D  
              ??_I2C1_MasterGetRxData 0070                 ?_I2C1_DO_RX_NACK_STOP 0070  
          ??_I2C1_CallbackReturnReset 007A                     ??_I2C1_MasterOpen 0070  
              __end_of_LCD_Set_Cursor 0639                     ??_I2C1_MasterStop 0070  
                   ??_I2C1_Initialize 0070                        _WDT_Initialize 033F  
                               pclath 000A                                 status 0003  
                               wtemp0 007E                          ??_I2C1_DO_RX 007A  
                        ??_I2C1_DO_TX 007A                ??_I2C1_DO_ADDRESS_NACK 007A  
                        ??_I2C1_Close 0070                        _LCD_Write_4Bit 0405  
                      _LCD_Write_Char 04AD                       __initialization 07F1  
                        __end_of_main 06FF                     _IO_Expander_Write 0459  
                  ?_IO_Expander_Write 0070                ??_I2C1_MasterOperation 007D  
                              ??_main 007E                             ??_LCD_CMD 004D  
                  __end_of_I2C1_DO_RX 06B9                    __end_of_I2C1_DO_TX 0754  
              __end_of_WDT_Initialize 0343                   ??_IO_Expander_Write 0047  
                     ?_LCD_Set_Cursor 004F                    __end_of_I2C1_Close 04F8  
            __end_of_I2C1_WriteNBytes 0584                                _ANSELA 018C  
                              _ANSELB 018D                                _BORCON 0116  
                              _OSCCON 0099                                _WDTCON 0097  
                   ?_I2C1_MasterClose 0070                __end_of_LCD_Write_4Bit 0415  
             ??_I2C1_MasterDisableIrq 0070                     ?_I2C1_MasterStart 0070  
                   ?_I2C1_MasterWrite 0070                __end_of_LCD_Write_Char 04C4  
            ?_I2C1_MasterWaitForEvent 0070                    ??_I2C1_MasterClose 0070  
                    _I2C1_DO_TX_EMPTY 05DB                    ??_I2C1_MasterStart 0070  
                  ??_I2C1_MasterWrite 007E             __end_of_IO_Expander_Write 046D  
            ??_I2C1_DO_SEND_ADR_WRITE 0071                     ?_I2C1_SetCallback 0070  
              ??_I2C1_DO_RX_NACK_STOP 0070                 _I2C1_DO_SEND_ADR_READ 03A2  
       ?_I2C1_SetDataCompleteCallback 0075                    ??_I2C1_SetCallback 0073  
                     ?_WDT_Initialize 0070               _I2C1_DO_RX_NACK_RESTART 036B  
                 I2C1_WriteNBytes@len 0044                     _SYSTEM_Initialize 03E8  
      I2C1_SetDataCompleteCallback@cb 0075               __end_of__initialization 07FD  
                           ?_LCD_Init 0070                       ?_LCD_Write_4Bit 0070  
     I2C1_MasterOperation@returnValue 0042                    ?_SYSTEM_Initialize 0070  
                     ?_LCD_Write_Char 0070                         ??_I2C1_Poller 007D  
             _rdBlkRegCompleteHandler 04C4                        __pcstackCOMMON 0070  
                        __pidataBANK0 0317                   ??_SYSTEM_Initialize 0070  
    __end_of_I2C1_MasterEnableRestart 032B          ??_I2C1_DO_SEND_RESTART_WRITE 0070  
             ??_I2C1_MasterSendTxData 0070                        _OPTION_REGbits 0095  
               __end_of_I2C1_DO_RESET 0375             __end_of_SYSTEM_Initialize 03F5  
                          __pbssBANK0 0020       __end_of_I2C1_MasterWaitForEvent 0386  
       __end_of_rd2RegCompleteHandler 0448                            ??_LCD_Init 004F  
                I2C1_Open@returnValue 0072         __end_of_wr2RegCompleteHandler 0426  
               _rd1RegCompleteHandler 0426                     _I2C1_DO_SEND_STOP 035C  
               _wr1RegCompleteHandler 0448                            __pmaintext 06B9  
            rd1RegCompleteHandler@ptr 0079                    ?_I2C1_DO_SEND_STOP 0070  
                     _I2C1_MasterOpen 03CE                       _I2C1_MasterStop 032B  
                     _I2C1_Initialize 03AB                      ??_IO_pulseEnable 007E  
                 __end_of_I2C1_Poller 03CE                               _APFCON0 011D  
                             _APFCON1 011E                ?_I2C1_DO_SEND_ADR_READ 0070  
                 ??_I2C1_DO_SEND_STOP 0070                               _LCD_CMD 0481  
                   _I2C1_MasterIsNack 037A                             _I2C1_Open 0639  
           ??_I2C1_DO_RX_NACK_RESTART 0070                               _OSCTUNE 0098  
                   _I2C1_MasterSetIrq 0334                               _SSP1ADD 0212  
                             _SSP1BUF 0211                    ?_I2C1_MasterIsNack 0070  
          ?_I2C1_DO_SEND_RESTART_READ 0070        ??_I2C1_SetDataCompleteCallback 0078  
                  ?_I2C1_MasterSetIrq 0070                    _i2c1_fsmStateTable 0800  
                 ??_I2C1_MasterIsNack 0070             __end_of_I2C1_DO_SEND_STOP 0361  
           ??_rdBlkRegCompleteHandler 007A                    I2C1_SetCallback@cb 0070  
                             _i2c_add 0054                   ??_I2C1_MasterSetIrq 0070  
                       ?_I2C1_DO_IDLE 0070                         ?_I2C1_DO_RCEN 0070  
                 IO_Expander_Write@dt 0049                      ??_LCD_Set_Cursor 0050  
                             __ptext1 03E8                               __ptext2 033F  
                             __ptext3 0497                               __ptext4 0393  
                             __ptext5 03AB                               __ptext6 0517  
                             __ptext7 04AD                               __ptext8 060A  
                             __ptext9 0754              _I2C1_MasterEnableRestart 0328  
           __end_of_I2C1_MasterIsNack 0380          ?_I2C1_SetAddressNackCallback 0075  
               _OSCILLATOR_Initialize 0393             __end_of_I2C1_MasterSetIrq 0337  
            __end_of_I2C1_DO_TX_EMPTY 060A              ??_PIN_MANAGER_Initialize 0070  
            wr1RegCompleteHandler@ptr 0079                            ?_I2C1_Open 0070  
            ?_I2C1_CallbackReturnStop 0079                     ?_I2C1_WriteNBytes 0043  
                             clrloop0 0387     __end_of_I2C1_DO_SEND_RESTART_READ 0352  
                end_of_initialization 07FD            __end_of_I2C1_MasterSendAck 033F  
                 _I2C1_MasterClearIrq 031C                    ??_I2C1_WriteNBytes 007E  
          __end_of_I2C1_MasterStartRx 0331                ?_rd1RegCompleteHandler 0079  
              _I2C1_DO_SEND_ADR_WRITE 039A          __end_of_I2C1_DO_SEND_RESTART 035C  
             __end_of_I2C1_MasterOpen 03DB                ?_wr1RegCompleteHandler 0079  
             __end_of_I2C1_MasterStop 032E               __end_of_I2C1_Initialize 03B4  
                         _I2C1_Poller 03C1             ?_I2C1_CallbackReturnReset 0079  
       __end_of_I2C1_MasterDisableIrq 0325                           _I2C1_Status 0020  
                 _I2C1_MasterSendNack 0337   __end_of_I2C1_SetAddressNackCallback 03E8  
         _I2C1_SetAddressNackCallback 03DB                  ?_I2C1_MasterClearIrq 0070  
                      ??_I2C1_DO_IDLE 0070                        ??_I2C1_DO_RCEN 0070  
  __end_of_I2C1_DO_SEND_RESTART_WRITE 0357            _I2C1_DO_SEND_RESTART_WRITE 0352  
                    ??_WDT_Initialize 0070       __end_of_rdBlkRegCompleteHandler 04DC  
                          LCD_CMD@CMD 004E                  I2C1_WriteNBytes@data 0043  
       ??_I2C1_SetAddressNackCallback 0078       I2C1_SetDataCompleteCallback@ptr 0077  
      I2C1_CallbackReturnReset@funPtr 0079                  ?_I2C1_MasterSendNack 0070  
                    ??_LCD_Write_4Bit 004B                     LCD_Write_String@i 0052  
                    ??_LCD_Write_Char 004D            rdBlkRegCompleteHandler@ptr 0079  
               ??_I2C1_MasterClearIrq 0070                    IO_pulseEnable@Data 004A  
                      _I2C1_DO_RX_ACK 0361                      _LCD_Write_String 0517  
              ?_OSCILLATOR_Initialize 0070       __end_of_I2C1_CallbackReturnStop 031A  
       __end_of_I2C1_MasterSendTxData 0348                   start_initialization 07F1  
                         ??_I2C1_Open 0070                 ??_I2C1_MasterSendNack 0070  
            I2C1_SetBuffer@bufferSize 0070                      ?_I2C1_MasterOpen 0070  
                    ?_I2C1_MasterStop 0070                      ?_I2C1_Initialize 0070  
              __end_of_I2C1_DO_RX_ACK 0366               ??_I2C1_DO_SEND_ADR_READ 0070  
                         __pdataBANK0 0055                      I2C1_Open@address 0071  
                            ?_LCD_CMD 0070                  _I2C1_DO_SEND_RESTART 0357  
                           ___latbits 0001                         __pcstackBANK0 003E  
         ??_I2C1_DO_SEND_RESTART_READ 0070                  __end_of_I2C1_DO_IDLE 034D  
                __end_of_I2C1_DO_RCEN 0393         I2C1_SetAddressNackCallback@cb 0075  
                           __pnvBANK0 0054                 _rd2RegCompleteHandler 0437  
              _PIN_MANAGER_Initialize 0497                 _wr2RegCompleteHandler 0415  
               IO_Expander_Write@Data 0048            ??_I2C1_MasterEnableRestart 0070  
            rd2RegCompleteHandler@ptr 0079                        _I2C1_MasterFsm 0584  
                     ?_I2C1_DO_RX_ACK 0070               _I2C1_MasterWaitForEvent 0380  
                    _I2C1_MasterClose 031F                        _I2C1_SetBuffer 03F5  
                    _I2C1_MasterStart 0325                      _I2C1_MasterWrite 0375  
               ?_I2C1_DO_SEND_RESTART 0070                     ?_I2C1_DO_TX_EMPTY 0070  
    __end_of_I2C1_CallbackReturnReset 031C                    ??_I2C1_DO_TX_EMPTY 007A  
             ??_rd1RegCompleteHandler 007A               ?_I2C1_DO_SEND_ADR_WRITE 0070  
           I2C1_MasterSendTxData@data 0070               ??_wr1RegCompleteHandler 007A  
                    _I2C1_SetCallback 0536                              _LCD_Init 0754  
                          _I2C1_DO_RX 0673                            _I2C1_DO_TX 06FF  
                           clear_ram0 0386                              _PIE1bits 0091  
                          _I2C1_Close 04DC                          ?_I2C1_Poller 0070  
              __end_of_I2C1_MasterFsm 05AF          __end_of_I2C1_MasterGetRxData 0334  
                            _PIR1bits 0011                              _PIR2bits 0012  
                  _I2C1_MasterSendAck 033B             _I2C1_DO_SEND_RESTART_READ 034D  
                            _SSP1CON1 0215                              _SSP1CON2 0216  
              __end_of_I2C1_SetBuffer 0405                              _SSP1STAT 0214  
__end_of_I2C1_SetDataCompleteCallback 03C1          _I2C1_SetDataCompleteCallback 03B4  
                  _I2C1_MasterStartRx 032E           ?_I2C1_DO_SEND_RESTART_WRITE 0070  
                 ?_I2C1_MasterSendAck 0070              ?_I2C1_DO_RX_NACK_RESTART 0070  
                 ?_I2C1_MasterStartRx 0070          __end_of_I2C1_DO_ADDRESS_NACK 05DB  
                  LCD_Write_4Bit@Data 004C              wr2RegCompleteHandler@ptr 0079  
      __end_of_I2C1_DO_SEND_ADR_WRITE 03A2                         _I2C1_DO_RESET 0370  
               I2C1_Close@returnValue 0071              ?_rdBlkRegCompleteHandler 0079  
                 I2C1_SetCallback@idx 0074                   I2C1_SetCallback@ptr 0072  
            __end_of_LCD_Write_String 0536                  ??_I2C1_MasterSendAck 0070  
              ?_rd2RegCompleteHandler 0079          __end_of_I2C1_MasterOperation 0517  
              ?_wr2RegCompleteHandler 0079                  ??_I2C1_MasterStartRx 0070  
                     ?_I2C1_MasterFsm 0070             ??_I2C1_MasterWaitForEvent 0070  
               _I2C1_MasterDisableIrq 0322               ??_OSCILLATOR_Initialize 0070  
                     ?_I2C1_SetBuffer 0070                ??_I2C1_DO_SEND_RESTART 0070  
                      ?_I2C1_DO_RESET 0070                              __ptext10 0481  
                            __ptext11 0405                              __ptext20 03C1  
                            __ptext12 046D                              __ptext21 0380  
                            __ptext13 0459                              __ptext30 0352  
                            __ptext22 0584                              __ptext14 055C  
                            __ptext31 034D                              __ptext23 05AF  
                            __ptext15 03DB                              __ptext40 037A  
                            __ptext32 038C                              __ptext24 0370  
                            __ptext16 0639                              __ptext41 0343  
                            __ptext33 0673                              __ptext25 036B  
                            __ptext17 03CE                              __ptext50 0437  
                            __ptext42 033B                              __ptext34 06FF  
                            __ptext26 0366                              __ptext18 0375  
                            __ptext51 0426                              __ptext43 0331  
                            __ptext35 039A                              __ptext27 0361  
                            __ptext19 04F8                              __ptext60 0322  
                            __ptext52 0415                              __ptext44 0337  
                            __ptext36 03A2                              __ptext28 035C  
                            __ptext61 031F                              __ptext53 03B4  
                            __ptext45 032E                              __ptext37 0348  
                            __ptext29 0357                              __ptext62 031C  
                            __ptext54 0536                              __ptext46 031A  
                            __ptext38 05DB                              __ptext55 03F5  
                            __ptext47 0318                              __ptext39 0334  
                            __ptext56 032B                              __ptext48 04C4  
                            __ptext57 0328                              __ptext49 0448  
                            __ptext58 0325                              __ptext59 04DC  
                        _SSP1CON1bits 0215                          _SSP1CON2bits 0216  
            _I2C1_CallbackReturnReset 031A                       _BackLight_State 0055  
                         ?_I2C1_DO_RX 0070                           ?_I2C1_DO_TX 0070  
         __end_of_I2C1_MasterClearIrq 031F          __end_of_I2C1_DO_RX_NACK_STOP 036B  
                         ?_I2C1_Close 0070       __end_of_I2C1_DO_RX_NACK_RESTART 0370  
            I2C1_MasterOperation@read 0041                          _SSP1STATbits 0214  
       __end_of_I2C1_DO_SEND_ADR_READ 03AB                          _I2C1_DO_IDLE 0348  
                        _I2C1_DO_RCEN 038C           __end_of_I2C1_MasterSendNack 033B  
      I2C1_SetAddressNackCallback@ptr 0077                    LCD_Write_Char@Data 004E  
                _I2C1_MasterGetRxData 0331                 _I2C1_MasterSendTxData 0343  
            __end_of_I2C1_MasterClose 0322               ?_PIN_MANAGER_Initialize 0070  
            __end_of_I2C1_MasterStart 0328              __end_of_I2C1_MasterWrite 037A  
             I2C1_WriteNBytes@address 0046                      ??_I2C1_DO_RX_ACK 0070  
             _I2C1_CallbackReturnStop 0318                  _I2C1_DO_ADDRESS_NACK 05AF  
              ?_I2C1_MasterDisableIrq 0070                      _I2C1_WriteNBytes 055C  
                     LCD_Init@I2C_Add 0051                         __pstringtext1 0800  
                       __pstringtext2 0820                         __pstringtext3 0831  
                       __pstringtext4 0841                         __pstringtext5 0851  
                       __pstringtext6 0000              __end_of_I2C1_SetCallback 055C  
                     ??_I2C1_DO_RESET 0070                  _I2C1_MasterOperation 04F8  
               ?_I2C1_MasterGetRxData 0070                        _IO_pulseEnable 046D  
                   LCD_Set_Cursor@COL 004F                     LCD_Set_Cursor@ROW 0052  
      __end_of_PIN_MANAGER_Initialize 04AD         __end_of_rd1RegCompleteHandler 0437  
       __end_of_wr1RegCompleteHandler 0459                 ?_I2C1_DO_ADDRESS_NACK 0070  
