

Microchip MPLAB XC8 Assembler V2.31 build 20201012212115 
                                                                                               Thu Dec 16 10:47:20 2021

Microchip MPLAB XC8 C Compiler v2.31 (Free license) build 20201012212115 Og1 
     1                           	processor	16F1827
     2                           	pagewidth 120
     3                           	opt	flic
     4                           	psect	cinit,global,class=CODE,merge=1,delta=2
     5                           	psect	bssBANK0,global,class=BANK0,space=1,delta=1,noexec
     6                           	psect	cstackCOMMON,global,class=COMMON,space=1,delta=1,noexec
     7                           	psect	cstackBANK0,global,class=BANK0,space=1,delta=1,noexec
     8                           	psect	maintext,global,class=CODE,merge=1,split=1,delta=2
     9                           	psect	text1,local,class=CODE,merge=1,delta=2
    10                           	psect	text2,local,class=CODE,merge=1,delta=2
    11                           	psect	text3,local,class=CODE,merge=1,delta=2
    12                           	psect	text4,local,class=CODE,merge=1,delta=2
    13                           	psect	text5,local,class=CODE,merge=1,delta=2
    14                           	psect	text6,local,class=CODE,merge=1,delta=2
    15                           	psect	text7,local,class=CODE,merge=1,delta=2
    16                           	psect	text8,local,class=CODE,merge=1,delta=2
    17                           	psect	text9,local,class=CODE,merge=1,delta=2
    18                           	psect	text10,local,class=CODE,merge=1,delta=2
    19                           	psect	text11,local,class=CODE,merge=1,delta=2
    20                           	psect	text12,local,class=CODE,merge=1,delta=2
    21                           	psect	text13,local,class=CODE,merge=1,delta=2
    22                           	psect	text14,local,class=CODE,merge=1,delta=2,group=1
    23                           	psect	text15,local,class=CODE,merge=1,delta=2,group=1
    24                           	psect	text16,local,class=CODE,merge=1,delta=2,group=1
    25                           	psect	text17,local,class=CODE,merge=1,delta=2,group=1
    26                           	psect	text18,local,class=CODE,merge=1,delta=2,group=1
    27                           	psect	text19,local,class=CODE,merge=1,delta=2,group=1
    28                           	psect	text20,local,class=CODE,merge=1,delta=2
    29                           	psect	text21,local,class=CODE,merge=1,delta=2
    30                           	psect	text22,local,class=CODE,merge=1,delta=2
    31                           	psect	text23,local,class=CODE,merge=1,delta=2
    32                           	psect	text24,local,class=CODE,merge=1,delta=2
    33                           	psect	text25,local,class=CODE,merge=1,delta=2
    34                           	psect	config,global,abs,ovrld,class=CONFIG,space=4,delta=2,noexec
    35                           	dabs	1,0x7E,2
    36  0000                     
    37                           ; Version 2.20
    38                           ; Generated 12/02/2020 GMT
    39                           ; 
    40                           ; Copyright © 2020, Microchip Technology Inc. and its subsidiaries ("Microchip")
    41                           ; All rights reserved.
    42                           ; 
    43                           ; This software is developed by Microchip Technology Inc. and its subsidiaries ("Microch
      +                          ip").
    44                           ; 
    45                           ; Redistribution and use in source and binary forms, with or without modification, are
    46                           ; permitted provided that the following conditions are met:
    47                           ; 
    48                           ;     1. Redistributions of source code must retain the above copyright notice, this lis
      +                          t of
    49                           ;        conditions and the following disclaimer.
    50                           ; 
    51                           ;     2. Redistributions in binary form must reproduce the above copyright notice, this 
      +                          list
    52                           ;        of conditions and the following disclaimer in the documentation and/or other
    53                           ;        materials provided with the distribution.
    54                           ; 
    55                           ;     3. Microchip's name may not be used to endorse or promote products derived from th
      +                          is
    56                           ;        software without specific prior written permission.
    57                           ; 
    58                           ; THIS SOFTWARE IS PROVIDED BY MICROCHIP "AS IS" AND ANY EXPRESS OR IMPLIED WARRANTIES,
    59                           ; INCLUDING, BUT NOT LIMITED TO, THE IMPLIED WARRANTIES OF MERCHANTABILITY AND FITNESS F
      +                          OR
    60                           ; PURPOSE ARE DISCLAIMED.  IN NO EVENT SHALL MICROCHIP BE LIABLE FOR ANY DIRECT, INDIREC
      +                          T,
    61                           ; INCIDENTAL, SPECIAL, EXEMPLARY, OR CONSEQUENTIAL DAMAGES (INCLUDING BUT NOT LIMITED TO
    62                           ; PROCUREMENT OF SUBSTITUTE GOODS OR SERVICES; LOSS OF USE, DATA OR PROFITS; OR BUSINESS
    63                           ; INTERRUPTION) HOWSOEVER CAUSED AND ON ANY THEORY OF LIABILITY, WHETHER IN CONTRACT, ST
      +                          RICT
    64                           ; LIABILITY, OR TORT (INCLUDING NEGLIGENCE OR OTHERWISE) ARISING IN ANY WAY OUT OF THE U
      +                          SE OF
    65                           ; THIS SOFTWARE, EVEN IF ADVISED OF THE POSSIBILITY OF SUCH DAMAGE.
    66                           ; 
    67                           ; 
    68                           ; Code-generator required, PIC16F1827 Definitions
    69                           ; 
    70                           ; SFR Addresses
    71  0000                     	;# 
    72  0001                     	;# 
    73  0002                     	;# 
    74  0003                     	;# 
    75  0004                     	;# 
    76  0005                     	;# 
    77  0006                     	;# 
    78  0007                     	;# 
    79  0008                     	;# 
    80  0009                     	;# 
    81  000A                     	;# 
    82  000B                     	;# 
    83  000C                     	;# 
    84  000D                     	;# 
    85  0011                     	;# 
    86  0012                     	;# 
    87  0013                     	;# 
    88  0014                     	;# 
    89  0015                     	;# 
    90  0016                     	;# 
    91  0016                     	;# 
    92  0017                     	;# 
    93  0018                     	;# 
    94  0019                     	;# 
    95  001A                     	;# 
    96  001B                     	;# 
    97  001C                     	;# 
    98  001E                     	;# 
    99  001F                     	;# 
   100  008C                     	;# 
   101  008D                     	;# 
   102  0091                     	;# 
   103  0092                     	;# 
   104  0093                     	;# 
   105  0094                     	;# 
   106  0095                     	;# 
   107  0096                     	;# 
   108  0097                     	;# 
   109  0098                     	;# 
   110  0099                     	;# 
   111  009A                     	;# 
   112  009B                     	;# 
   113  009B                     	;# 
   114  009C                     	;# 
   115  009D                     	;# 
   116  009E                     	;# 
   117  010C                     	;# 
   118  010D                     	;# 
   119  0111                     	;# 
   120  0112                     	;# 
   121  0113                     	;# 
   122  0114                     	;# 
   123  0115                     	;# 
   124  0116                     	;# 
   125  0117                     	;# 
   126  0118                     	;# 
   127  0119                     	;# 
   128  011A                     	;# 
   129  011B                     	;# 
   130  011D                     	;# 
   131  011E                     	;# 
   132  018C                     	;# 
   133  018D                     	;# 
   134  0191                     	;# 
   135  0191                     	;# 
   136  0192                     	;# 
   137  0193                     	;# 
   138  0193                     	;# 
   139  0193                     	;# 
   140  0194                     	;# 
   141  0195                     	;# 
   142  0196                     	;# 
   143  0199                     	;# 
   144  019A                     	;# 
   145  019B                     	;# 
   146  019B                     	;# 
   147  019B                     	;# 
   148  019B                     	;# 
   149  019C                     	;# 
   150  019C                     	;# 
   151  019D                     	;# 
   152  019E                     	;# 
   153  019F                     	;# 
   154  020C                     	;# 
   155  020D                     	;# 
   156  0211                     	;# 
   157  0211                     	;# 
   158  0212                     	;# 
   159  0212                     	;# 
   160  0213                     	;# 
   161  0213                     	;# 
   162  0214                     	;# 
   163  0214                     	;# 
   164  0215                     	;# 
   165  0215                     	;# 
   166  0215                     	;# 
   167  0216                     	;# 
   168  0216                     	;# 
   169  0217                     	;# 
   170  0217                     	;# 
   171  0219                     	;# 
   172  021A                     	;# 
   173  021B                     	;# 
   174  021C                     	;# 
   175  021D                     	;# 
   176  021E                     	;# 
   177  021F                     	;# 
   178  0291                     	;# 
   179  0291                     	;# 
   180  0292                     	;# 
   181  0293                     	;# 
   182  0294                     	;# 
   183  0295                     	;# 
   184  0295                     	;# 
   185  0296                     	;# 
   186  0298                     	;# 
   187  0298                     	;# 
   188  0299                     	;# 
   189  029A                     	;# 
   190  029B                     	;# 
   191  029C                     	;# 
   192  029C                     	;# 
   193  029D                     	;# 
   194  029E                     	;# 
   195  029E                     	;# 
   196  0311                     	;# 
   197  0311                     	;# 
   198  0312                     	;# 
   199  0313                     	;# 
   200  0318                     	;# 
   201  0318                     	;# 
   202  0319                     	;# 
   203  031A                     	;# 
   204  0394                     	;# 
   205  0395                     	;# 
   206  0396                     	;# 
   207  039A                     	;# 
   208  039C                     	;# 
   209  039D                     	;# 
   210  039E                     	;# 
   211  039F                     	;# 
   212  0415                     	;# 
   213  0416                     	;# 
   214  0417                     	;# 
   215  041C                     	;# 
   216  041D                     	;# 
   217  041E                     	;# 
   218  0FE4                     	;# 
   219  0FE5                     	;# 
   220  0FE6                     	;# 
   221  0FE7                     	;# 
   222  0FE8                     	;# 
   223  0FE9                     	;# 
   224  0FEA                     	;# 
   225  0FEB                     	;# 
   226  0FED                     	;# 
   227  0FEE                     	;# 
   228  0FEF                     	;# 
   229  0000                     	;# 
   230  0001                     	;# 
   231  0002                     	;# 
   232  0003                     	;# 
   233  0004                     	;# 
   234  0005                     	;# 
   235  0006                     	;# 
   236  0007                     	;# 
   237  0008                     	;# 
   238  0009                     	;# 
   239  000A                     	;# 
   240  000B                     	;# 
   241  000C                     	;# 
   242  000D                     	;# 
   243  0011                     	;# 
   244  0012                     	;# 
   245  0013                     	;# 
   246  0014                     	;# 
   247  0015                     	;# 
   248  0016                     	;# 
   249  0016                     	;# 
   250  0017                     	;# 
   251  0018                     	;# 
   252  0019                     	;# 
   253  001A                     	;# 
   254  001B                     	;# 
   255  001C                     	;# 
   256  001E                     	;# 
   257  001F                     	;# 
   258  008C                     	;# 
   259  008D                     	;# 
   260  0091                     	;# 
   261  0092                     	;# 
   262  0093                     	;# 
   263  0094                     	;# 
   264  0095                     	;# 
   265  0096                     	;# 
   266  0097                     	;# 
   267  0098                     	;# 
   268  0099                     	;# 
   269  009A                     	;# 
   270  009B                     	;# 
   271  009B                     	;# 
   272  009C                     	;# 
   273  009D                     	;# 
   274  009E                     	;# 
   275  010C                     	;# 
   276  010D                     	;# 
   277  0111                     	;# 
   278  0112                     	;# 
   279  0113                     	;# 
   280  0114                     	;# 
   281  0115                     	;# 
   282  0116                     	;# 
   283  0117                     	;# 
   284  0118                     	;# 
   285  0119                     	;# 
   286  011A                     	;# 
   287  011B                     	;# 
   288  011D                     	;# 
   289  011E                     	;# 
   290  018C                     	;# 
   291  018D                     	;# 
   292  0191                     	;# 
   293  0191                     	;# 
   294  0192                     	;# 
   295  0193                     	;# 
   296  0193                     	;# 
   297  0193                     	;# 
   298  0194                     	;# 
   299  0195                     	;# 
   300  0196                     	;# 
   301  0199                     	;# 
   302  019A                     	;# 
   303  019B                     	;# 
   304  019B                     	;# 
   305  019B                     	;# 
   306  019B                     	;# 
   307  019C                     	;# 
   308  019C                     	;# 
   309  019D                     	;# 
   310  019E                     	;# 
   311  019F                     	;# 
   312  020C                     	;# 
   313  020D                     	;# 
   314  0211                     	;# 
   315  0211                     	;# 
   316  0212                     	;# 
   317  0212                     	;# 
   318  0213                     	;# 
   319  0213                     	;# 
   320  0214                     	;# 
   321  0214                     	;# 
   322  0215                     	;# 
   323  0215                     	;# 
   324  0215                     	;# 
   325  0216                     	;# 
   326  0216                     	;# 
   327  0217                     	;# 
   328  0217                     	;# 
   329  0219                     	;# 
   330  021A                     	;# 
   331  021B                     	;# 
   332  021C                     	;# 
   333  021D                     	;# 
   334  021E                     	;# 
   335  021F                     	;# 
   336  0291                     	;# 
   337  0291                     	;# 
   338  0292                     	;# 
   339  0293                     	;# 
   340  0294                     	;# 
   341  0295                     	;# 
   342  0295                     	;# 
   343  0296                     	;# 
   344  0298                     	;# 
   345  0298                     	;# 
   346  0299                     	;# 
   347  029A                     	;# 
   348  029B                     	;# 
   349  029C                     	;# 
   350  029C                     	;# 
   351  029D                     	;# 
   352  029E                     	;# 
   353  029E                     	;# 
   354  0311                     	;# 
   355  0311                     	;# 
   356  0312                     	;# 
   357  0313                     	;# 
   358  0318                     	;# 
   359  0318                     	;# 
   360  0319                     	;# 
   361  031A                     	;# 
   362  0394                     	;# 
   363  0395                     	;# 
   364  0396                     	;# 
   365  039A                     	;# 
   366  039C                     	;# 
   367  039D                     	;# 
   368  039E                     	;# 
   369  039F                     	;# 
   370  0415                     	;# 
   371  0416                     	;# 
   372  0417                     	;# 
   373  041C                     	;# 
   374  041D                     	;# 
   375  041E                     	;# 
   376  0FE4                     	;# 
   377  0FE5                     	;# 
   378  0FE6                     	;# 
   379  0FE7                     	;# 
   380  0FE8                     	;# 
   381  0FE9                     	;# 
   382  0FEA                     	;# 
   383  0FEB                     	;# 
   384  0FED                     	;# 
   385  0FEE                     	;# 
   386  0FEF                     	;# 
   387  0000                     	;# 
   388  0001                     	;# 
   389  0002                     	;# 
   390  0003                     	;# 
   391  0004                     	;# 
   392  0005                     	;# 
   393  0006                     	;# 
   394  0007                     	;# 
   395  0008                     	;# 
   396  0009                     	;# 
   397  000A                     	;# 
   398  000B                     	;# 
   399  000C                     	;# 
   400  000D                     	;# 
   401  0011                     	;# 
   402  0012                     	;# 
   403  0013                     	;# 
   404  0014                     	;# 
   405  0015                     	;# 
   406  0016                     	;# 
   407  0016                     	;# 
   408  0017                     	;# 
   409  0018                     	;# 
   410  0019                     	;# 
   411  001A                     	;# 
   412  001B                     	;# 
   413  001C                     	;# 
   414  001E                     	;# 
   415  001F                     	;# 
   416  008C                     	;# 
   417  008D                     	;# 
   418  0091                     	;# 
   419  0092                     	;# 
   420  0093                     	;# 
   421  0094                     	;# 
   422  0095                     	;# 
   423  0096                     	;# 
   424  0097                     	;# 
   425  0098                     	;# 
   426  0099                     	;# 
   427  009A                     	;# 
   428  009B                     	;# 
   429  009B                     	;# 
   430  009C                     	;# 
   431  009D                     	;# 
   432  009E                     	;# 
   433  010C                     	;# 
   434  010D                     	;# 
   435  0111                     	;# 
   436  0112                     	;# 
   437  0113                     	;# 
   438  0114                     	;# 
   439  0115                     	;# 
   440  0116                     	;# 
   441  0117                     	;# 
   442  0118                     	;# 
   443  0119                     	;# 
   444  011A                     	;# 
   445  011B                     	;# 
   446  011D                     	;# 
   447  011E                     	;# 
   448  018C                     	;# 
   449  018D                     	;# 
   450  0191                     	;# 
   451  0191                     	;# 
   452  0192                     	;# 
   453  0193                     	;# 
   454  0193                     	;# 
   455  0193                     	;# 
   456  0194                     	;# 
   457  0195                     	;# 
   458  0196                     	;# 
   459  0199                     	;# 
   460  019A                     	;# 
   461  019B                     	;# 
   462  019B                     	;# 
   463  019B                     	;# 
   464  019B                     	;# 
   465  019C                     	;# 
   466  019C                     	;# 
   467  019D                     	;# 
   468  019E                     	;# 
   469  019F                     	;# 
   470  020C                     	;# 
   471  020D                     	;# 
   472  0211                     	;# 
   473  0211                     	;# 
   474  0212                     	;# 
   475  0212                     	;# 
   476  0213                     	;# 
   477  0213                     	;# 
   478  0214                     	;# 
   479  0214                     	;# 
   480  0215                     	;# 
   481  0215                     	;# 
   482  0215                     	;# 
   483  0216                     	;# 
   484  0216                     	;# 
   485  0217                     	;# 
   486  0217                     	;# 
   487  0219                     	;# 
   488  021A                     	;# 
   489  021B                     	;# 
   490  021C                     	;# 
   491  021D                     	;# 
   492  021E                     	;# 
   493  021F                     	;# 
   494  0291                     	;# 
   495  0291                     	;# 
   496  0292                     	;# 
   497  0293                     	;# 
   498  0294                     	;# 
   499  0295                     	;# 
   500  0295                     	;# 
   501  0296                     	;# 
   502  0298                     	;# 
   503  0298                     	;# 
   504  0299                     	;# 
   505  029A                     	;# 
   506  029B                     	;# 
   507  029C                     	;# 
   508  029C                     	;# 
   509  029D                     	;# 
   510  029E                     	;# 
   511  029E                     	;# 
   512  0311                     	;# 
   513  0311                     	;# 
   514  0312                     	;# 
   515  0313                     	;# 
   516  0318                     	;# 
   517  0318                     	;# 
   518  0319                     	;# 
   519  031A                     	;# 
   520  0394                     	;# 
   521  0395                     	;# 
   522  0396                     	;# 
   523  039A                     	;# 
   524  039C                     	;# 
   525  039D                     	;# 
   526  039E                     	;# 
   527  039F                     	;# 
   528  0415                     	;# 
   529  0416                     	;# 
   530  0417                     	;# 
   531  041C                     	;# 
   532  041D                     	;# 
   533  041E                     	;# 
   534  0FE4                     	;# 
   535  0FE5                     	;# 
   536  0FE6                     	;# 
   537  0FE7                     	;# 
   538  0FE8                     	;# 
   539  0FE9                     	;# 
   540  0FEA                     	;# 
   541  0FEB                     	;# 
   542  0FED                     	;# 
   543  0FEE                     	;# 
   544  0FEF                     	;# 
   545  0000                     	;# 
   546  0001                     	;# 
   547  0002                     	;# 
   548  0003                     	;# 
   549  0004                     	;# 
   550  0005                     	;# 
   551  0006                     	;# 
   552  0007                     	;# 
   553  0008                     	;# 
   554  0009                     	;# 
   555  000A                     	;# 
   556  000B                     	;# 
   557  000C                     	;# 
   558  000D                     	;# 
   559  0011                     	;# 
   560  0012                     	;# 
   561  0013                     	;# 
   562  0014                     	;# 
   563  0015                     	;# 
   564  0016                     	;# 
   565  0016                     	;# 
   566  0017                     	;# 
   567  0018                     	;# 
   568  0019                     	;# 
   569  001A                     	;# 
   570  001B                     	;# 
   571  001C                     	;# 
   572  001E                     	;# 
   573  001F                     	;# 
   574  008C                     	;# 
   575  008D                     	;# 
   576  0091                     	;# 
   577  0092                     	;# 
   578  0093                     	;# 
   579  0094                     	;# 
   580  0095                     	;# 
   581  0096                     	;# 
   582  0097                     	;# 
   583  0098                     	;# 
   584  0099                     	;# 
   585  009A                     	;# 
   586  009B                     	;# 
   587  009B                     	;# 
   588  009C                     	;# 
   589  009D                     	;# 
   590  009E                     	;# 
   591  010C                     	;# 
   592  010D                     	;# 
   593  0111                     	;# 
   594  0112                     	;# 
   595  0113                     	;# 
   596  0114                     	;# 
   597  0115                     	;# 
   598  0116                     	;# 
   599  0117                     	;# 
   600  0118                     	;# 
   601  0119                     	;# 
   602  011A                     	;# 
   603  011B                     	;# 
   604  011D                     	;# 
   605  011E                     	;# 
   606  018C                     	;# 
   607  018D                     	;# 
   608  0191                     	;# 
   609  0191                     	;# 
   610  0192                     	;# 
   611  0193                     	;# 
   612  0193                     	;# 
   613  0193                     	;# 
   614  0194                     	;# 
   615  0195                     	;# 
   616  0196                     	;# 
   617  0199                     	;# 
   618  019A                     	;# 
   619  019B                     	;# 
   620  019B                     	;# 
   621  019B                     	;# 
   622  019B                     	;# 
   623  019C                     	;# 
   624  019C                     	;# 
   625  019D                     	;# 
   626  019E                     	;# 
   627  019F                     	;# 
   628  020C                     	;# 
   629  020D                     	;# 
   630  0211                     	;# 
   631  0211                     	;# 
   632  0212                     	;# 
   633  0212                     	;# 
   634  0213                     	;# 
   635  0213                     	;# 
   636  0214                     	;# 
   637  0214                     	;# 
   638  0215                     	;# 
   639  0215                     	;# 
   640  0215                     	;# 
   641  0216                     	;# 
   642  0216                     	;# 
   643  0217                     	;# 
   644  0217                     	;# 
   645  0219                     	;# 
   646  021A                     	;# 
   647  021B                     	;# 
   648  021C                     	;# 
   649  021D                     	;# 
   650  021E                     	;# 
   651  021F                     	;# 
   652  0291                     	;# 
   653  0291                     	;# 
   654  0292                     	;# 
   655  0293                     	;# 
   656  0294                     	;# 
   657  0295                     	;# 
   658  0295                     	;# 
   659  0296                     	;# 
   660  0298                     	;# 
   661  0298                     	;# 
   662  0299                     	;# 
   663  029A                     	;# 
   664  029B                     	;# 
   665  029C                     	;# 
   666  029C                     	;# 
   667  029D                     	;# 
   668  029E                     	;# 
   669  029E                     	;# 
   670  0311                     	;# 
   671  0311                     	;# 
   672  0312                     	;# 
   673  0313                     	;# 
   674  0318                     	;# 
   675  0318                     	;# 
   676  0319                     	;# 
   677  031A                     	;# 
   678  0394                     	;# 
   679  0395                     	;# 
   680  0396                     	;# 
   681  039A                     	;# 
   682  039C                     	;# 
   683  039D                     	;# 
   684  039E                     	;# 
   685  039F                     	;# 
   686  0415                     	;# 
   687  0416                     	;# 
   688  0417                     	;# 
   689  041C                     	;# 
   690  041D                     	;# 
   691  041E                     	;# 
   692  0FE4                     	;# 
   693  0FE5                     	;# 
   694  0FE6                     	;# 
   695  0FE7                     	;# 
   696  0FE8                     	;# 
   697  0FE9                     	;# 
   698  0FEA                     	;# 
   699  0FEB                     	;# 
   700  0FED                     	;# 
   701  0FEE                     	;# 
   702  0FEF                     	;# 
   703  0000                     	;# 
   704  0001                     	;# 
   705  0002                     	;# 
   706  0003                     	;# 
   707  0004                     	;# 
   708  0005                     	;# 
   709  0006                     	;# 
   710  0007                     	;# 
   711  0008                     	;# 
   712  0009                     	;# 
   713  000A                     	;# 
   714  000B                     	;# 
   715  000C                     	;# 
   716  000D                     	;# 
   717  0011                     	;# 
   718  0012                     	;# 
   719  0013                     	;# 
   720  0014                     	;# 
   721  0015                     	;# 
   722  0016                     	;# 
   723  0016                     	;# 
   724  0017                     	;# 
   725  0018                     	;# 
   726  0019                     	;# 
   727  001A                     	;# 
   728  001B                     	;# 
   729  001C                     	;# 
   730  001E                     	;# 
   731  001F                     	;# 
   732  008C                     	;# 
   733  008D                     	;# 
   734  0091                     	;# 
   735  0092                     	;# 
   736  0093                     	;# 
   737  0094                     	;# 
   738  0095                     	;# 
   739  0096                     	;# 
   740  0097                     	;# 
   741  0098                     	;# 
   742  0099                     	;# 
   743  009A                     	;# 
   744  009B                     	;# 
   745  009B                     	;# 
   746  009C                     	;# 
   747  009D                     	;# 
   748  009E                     	;# 
   749  010C                     	;# 
   750  010D                     	;# 
   751  0111                     	;# 
   752  0112                     	;# 
   753  0113                     	;# 
   754  0114                     	;# 
   755  0115                     	;# 
   756  0116                     	;# 
   757  0117                     	;# 
   758  0118                     	;# 
   759  0119                     	;# 
   760  011A                     	;# 
   761  011B                     	;# 
   762  011D                     	;# 
   763  011E                     	;# 
   764  018C                     	;# 
   765  018D                     	;# 
   766  0191                     	;# 
   767  0191                     	;# 
   768  0192                     	;# 
   769  0193                     	;# 
   770  0193                     	;# 
   771  0193                     	;# 
   772  0194                     	;# 
   773  0195                     	;# 
   774  0196                     	;# 
   775  0199                     	;# 
   776  019A                     	;# 
   777  019B                     	;# 
   778  019B                     	;# 
   779  019B                     	;# 
   780  019B                     	;# 
   781  019C                     	;# 
   782  019C                     	;# 
   783  019D                     	;# 
   784  019E                     	;# 
   785  019F                     	;# 
   786  020C                     	;# 
   787  020D                     	;# 
   788  0211                     	;# 
   789  0211                     	;# 
   790  0212                     	;# 
   791  0212                     	;# 
   792  0213                     	;# 
   793  0213                     	;# 
   794  0214                     	;# 
   795  0214                     	;# 
   796  0215                     	;# 
   797  0215                     	;# 
   798  0215                     	;# 
   799  0216                     	;# 
   800  0216                     	;# 
   801  0217                     	;# 
   802  0217                     	;# 
   803  0219                     	;# 
   804  021A                     	;# 
   805  021B                     	;# 
   806  021C                     	;# 
   807  021D                     	;# 
   808  021E                     	;# 
   809  021F                     	;# 
   810  0291                     	;# 
   811  0291                     	;# 
   812  0292                     	;# 
   813  0293                     	;# 
   814  0294                     	;# 
   815  0295                     	;# 
   816  0295                     	;# 
   817  0296                     	;# 
   818  0298                     	;# 
   819  0298                     	;# 
   820  0299                     	;# 
   821  029A                     	;# 
   822  029B                     	;# 
   823  029C                     	;# 
   824  029C                     	;# 
   825  029D                     	;# 
   826  029E                     	;# 
   827  029E                     	;# 
   828  0311                     	;# 
   829  0311                     	;# 
   830  0312                     	;# 
   831  0313                     	;# 
   832  0318                     	;# 
   833  0318                     	;# 
   834  0319                     	;# 
   835  031A                     	;# 
   836  0394                     	;# 
   837  0395                     	;# 
   838  0396                     	;# 
   839  039A                     	;# 
   840  039C                     	;# 
   841  039D                     	;# 
   842  039E                     	;# 
   843  039F                     	;# 
   844  0415                     	;# 
   845  0416                     	;# 
   846  0417                     	;# 
   847  041C                     	;# 
   848  041D                     	;# 
   849  041E                     	;# 
   850  0FE4                     	;# 
   851  0FE5                     	;# 
   852  0FE6                     	;# 
   853  0FE7                     	;# 
   854  0FE8                     	;# 
   855  0FE9                     	;# 
   856  0FEA                     	;# 
   857  0FEB                     	;# 
   858  0FED                     	;# 
   859  0FEE                     	;# 
   860  0FEF                     	;# 
   861  000C                     _PORTAbits	set	12
   862  000D                     _PORTB	set	13
   863  0097                     _WDTCON	set	151
   864  0098                     _OSCTUNE	set	152
   865  0099                     _OSCCON	set	153
   866  009D                     _ADCON0bits	set	157
   867  009D                     _ADCON0	set	157
   868  009C                     _ADRESH	set	156
   869  009E                     _ADCON1	set	158
   870  0095                     _OPTION_REGbits	set	149
   871  008D                     _TRISB	set	141
   872  008C                     _TRISA	set	140
   873  009B                     _ADRESL	set	155
   874  0116                     _BORCON	set	278
   875  011E                     _APFCON1	set	286
   876  011D                     _APFCON0	set	285
   877  010D                     _LATB	set	269
   878  010C                     _LATA	set	268
   879  018C                     _ANSELA	set	396
   880  018D                     _ANSELB	set	397
   881  020C                     _WPUA	set	524
   882  020D                     _WPUB	set	525
   883                           
   884                           	psect	cinit
   885  07F0                     start_initialization:	
   886                           ; #config settings
   887                           
   888  07F0                     __initialization:
   889                           
   890                           ; Clear objects allocated to BANK0
   891  07F0  0020               	movlb	0	; select bank0
   892  07F1  01C8               	clrf	__pbssBANK0& (0+127)
   893  07F2  01C9               	clrf	(__pbssBANK0+1)& (0+127)
   894  07F3  01CA               	clrf	(__pbssBANK0+2)& (0+127)
   895  07F4  01CB               	clrf	(__pbssBANK0+3)& (0+127)
   896  07F5  01CC               	clrf	(__pbssBANK0+4)& (0+127)
   897  07F6  01CD               	clrf	(__pbssBANK0+5)& (0+127)
   898  07F7  01CE               	clrf	(__pbssBANK0+6)& (0+127)
   899  07F8  01CF               	clrf	(__pbssBANK0+7)& (0+127)
   900  07F9  01D0               	clrf	(__pbssBANK0+8)& (0+127)
   901  07FA  01D1               	clrf	(__pbssBANK0+9)& (0+127)
   902  07FB  01D2               	clrf	(__pbssBANK0+10)& (0+127)
   903  07FC  01D3               	clrf	(__pbssBANK0+11)& (0+127)
   904  07FD                     end_of_initialization:	
   905                           ;End of C runtime variable initialization code
   906                           
   907  07FD                     __end_of__initialization:
   908  07FD  0020               	movlb	0
   909  07FE  3183  2B7F         	ljmp	_main	;jump to C main() function
   910                           
   911                           	psect	bssBANK0
   912  0048                     __pbssBANK0:
   913  0048                     _resto:
   914  0048                     	ds	2
   915  004A                     _c:
   916  004A                     	ds	2
   917  004C                     _b:
   918  004C                     	ds	2
   919  004E                     _a:
   920  004E                     	ds	2
   921  0050                     _risultato:
   922  0050                     	ds	2
   923  0052                     _ADC_InterruptHandler:
   924  0052                     	ds	2
   925                           
   926                           	psect	cstackCOMMON
   927  0070                     __pcstackCOMMON:
   928  0070                     ?_OSCILLATOR_Initialize:
   929  0070                     ??_OSCILLATOR_Initialize:	
   930                           ; 1 bytes @ 0x0
   931                           
   932  0070                     ?_WDT_Initialize:	
   933                           ; 1 bytes @ 0x0
   934                           
   935  0070                     ??_WDT_Initialize:	
   936                           ; 1 bytes @ 0x0
   937                           
   938  0070                     ?_PIN_MANAGER_Initialize:	
   939                           ; 1 bytes @ 0x0
   940                           
   941  0070                     ??_PIN_MANAGER_Initialize:	
   942                           ; 1 bytes @ 0x0
   943                           
   944  0070                     ?_ADC_Initialize:	
   945                           ; 1 bytes @ 0x0
   946                           
   947  0070                     ??_ADC_Initialize:	
   948                           ; 1 bytes @ 0x0
   949                           
   950  0070                     ?_ADC_StartConversion:	
   951                           ; 1 bytes @ 0x0
   952                           
   953  0070                     ??_ADC_StartConversion:	
   954                           ; 1 bytes @ 0x0
   955                           
   956  0070                     ?_SYSTEM_Initialize:	
   957                           ; 1 bytes @ 0x0
   958                           
   959  0070                     ??_SYSTEM_Initialize:	
   960                           ; 1 bytes @ 0x0
   961                           
   962  0070                     ?_p0:	
   963                           ; 1 bytes @ 0x0
   964                           
   965  0070                     ??_p0:	
   966                           ; 1 bytes @ 0x0
   967                           
   968  0070                     ?_p1:	
   969                           ; 1 bytes @ 0x0
   970                           
   971  0070                     ??_p1:	
   972                           ; 1 bytes @ 0x0
   973                           
   974  0070                     ?_p2:	
   975                           ; 1 bytes @ 0x0
   976                           
   977  0070                     ??_p2:	
   978                           ; 1 bytes @ 0x0
   979                           
   980  0070                     ?_p3:	
   981                           ; 1 bytes @ 0x0
   982                           
   983  0070                     ??_p3:	
   984                           ; 1 bytes @ 0x0
   985                           
   986  0070                     ?_p4:	
   987                           ; 1 bytes @ 0x0
   988                           
   989  0070                     ??_p4:	
   990                           ; 1 bytes @ 0x0
   991                           
   992  0070                     ?_p5:	
   993                           ; 1 bytes @ 0x0
   994                           
   995  0070                     ??_p5:	
   996                           ; 1 bytes @ 0x0
   997                           
   998  0070                     ?_p6:	
   999                           ; 1 bytes @ 0x0
  1000                           
  1001  0070                     ??_p6:	
  1002                           ; 1 bytes @ 0x0
  1003                           
  1004  0070                     ?_p7:	
  1005                           ; 1 bytes @ 0x0
  1006                           
  1007  0070                     ??_p7:	
  1008                           ; 1 bytes @ 0x0
  1009                           
  1010  0070                     ?_p8:	
  1011                           ; 1 bytes @ 0x0
  1012                           
  1013  0070                     ??_p8:	
  1014                           ; 1 bytes @ 0x0
  1015                           
  1016  0070                     ?_p9:	
  1017                           ; 1 bytes @ 0x0
  1018                           
  1019  0070                     ??_p9:	
  1020                           ; 1 bytes @ 0x0
  1021                           
  1022  0070                     ?_main:	
  1023                           ; 1 bytes @ 0x0
  1024                           
  1025  0070                     ?__Umul8_16:	
  1026                           ; 1 bytes @ 0x0
  1027                           
  1028  0070                     ?_display1:	
  1029                           ; 2 bytes @ 0x0
  1030                           
  1031  0070                     ?_display2:	
  1032                           ; 2 bytes @ 0x0
  1033                           
  1034  0070                     ?_display3:	
  1035                           ; 2 bytes @ 0x0
  1036                           
  1037  0070                     ?___awdiv:	
  1038                           ; 2 bytes @ 0x0
  1039                           
  1040  0070                     ?___awmod:	
  1041                           ; 2 bytes @ 0x0
  1042                           
  1043  0070                     ?___xxtofl:	
  1044                           ; 2 bytes @ 0x0
  1045                           
  1046  0070                     __Umul8_16@multiplicand:	
  1047                           ; 4 bytes @ 0x0
  1048                           
  1049  0070                     display1@a:	
  1050                           ; 1 bytes @ 0x0
  1051                           
  1052  0070                     display2@b:	
  1053                           ; 2 bytes @ 0x0
  1054                           
  1055  0070                     display3@c:	
  1056                           ; 2 bytes @ 0x0
  1057                           
  1058  0070                     ___awdiv@divisor:	
  1059                           ; 2 bytes @ 0x0
  1060                           
  1061  0070                     ___awmod@divisor:	
  1062                           ; 2 bytes @ 0x0
  1063                           
  1064  0070                     ___xxtofl@val:	
  1065                           ; 2 bytes @ 0x0
  1066                           
  1067                           
  1068                           ; 4 bytes @ 0x0
  1069  0070                     	ds	2
  1070  0072                     ??__Umul8_16:
  1071  0072                     ??_display1:	
  1072                           ; 1 bytes @ 0x2
  1073                           
  1074  0072                     ??_display2:	
  1075                           ; 1 bytes @ 0x2
  1076                           
  1077  0072                     ??_display3:	
  1078                           ; 1 bytes @ 0x2
  1079                           
  1080  0072                     ___awdiv@dividend:	
  1081                           ; 1 bytes @ 0x2
  1082                           
  1083  0072                     ___awmod@dividend:	
  1084                           ; 2 bytes @ 0x2
  1085                           
  1086                           
  1087                           ; 2 bytes @ 0x2
  1088  0072                     	ds	2
  1089  0074                     ??___awdiv:
  1090  0074                     ??___awmod:	
  1091                           ; 1 bytes @ 0x4
  1092                           
  1093  0074                     ??___xxtofl:	
  1094                           ; 1 bytes @ 0x4
  1095                           
  1096  0074                     __Umul8_16@product:	
  1097                           ; 1 bytes @ 0x4
  1098                           
  1099                           
  1100                           ; 2 bytes @ 0x4
  1101  0074                     	ds	1
  1102  0075                     ___awdiv@counter:
  1103  0075                     ___awmod@counter:	
  1104                           ; 1 bytes @ 0x5
  1105                           
  1106                           
  1107                           ; 1 bytes @ 0x5
  1108  0075                     	ds	1
  1109  0076                     ___awdiv@sign:
  1110  0076                     ___awmod@sign:	
  1111                           ; 1 bytes @ 0x6
  1112                           
  1113  0076                     __Umul8_16@word_mpld:	
  1114                           ; 1 bytes @ 0x6
  1115                           
  1116                           
  1117                           ; 2 bytes @ 0x6
  1118  0076                     	ds	1
  1119  0077                     ___awdiv@quotient:
  1120                           
  1121                           ; 2 bytes @ 0x7
  1122  0077                     	ds	1
  1123  0078                     __Umul8_16@multiplier:
  1124  0078                     ___xxtofl@sign:	
  1125                           ; 1 bytes @ 0x8
  1126                           
  1127                           
  1128                           ; 1 bytes @ 0x8
  1129  0078                     	ds	1
  1130  0079                     ___xxtofl@exp:
  1131                           
  1132                           ; 1 bytes @ 0x9
  1133  0079                     	ds	1
  1134  007A                     ___xxtofl@arg:
  1135                           
  1136                           ; 4 bytes @ 0xA
  1137  007A                     	ds	4
  1138                           
  1139                           	psect	cstackBANK0
  1140  0020                     __pcstackBANK0:
  1141  0020                     ?___flmul:
  1142  0020                     ___flmul@b:	
  1143                           ; 4 bytes @ 0x0
  1144                           
  1145                           
  1146                           ; 4 bytes @ 0x0
  1147  0020                     	ds	4
  1148  0024                     ___flmul@a:
  1149                           
  1150                           ; 4 bytes @ 0x4
  1151  0024                     	ds	4
  1152  0028                     ??___flmul:
  1153                           
  1154                           ; 1 bytes @ 0x8
  1155  0028                     	ds	5
  1156  002D                     ___flmul@sign:
  1157                           
  1158                           ; 1 bytes @ 0xD
  1159  002D                     	ds	1
  1160  002E                     ___flmul@grs:
  1161                           
  1162                           ; 4 bytes @ 0xE
  1163  002E                     	ds	4
  1164  0032                     ___flmul@aexp:
  1165                           
  1166                           ; 1 bytes @ 0x12
  1167  0032                     	ds	1
  1168  0033                     ___flmul@bexp:
  1169                           
  1170                           ; 1 bytes @ 0x13
  1171  0033                     	ds	1
  1172  0034                     ___flmul@prod:
  1173                           
  1174                           ; 4 bytes @ 0x14
  1175  0034                     	ds	4
  1176  0038                     ___flmul@temp:
  1177                           
  1178                           ; 2 bytes @ 0x18
  1179  0038                     	ds	2
  1180  003A                     ?___fltol:
  1181  003A                     ___fltol@f1:	
  1182                           ; 4 bytes @ 0x1A
  1183                           
  1184                           
  1185                           ; 4 bytes @ 0x1A
  1186  003A                     	ds	4
  1187  003E                     ??___fltol:
  1188                           
  1189                           ; 1 bytes @ 0x1E
  1190  003E                     	ds	5
  1191  0043                     ___fltol@sign1:
  1192                           
  1193                           ; 1 bytes @ 0x23
  1194  0043                     	ds	1
  1195  0044                     ___fltol@exp1:
  1196                           
  1197                           ; 1 bytes @ 0x24
  1198  0044                     	ds	1
  1199  0045                     ??_main:
  1200                           
  1201                           ; 1 bytes @ 0x25
  1202  0045                     	ds	3
  1203                           
  1204                           	psect	maintext
  1205  037F                     __pmaintext:	
  1206 ;;
  1207 ;;Main: autosize = 0, tempsize = 3, incstack = 0, save=0
  1208 ;;
  1209 ;; *************** function _main *****************
  1210 ;; Defined at:
  1211 ;;		line 194 in file "main.c"
  1212 ;; Parameters:    Size  Location     Type
  1213 ;;		None
  1214 ;; Auto vars:     Size  Location     Type
  1215 ;;		None
  1216 ;; Return value:  Size  Location     Type
  1217 ;;                  1    wreg      void 
  1218 ;; Registers used:
  1219 ;;		wreg, status,2, status,0, pclath, cstack
  1220 ;; Tracked objects:
  1221 ;;		On entry : B1F/0
  1222 ;;		On exit  : 0/0
  1223 ;;		Unchanged: 0/0
  1224 ;; Data sizes:     COMMON   BANK0   BANK1   BANK2   BANK3   BANK4
  1225 ;;      Params:         0       0       0       0       0       0
  1226 ;;      Locals:         0       0       0       0       0       0
  1227 ;;      Temps:          0       3       0       0       0       0
  1228 ;;      Totals:         0       3       0       0       0       0
  1229 ;;Total ram usage:        3 bytes
  1230 ;; Hardware stack levels required when called:    2
  1231 ;; This function calls:
  1232 ;;		_ADC_Initialize
  1233 ;;		_ADC_StartConversion
  1234 ;;		_SYSTEM_Initialize
  1235 ;;		___awdiv
  1236 ;;		___awmod
  1237 ;;		___flmul
  1238 ;;		___fltol
  1239 ;;		___xxtofl
  1240 ;;		_display1
  1241 ;;		_display2
  1242 ;;		_display3
  1243 ;; This function is called by:
  1244 ;;		Startup code after reset
  1245 ;; This function uses a non-reentrant model
  1246 ;;
  1247                           
  1248                           
  1249                           ;psect for function _main
  1250  037F                     _main:
  1251  037F                     l1846:	
  1252                           ;incstack = 0
  1253                           ; Regs used in _main: [wreg+status,2+status,0+pclath+cstack]
  1254                           
  1255                           
  1256                           ;main.c: 197:     SYSTEM_Initialize();
  1257  037F  3181  210D  3183   	fcall	_SYSTEM_Initialize
  1258                           
  1259                           ;main.c: 198:     ADC_Initialize();
  1260  0382  3181  2105  3183   	fcall	_ADC_Initialize
  1261  0385                     l1848:
  1262                           
  1263                           ;main.c: 215:     {;main.c: 217:         ADC_StartConversion();
  1264  0385  3180  20CF  3183   	fcall	_ADC_StartConversion
  1265  0388                     l189:	
  1266                           ;main.c: 221:         }
  1267                           
  1268                           
  1269                           ;main.c: 219:         while(ADCON0bits.GO_nDONE == 1){
  1270  0388  0021               	movlb	1	; select bank1
  1271  0389  189D               	btfsc	29,1	;volatile
  1272  038A  2B8C               	goto	u1971
  1273  038B  2B8D               	goto	u1970
  1274  038C                     u1971:
  1275  038C  2B88               	goto	l189
  1276  038D                     u1970:
  1277  038D                     l1850:
  1278                           
  1279                           ;main.c: 222:         risultato = 0.46 * (ADRESL + (256 * ADRESH));
  1280  038D  081C               	movf	28,w	;volatile
  1281  038E  0020               	movlb	0	; select bank0
  1282  038F  00C5               	movwf	??_main
  1283  0390  01C6               	clrf	??_main+1
  1284  0391  0845               	movf	??_main,w
  1285  0392  00C6               	movwf	??_main+1
  1286  0393  01C5               	clrf	??_main
  1287  0394  0021               	movlb	1	; select bank1
  1288  0395  081B               	movf	27,w	;volatile
  1289  0396  0020               	movlb	0	; select bank0
  1290  0397  0745               	addwf	??_main,w
  1291  0398  00F0               	movwf	___xxtofl@val
  1292  0399  0846               	movf	??_main+1,w
  1293  039A  1803               	skipnc
  1294  039B  0A46               	incf	??_main+1,w
  1295  039C  00F1               	movwf	___xxtofl@val+1
  1296  039D  01F2               	clrf	___xxtofl@val+2
  1297  039E  1BF1               	btfsc	___xxtofl@val+1,7
  1298  039F  03F2               	decf	___xxtofl@val+2,f
  1299  03A0  0872               	movf	___xxtofl@val+2,w
  1300  03A1  00F3               	movwf	___xxtofl@val+3
  1301  03A2  3001               	movlw	1
  1302  03A3  3182  22D3  3183   	fcall	___xxtofl
  1303  03A6  0873               	movf	?___xxtofl+3,w
  1304  03A7  0020               	movlb	0	; select bank0
  1305  03A8  00A7               	movwf	___flmul@a+3
  1306  03A9  0872               	movf	?___xxtofl+2,w
  1307  03AA  00A6               	movwf	___flmul@a+2
  1308  03AB  0871               	movf	?___xxtofl+1,w
  1309  03AC  00A5               	movwf	___flmul@a+1
  1310  03AD  0870               	movf	?___xxtofl,w
  1311  03AE  00A4               	movwf	___flmul@a
  1312  03AF  303E               	movlw	62
  1313  03B0  00A3               	movwf	___flmul@b+3
  1314  03B1  30EB               	movlw	235
  1315  03B2  00A2               	movwf	___flmul@b+2
  1316  03B3  3085               	movlw	133
  1317  03B4  00A1               	movwf	___flmul@b+1
  1318  03B5  301F               	movlw	31
  1319  03B6  00A0               	movwf	___flmul@b
  1320  03B7  3185  2599  3183   	fcall	___flmul
  1321  03BA  0020               	movlb	0	; select bank0
  1322  03BB  0823               	movf	?___flmul+3,w
  1323  03BC  00BD               	movwf	___fltol@f1+3
  1324  03BD  0822               	movf	?___flmul+2,w
  1325  03BE  00BC               	movwf	___fltol@f1+2
  1326  03BF  0821               	movf	?___flmul+1,w
  1327  03C0  00BB               	movwf	___fltol@f1+1
  1328  03C1  0820               	movf	?___flmul,w
  1329  03C2  00BA               	movwf	___fltol@f1
  1330  03C3  3182  225E  3183   	fcall	___fltol
  1331  03C6  0020               	movlb	0	; select bank0
  1332  03C7  083B               	movf	?___fltol+1,w
  1333  03C8  00D1               	movwf	_risultato+1
  1334  03C9  083A               	movf	?___fltol,w
  1335  03CA  00D0               	movwf	_risultato
  1336                           
  1337                           ;main.c: 223:         a= risultato/100;
  1338  03CB  3064               	movlw	100
  1339  03CC  00F0               	movwf	___awdiv@divisor
  1340  03CD  3000               	movlw	0
  1341  03CE  00F1               	movwf	___awdiv@divisor+1
  1342  03CF  0851               	movf	_risultato+1,w
  1343  03D0  00F3               	movwf	___awdiv@dividend+1
  1344  03D1  0850               	movf	_risultato,w
  1345  03D2  00F2               	movwf	___awdiv@dividend
  1346  03D3  3181  21FF  3183   	fcall	___awdiv
  1347  03D6  0871               	movf	?___awdiv+1,w
  1348  03D7  0020               	movlb	0	; select bank0
  1349  03D8  00CF               	movwf	_a+1
  1350  03D9  0870               	movf	?___awdiv,w
  1351  03DA  00CE               	movwf	_a
  1352                           
  1353                           ;main.c: 224:         resto= risultato%100;
  1354  03DB  3064               	movlw	100
  1355  03DC  00F0               	movwf	___awmod@divisor
  1356  03DD  3000               	movlw	0
  1357  03DE  00F1               	movwf	___awmod@divisor+1
  1358  03DF  0851               	movf	_risultato+1,w
  1359  03E0  00F3               	movwf	___awmod@dividend+1
  1360  03E1  0850               	movf	_risultato,w
  1361  03E2  00F2               	movwf	___awmod@dividend
  1362  03E3  3181  2151  3183   	fcall	___awmod
  1363  03E6  0871               	movf	?___awmod+1,w
  1364  03E7  0020               	movlb	0	; select bank0
  1365  03E8  00C9               	movwf	_resto+1
  1366  03E9  0870               	movf	?___awmod,w
  1367  03EA  00C8               	movwf	_resto
  1368                           
  1369                           ;main.c: 225:         b= resto/10;
  1370  03EB  300A               	movlw	10
  1371  03EC  00F0               	movwf	___awdiv@divisor
  1372  03ED  3000               	movlw	0
  1373  03EE  00F1               	movwf	___awdiv@divisor+1
  1374  03EF  0849               	movf	_resto+1,w
  1375  03F0  00F3               	movwf	___awdiv@dividend+1
  1376  03F1  0848               	movf	_resto,w
  1377  03F2  00F2               	movwf	___awdiv@dividend
  1378  03F3  3181  21FF  3183   	fcall	___awdiv
  1379  03F6  0871               	movf	?___awdiv+1,w
  1380  03F7  0020               	movlb	0	; select bank0
  1381  03F8  00CD               	movwf	_b+1
  1382  03F9  0870               	movf	?___awdiv,w
  1383  03FA  00CC               	movwf	_b
  1384                           
  1385                           ;main.c: 226:         c= resto%10;
  1386  03FB  300A               	movlw	10
  1387  03FC  00F0               	movwf	___awmod@divisor
  1388  03FD  3000               	movlw	0
  1389  03FE  00F1               	movwf	___awmod@divisor+1
  1390  03FF  0849               	movf	_resto+1,w
  1391  0400  00F3               	movwf	___awmod@dividend+1
  1392  0401  0848               	movf	_resto,w
  1393  0402  00F2               	movwf	___awmod@dividend
  1394  0403  3181  2151  3183   	fcall	___awmod
  1395  0406  0871               	movf	?___awmod+1,w
  1396  0407  0020               	movlb	0	; select bank0
  1397  0408  00CB               	movwf	_c+1
  1398  0409  0870               	movf	?___awmod,w
  1399  040A  00CA               	movwf	_c
  1400                           
  1401                           ;main.c: 227:         display1(a);
  1402  040B  084F               	movf	_a+1,w
  1403  040C  00F1               	movwf	display1@a+1
  1404  040D  084E               	movf	_a,w
  1405  040E  00F0               	movwf	display1@a
  1406  040F  3181  21A4  3183   	fcall	_display1
  1407                           
  1408                           ;main.c: 228:         display2(b);
  1409  0412  0020               	movlb	0	; select bank0
  1410  0413  084D               	movf	_b+1,w
  1411  0414  00F1               	movwf	display2@b+1
  1412  0415  084C               	movf	_b,w
  1413  0416  00F0               	movwf	display2@b
  1414  0417  3184  24E3  3183   	fcall	_display2
  1415  041A                     l1852:
  1416                           
  1417                           ;main.c: 229:         _delay((unsigned long)((20)*(4000000/4000.0)));
  1418  041A  301A               	movlw	26
  1419  041B  0020               	movlb	0	; select bank0
  1420  041C  00C5               	movwf	??_main
  1421  041D  30F8               	movlw	248
  1422  041E                     u1987:
  1423  041E  0B89               	decfsz	9,f
  1424  041F  2C1E               	goto	u1987
  1425  0420  0BC5               	decfsz	??_main,f
  1426  0421  2C1E               	goto	u1987
  1427  0422  0000               	nop
  1428  0423                     l1854:
  1429                           
  1430                           ;main.c: 230:         display3(c);
  1431  0423  0020               	movlb	0	; select bank0
  1432  0424  084B               	movf	_c+1,w
  1433  0425  00F1               	movwf	display3@c+1
  1434  0426  084A               	movf	_c,w
  1435  0427  00F0               	movwf	display3@c
  1436  0428  3184  242E  3183   	fcall	_display3
  1437  042B  2B85               	goto	l1848
  1438  042C  3180  2802         	ljmp	start
  1439  042E                     __end_of_main:
  1440                           
  1441                           	psect	text1
  1442  042E                     __ptext1:	
  1443 ;; *************** function _display3 *****************
  1444 ;; Defined at:
  1445 ;;		line 148 in file "main.c"
  1446 ;; Parameters:    Size  Location     Type
  1447 ;;  c               2    0[COMMON] int 
  1448 ;; Auto vars:     Size  Location     Type
  1449 ;;		None
  1450 ;; Return value:  Size  Location     Type
  1451 ;;                  2    0[COMMON] int 
  1452 ;; Registers used:
  1453 ;;		wreg, status,2, status,0, pclath, cstack
  1454 ;; Tracked objects:
  1455 ;;		On entry : 0/0
  1456 ;;		On exit  : 0/0
  1457 ;;		Unchanged: 0/0
  1458 ;; Data sizes:     COMMON   BANK0   BANK1   BANK2   BANK3   BANK4
  1459 ;;      Params:         2       0       0       0       0       0
  1460 ;;      Locals:         0       0       0       0       0       0
  1461 ;;      Temps:          1       0       0       0       0       0
  1462 ;;      Totals:         3       0       0       0       0       0
  1463 ;;Total ram usage:        3 bytes
  1464 ;; Hardware stack levels used:    1
  1465 ;; Hardware stack levels required when called:    1
  1466 ;; This function calls:
  1467 ;;		_p4
  1468 ;;		_p5
  1469 ;;		_p6
  1470 ;;		_p7
  1471 ;;		_p8
  1472 ;;		_p9
  1473 ;; This function is called by:
  1474 ;;		_main
  1475 ;; This function uses a non-reentrant model
  1476 ;;
  1477                           
  1478                           
  1479                           ;psect for function _display3
  1480  042E                     _display3:
  1481  042E                     l1490:	
  1482                           ;incstack = 0
  1483                           ; Regs used in _display3: [wreg+status,2+status,0+pclath+cstack]
  1484                           
  1485                           
  1486                           ;main.c: 149:     PORTAbits.RA0 = 0;
  1487  042E  0020               	movlb	0	; select bank0
  1488  042F  100C               	bcf	12,0	;volatile
  1489                           
  1490                           ;main.c: 150:     PORTAbits.RA1 = 0;
  1491  0430  108C               	bcf	12,1	;volatile
  1492  0431                     l1492:
  1493                           
  1494                           ;main.c: 151:     if (c==0){
  1495  0431  0870               	movf	display3@c,w
  1496  0432  0471               	iorwf	display3@c+1,w
  1497  0433  1D03               	btfss	3,2
  1498  0434  2C36               	goto	u1181
  1499  0435  2C37               	goto	u1180
  1500  0436                     u1181:
  1501  0436  2C41               	goto	l1496
  1502  0437                     u1180:
  1503  0437                     l1494:
  1504                           
  1505                           ;main.c: 152:         PORTB=0b00111111;
  1506  0437  303F               	movlw	63
  1507  0438  008D               	movwf	13	;volatile
  1508                           
  1509                           ;main.c: 153:         _delay((unsigned long)((30)*(4000000/4000.0)));
  1510  0439  3027               	movlw	39
  1511  043A  00F2               	movwf	??_display3
  1512  043B  30F5               	movlw	245
  1513  043C                     u1997:
  1514  043C  0B89               	decfsz	9,f
  1515  043D  2C3C               	goto	u1997
  1516  043E  0BF2               	decfsz	??_display3,f
  1517  043F  2C3C               	goto	u1997
  1518  0440  0000               	nop
  1519  0441                     l1496:
  1520                           
  1521                           ;main.c: 155:      if (c==1){
  1522  0441  0370               	decf	display3@c,w
  1523  0442  0471               	iorwf	display3@c+1,w
  1524  0443  1D03               	btfss	3,2
  1525  0444  2C46               	goto	u1191
  1526  0445  2C47               	goto	u1190
  1527  0446                     u1191:
  1528  0446  2C52               	goto	l1500
  1529  0447                     u1190:
  1530  0447                     l1498:
  1531                           
  1532                           ;main.c: 156:         PORTB = 0b00000110;
  1533  0447  3006               	movlw	6
  1534  0448  0020               	movlb	0	; select bank0
  1535  0449  008D               	movwf	13	;volatile
  1536                           
  1537                           ;main.c: 157:         _delay((unsigned long)((30)*(4000000/4000.0)));
  1538  044A  3027               	movlw	39
  1539  044B  00F2               	movwf	??_display3
  1540  044C  30F5               	movlw	245
  1541  044D                     u2007:
  1542  044D  0B89               	decfsz	9,f
  1543  044E  2C4D               	goto	u2007
  1544  044F  0BF2               	decfsz	??_display3,f
  1545  0450  2C4D               	goto	u2007
  1546  0451  0000               	nop
  1547  0452                     l1500:
  1548                           
  1549                           ;main.c: 159:       if (c==2){
  1550  0452  3002               	movlw	2
  1551  0453  0670               	xorwf	display3@c,w
  1552  0454  0471               	iorwf	display3@c+1,w
  1553  0455  1D03               	btfss	3,2
  1554  0456  2C58               	goto	u1201
  1555  0457  2C59               	goto	u1200
  1556  0458                     u1201:
  1557  0458  2C64               	goto	l1504
  1558  0459                     u1200:
  1559  0459                     l1502:
  1560                           
  1561                           ;main.c: 160:         PORTB = 0b01011011;
  1562  0459  305B               	movlw	91
  1563  045A  0020               	movlb	0	; select bank0
  1564  045B  008D               	movwf	13	;volatile
  1565                           
  1566                           ;main.c: 161:         _delay((unsigned long)((30)*(4000000/4000.0)));
  1567  045C  3027               	movlw	39
  1568  045D  00F2               	movwf	??_display3
  1569  045E  30F5               	movlw	245
  1570  045F                     u2017:
  1571  045F  0B89               	decfsz	9,f
  1572  0460  2C5F               	goto	u2017
  1573  0461  0BF2               	decfsz	??_display3,f
  1574  0462  2C5F               	goto	u2017
  1575  0463  0000               	nop
  1576  0464                     l1504:
  1577                           
  1578                           ;main.c: 163:        if (c==3){
  1579  0464  3003               	movlw	3
  1580  0465  0670               	xorwf	display3@c,w
  1581  0466  0471               	iorwf	display3@c+1,w
  1582  0467  1D03               	btfss	3,2
  1583  0468  2C6A               	goto	u1211
  1584  0469  2C6B               	goto	u1210
  1585  046A                     u1211:
  1586  046A  2C76               	goto	l1508
  1587  046B                     u1210:
  1588  046B                     l1506:
  1589                           
  1590                           ;main.c: 164:         PORTB = 0b01001111;
  1591  046B  304F               	movlw	79
  1592  046C  0020               	movlb	0	; select bank0
  1593  046D  008D               	movwf	13	;volatile
  1594                           
  1595                           ;main.c: 165:         _delay((unsigned long)((30)*(4000000/4000.0)));
  1596  046E  3027               	movlw	39
  1597  046F  00F2               	movwf	??_display3
  1598  0470  30F5               	movlw	245
  1599  0471                     u2027:
  1600  0471  0B89               	decfsz	9,f
  1601  0472  2C71               	goto	u2027
  1602  0473  0BF2               	decfsz	??_display3,f
  1603  0474  2C71               	goto	u2027
  1604  0475  0000               	nop
  1605  0476                     l1508:
  1606                           
  1607                           ;main.c: 167:       if (c==4){
  1608  0476  3004               	movlw	4
  1609  0477  0670               	xorwf	display3@c,w
  1610  0478  0471               	iorwf	display3@c+1,w
  1611  0479  1D03               	btfss	3,2
  1612  047A  2C7C               	goto	u1221
  1613  047B  2C7D               	goto	u1220
  1614  047C                     u1221:
  1615  047C  2C88               	goto	l1514
  1616  047D                     u1220:
  1617  047D                     l1510:
  1618                           
  1619                           ;main.c: 168:         p4();
  1620  047D  3180  20E6  3184   	fcall	_p4
  1621  0480                     l1512:
  1622                           
  1623                           ;main.c: 169:         _delay((unsigned long)((30)*(4000000/4000.0)));
  1624  0480  3027               	movlw	39
  1625  0481  00F2               	movwf	??_display3
  1626  0482  30F5               	movlw	245
  1627  0483                     u2037:
  1628  0483  0B89               	decfsz	9,f
  1629  0484  2C83               	goto	u2037
  1630  0485  0BF2               	decfsz	??_display3,f
  1631  0486  2C83               	goto	u2037
  1632  0487  0000               	nop
  1633  0488                     l1514:
  1634                           
  1635                           ;main.c: 171:       if (c==5){
  1636  0488  3005               	movlw	5
  1637  0489  0670               	xorwf	display3@c,w
  1638  048A  0471               	iorwf	display3@c+1,w
  1639  048B  1D03               	btfss	3,2
  1640  048C  2C8E               	goto	u1231
  1641  048D  2C8F               	goto	u1230
  1642  048E                     u1231:
  1643  048E  2C9A               	goto	l1520
  1644  048F                     u1230:
  1645  048F                     l1516:
  1646                           
  1647                           ;main.c: 172:         p5();
  1648  048F  3180  20EA  3184   	fcall	_p5
  1649  0492                     l1518:
  1650                           
  1651                           ;main.c: 173:         _delay((unsigned long)((30)*(4000000/4000.0)));
  1652  0492  3027               	movlw	39
  1653  0493  00F2               	movwf	??_display3
  1654  0494  30F5               	movlw	245
  1655  0495                     u2047:
  1656  0495  0B89               	decfsz	9,f
  1657  0496  2C95               	goto	u2047
  1658  0497  0BF2               	decfsz	??_display3,f
  1659  0498  2C95               	goto	u2047
  1660  0499  0000               	nop
  1661  049A                     l1520:
  1662                           
  1663                           ;main.c: 175:       if (c==6){
  1664  049A  3006               	movlw	6
  1665  049B  0670               	xorwf	display3@c,w
  1666  049C  0471               	iorwf	display3@c+1,w
  1667  049D  1D03               	btfss	3,2
  1668  049E  2CA0               	goto	u1241
  1669  049F  2CA1               	goto	u1240
  1670  04A0                     u1241:
  1671  04A0  2CAC               	goto	l1526
  1672  04A1                     u1240:
  1673  04A1                     l1522:
  1674                           
  1675                           ;main.c: 176:         p6();
  1676  04A1  3180  20EE  3184   	fcall	_p6
  1677  04A4                     l1524:
  1678                           
  1679                           ;main.c: 177:         _delay((unsigned long)((30)*(4000000/4000.0)));
  1680  04A4  3027               	movlw	39
  1681  04A5  00F2               	movwf	??_display3
  1682  04A6  30F5               	movlw	245
  1683  04A7                     u2057:
  1684  04A7  0B89               	decfsz	9,f
  1685  04A8  2CA7               	goto	u2057
  1686  04A9  0BF2               	decfsz	??_display3,f
  1687  04AA  2CA7               	goto	u2057
  1688  04AB  0000               	nop
  1689  04AC                     l1526:
  1690                           
  1691                           ;main.c: 179:       if (c==7){
  1692  04AC  3007               	movlw	7
  1693  04AD  0670               	xorwf	display3@c,w
  1694  04AE  0471               	iorwf	display3@c+1,w
  1695  04AF  1D03               	btfss	3,2
  1696  04B0  2CB2               	goto	u1251
  1697  04B1  2CB3               	goto	u1250
  1698  04B2                     u1251:
  1699  04B2  2CBE               	goto	l1532
  1700  04B3                     u1250:
  1701  04B3                     l1528:
  1702                           
  1703                           ;main.c: 180:         p7();
  1704  04B3  3180  20F2  3184   	fcall	_p7
  1705  04B6                     l1530:
  1706                           
  1707                           ;main.c: 181:         _delay((unsigned long)((30)*(4000000/4000.0)));
  1708  04B6  3027               	movlw	39
  1709  04B7  00F2               	movwf	??_display3
  1710  04B8  30F5               	movlw	245
  1711  04B9                     u2067:
  1712  04B9  0B89               	decfsz	9,f
  1713  04BA  2CB9               	goto	u2067
  1714  04BB  0BF2               	decfsz	??_display3,f
  1715  04BC  2CB9               	goto	u2067
  1716  04BD  0000               	nop
  1717  04BE                     l1532:
  1718                           
  1719                           ;main.c: 183:        if (c==8){
  1720  04BE  3008               	movlw	8
  1721  04BF  0670               	xorwf	display3@c,w
  1722  04C0  0471               	iorwf	display3@c+1,w
  1723  04C1  1D03               	btfss	3,2
  1724  04C2  2CC4               	goto	u1261
  1725  04C3  2CC5               	goto	u1260
  1726  04C4                     u1261:
  1727  04C4  2CD0               	goto	l1538
  1728  04C5                     u1260:
  1729  04C5                     l1534:
  1730                           
  1731                           ;main.c: 184:         p8();
  1732  04C5  3180  20F6  3184   	fcall	_p8
  1733  04C8                     l1536:
  1734                           
  1735                           ;main.c: 185:         _delay((unsigned long)((30)*(4000000/4000.0)));
  1736  04C8  3027               	movlw	39
  1737  04C9  00F2               	movwf	??_display3
  1738  04CA  30F5               	movlw	245
  1739  04CB                     u2077:
  1740  04CB  0B89               	decfsz	9,f
  1741  04CC  2CCB               	goto	u2077
  1742  04CD  0BF2               	decfsz	??_display3,f
  1743  04CE  2CCB               	goto	u2077
  1744  04CF  0000               	nop
  1745  04D0                     l1538:
  1746                           
  1747                           ;main.c: 187:         if (c==9){
  1748  04D0  3009               	movlw	9
  1749  04D1  0670               	xorwf	display3@c,w
  1750  04D2  0471               	iorwf	display3@c+1,w
  1751  04D3  1D03               	btfss	3,2
  1752  04D4  2CD6               	goto	u1271
  1753  04D5  2CD7               	goto	u1270
  1754  04D6                     u1271:
  1755  04D6  2CE2               	goto	l181
  1756  04D7                     u1270:
  1757  04D7                     l1540:
  1758                           
  1759                           ;main.c: 188:         p9();
  1760  04D7  3180  20FA  3184   	fcall	_p9
  1761  04DA                     l1542:
  1762                           
  1763                           ;main.c: 189:         _delay((unsigned long)((30)*(4000000/4000.0)));
  1764  04DA  3027               	movlw	39
  1765  04DB  00F2               	movwf	??_display3
  1766  04DC  30F5               	movlw	245
  1767  04DD                     u2087:
  1768  04DD  0B89               	decfsz	9,f
  1769  04DE  2CDD               	goto	u2087
  1770  04DF  0BF2               	decfsz	??_display3,f
  1771  04E0  2CDD               	goto	u2087
  1772  04E1  0000               	nop
  1773  04E2                     l181:
  1774  04E2  0008               	return
  1775  04E3                     __end_of_display3:
  1776                           
  1777                           	psect	text2
  1778  04E3                     __ptext2:	
  1779 ;; *************** function _display2 *****************
  1780 ;; Defined at:
  1781 ;;		line 104 in file "main.c"
  1782 ;; Parameters:    Size  Location     Type
  1783 ;;  b               2    0[COMMON] int 
  1784 ;; Auto vars:     Size  Location     Type
  1785 ;;		None
  1786 ;; Return value:  Size  Location     Type
  1787 ;;                  2    0[COMMON] int 
  1788 ;; Registers used:
  1789 ;;		wreg, status,2, status,0, pclath, cstack
  1790 ;; Tracked objects:
  1791 ;;		On entry : 0/0
  1792 ;;		On exit  : 0/0
  1793 ;;		Unchanged: 0/0
  1794 ;; Data sizes:     COMMON   BANK0   BANK1   BANK2   BANK3   BANK4
  1795 ;;      Params:         2       0       0       0       0       0
  1796 ;;      Locals:         0       0       0       0       0       0
  1797 ;;      Temps:          1       0       0       0       0       0
  1798 ;;      Totals:         3       0       0       0       0       0
  1799 ;;Total ram usage:        3 bytes
  1800 ;; Hardware stack levels used:    1
  1801 ;; Hardware stack levels required when called:    1
  1802 ;; This function calls:
  1803 ;;		_p0
  1804 ;;		_p1
  1805 ;;		_p2
  1806 ;;		_p3
  1807 ;;		_p4
  1808 ;;		_p5
  1809 ;;		_p6
  1810 ;;		_p7
  1811 ;;		_p8
  1812 ;;		_p9
  1813 ;; This function is called by:
  1814 ;;		_main
  1815 ;; This function uses a non-reentrant model
  1816 ;;
  1817                           
  1818                           
  1819                           ;psect for function _display2
  1820  04E3                     _display2:
  1821  04E3                     l1428:	
  1822                           ;incstack = 0
  1823                           ; Regs used in _display2: [wreg+status,2+status,0+pclath+cstack]
  1824                           
  1825                           
  1826                           ;main.c: 105:     PORTAbits.RA0 = 0;
  1827  04E3  0020               	movlb	0	; select bank0
  1828  04E4  100C               	bcf	12,0	;volatile
  1829                           
  1830                           ;main.c: 106:     PORTAbits.RA1 = 1;
  1831  04E5  148C               	bsf	12,1	;volatile
  1832  04E6                     l1430:
  1833                           
  1834                           ;main.c: 107:     if (b==0){
  1835  04E6  0870               	movf	display2@b,w
  1836  04E7  0471               	iorwf	display2@b+1,w
  1837  04E8  1D03               	btfss	3,2
  1838  04E9  2CEB               	goto	u1081
  1839  04EA  2CEC               	goto	u1080
  1840  04EB                     u1081:
  1841  04EB  2CF7               	goto	l1436
  1842  04EC                     u1080:
  1843  04EC                     l1432:
  1844                           
  1845                           ;main.c: 108:         p0();
  1846  04EC  3180  20D6  3184   	fcall	_p0
  1847  04EF                     l1434:
  1848                           
  1849                           ;main.c: 109:         _delay((unsigned long)((30)*(4000000/4000.0)));
  1850  04EF  3027               	movlw	39
  1851  04F0  00F2               	movwf	??_display2
  1852  04F1  30F5               	movlw	245
  1853  04F2                     u2097:
  1854  04F2  0B89               	decfsz	9,f
  1855  04F3  2CF2               	goto	u2097
  1856  04F4  0BF2               	decfsz	??_display2,f
  1857  04F5  2CF2               	goto	u2097
  1858  04F6  0000               	nop
  1859  04F7                     l1436:
  1860                           
  1861                           ;main.c: 111:      if (b==1){
  1862  04F7  0370               	decf	display2@b,w
  1863  04F8  0471               	iorwf	display2@b+1,w
  1864  04F9  1D03               	btfss	3,2
  1865  04FA  2CFC               	goto	u1091
  1866  04FB  2CFD               	goto	u1090
  1867  04FC                     u1091:
  1868  04FC  2D08               	goto	l1442
  1869  04FD                     u1090:
  1870  04FD                     l1438:
  1871                           
  1872                           ;main.c: 112:         p1();
  1873  04FD  3180  20DA  3184   	fcall	_p1
  1874  0500                     l1440:
  1875                           
  1876                           ;main.c: 113:         _delay((unsigned long)((30)*(4000000/4000.0)));
  1877  0500  3027               	movlw	39
  1878  0501  00F2               	movwf	??_display2
  1879  0502  30F5               	movlw	245
  1880  0503                     u2107:
  1881  0503  0B89               	decfsz	9,f
  1882  0504  2D03               	goto	u2107
  1883  0505  0BF2               	decfsz	??_display2,f
  1884  0506  2D03               	goto	u2107
  1885  0507  0000               	nop
  1886  0508                     l1442:
  1887                           
  1888                           ;main.c: 115:       if (b==2){
  1889  0508  3002               	movlw	2
  1890  0509  0670               	xorwf	display2@b,w
  1891  050A  0471               	iorwf	display2@b+1,w
  1892  050B  1D03               	btfss	3,2
  1893  050C  2D0E               	goto	u1101
  1894  050D  2D0F               	goto	u1100
  1895  050E                     u1101:
  1896  050E  2D1A               	goto	l1448
  1897  050F                     u1100:
  1898  050F                     l1444:
  1899                           
  1900                           ;main.c: 116:         p2();
  1901  050F  3180  20DE  3184   	fcall	_p2
  1902  0512                     l1446:
  1903                           
  1904                           ;main.c: 117:         _delay((unsigned long)((30)*(4000000/4000.0)));
  1905  0512  3027               	movlw	39
  1906  0513  00F2               	movwf	??_display2
  1907  0514  30F5               	movlw	245
  1908  0515                     u2117:
  1909  0515  0B89               	decfsz	9,f
  1910  0516  2D15               	goto	u2117
  1911  0517  0BF2               	decfsz	??_display2,f
  1912  0518  2D15               	goto	u2117
  1913  0519  0000               	nop
  1914  051A                     l1448:
  1915                           
  1916                           ;main.c: 119:        if (b==3){
  1917  051A  3003               	movlw	3
  1918  051B  0670               	xorwf	display2@b,w
  1919  051C  0471               	iorwf	display2@b+1,w
  1920  051D  1D03               	btfss	3,2
  1921  051E  2D20               	goto	u1111
  1922  051F  2D21               	goto	u1110
  1923  0520                     u1111:
  1924  0520  2D2C               	goto	l1454
  1925  0521                     u1110:
  1926  0521                     l1450:
  1927                           
  1928                           ;main.c: 120:         p3();
  1929  0521  3180  20E2  3184   	fcall	_p3
  1930  0524                     l1452:
  1931                           
  1932                           ;main.c: 121:         _delay((unsigned long)((30)*(4000000/4000.0)));
  1933  0524  3027               	movlw	39
  1934  0525  00F2               	movwf	??_display2
  1935  0526  30F5               	movlw	245
  1936  0527                     u2127:
  1937  0527  0B89               	decfsz	9,f
  1938  0528  2D27               	goto	u2127
  1939  0529  0BF2               	decfsz	??_display2,f
  1940  052A  2D27               	goto	u2127
  1941  052B  0000               	nop
  1942  052C                     l1454:
  1943                           
  1944                           ;main.c: 123:       if (b==4){
  1945  052C  3004               	movlw	4
  1946  052D  0670               	xorwf	display2@b,w
  1947  052E  0471               	iorwf	display2@b+1,w
  1948  052F  1D03               	btfss	3,2
  1949  0530  2D32               	goto	u1121
  1950  0531  2D33               	goto	u1120
  1951  0532                     u1121:
  1952  0532  2D3E               	goto	l1460
  1953  0533                     u1120:
  1954  0533                     l1456:
  1955                           
  1956                           ;main.c: 124:         p4();
  1957  0533  3180  20E6  3184   	fcall	_p4
  1958  0536                     l1458:
  1959                           
  1960                           ;main.c: 125:         _delay((unsigned long)((30)*(4000000/4000.0)));
  1961  0536  3027               	movlw	39
  1962  0537  00F2               	movwf	??_display2
  1963  0538  30F5               	movlw	245
  1964  0539                     u2137:
  1965  0539  0B89               	decfsz	9,f
  1966  053A  2D39               	goto	u2137
  1967  053B  0BF2               	decfsz	??_display2,f
  1968  053C  2D39               	goto	u2137
  1969  053D  0000               	nop
  1970  053E                     l1460:
  1971                           
  1972                           ;main.c: 127:       if (b==5){
  1973  053E  3005               	movlw	5
  1974  053F  0670               	xorwf	display2@b,w
  1975  0540  0471               	iorwf	display2@b+1,w
  1976  0541  1D03               	btfss	3,2
  1977  0542  2D44               	goto	u1131
  1978  0543  2D45               	goto	u1130
  1979  0544                     u1131:
  1980  0544  2D50               	goto	l1466
  1981  0545                     u1130:
  1982  0545                     l1462:
  1983                           
  1984                           ;main.c: 128:         p5();
  1985  0545  3180  20EA  3184   	fcall	_p5
  1986  0548                     l1464:
  1987                           
  1988                           ;main.c: 129:         _delay((unsigned long)((30)*(4000000/4000.0)));
  1989  0548  3027               	movlw	39
  1990  0549  00F2               	movwf	??_display2
  1991  054A  30F5               	movlw	245
  1992  054B                     u2147:
  1993  054B  0B89               	decfsz	9,f
  1994  054C  2D4B               	goto	u2147
  1995  054D  0BF2               	decfsz	??_display2,f
  1996  054E  2D4B               	goto	u2147
  1997  054F  0000               	nop
  1998  0550                     l1466:
  1999                           
  2000                           ;main.c: 131:       if (b==6){
  2001  0550  3006               	movlw	6
  2002  0551  0670               	xorwf	display2@b,w
  2003  0552  0471               	iorwf	display2@b+1,w
  2004  0553  1D03               	btfss	3,2
  2005  0554  2D56               	goto	u1141
  2006  0555  2D57               	goto	u1140
  2007  0556                     u1141:
  2008  0556  2D62               	goto	l1472
  2009  0557                     u1140:
  2010  0557                     l1468:
  2011                           
  2012                           ;main.c: 132:         p6();
  2013  0557  3180  20EE  3184   	fcall	_p6
  2014  055A                     l1470:
  2015                           
  2016                           ;main.c: 133:         _delay((unsigned long)((30)*(4000000/4000.0)));
  2017  055A  3027               	movlw	39
  2018  055B  00F2               	movwf	??_display2
  2019  055C  30F5               	movlw	245
  2020  055D                     u2157:
  2021  055D  0B89               	decfsz	9,f
  2022  055E  2D5D               	goto	u2157
  2023  055F  0BF2               	decfsz	??_display2,f
  2024  0560  2D5D               	goto	u2157
  2025  0561  0000               	nop
  2026  0562                     l1472:
  2027                           
  2028                           ;main.c: 135:       if (b==7){
  2029  0562  3007               	movlw	7
  2030  0563  0670               	xorwf	display2@b,w
  2031  0564  0471               	iorwf	display2@b+1,w
  2032  0565  1D03               	btfss	3,2
  2033  0566  2D68               	goto	u1151
  2034  0567  2D69               	goto	u1150
  2035  0568                     u1151:
  2036  0568  2D74               	goto	l1478
  2037  0569                     u1150:
  2038  0569                     l1474:
  2039                           
  2040                           ;main.c: 136:         p7();
  2041  0569  3180  20F2  3184   	fcall	_p7
  2042  056C                     l1476:
  2043                           
  2044                           ;main.c: 137:         _delay((unsigned long)((30)*(4000000/4000.0)));
  2045  056C  3027               	movlw	39
  2046  056D  00F2               	movwf	??_display2
  2047  056E  30F5               	movlw	245
  2048  056F                     u2167:
  2049  056F  0B89               	decfsz	9,f
  2050  0570  2D6F               	goto	u2167
  2051  0571  0BF2               	decfsz	??_display2,f
  2052  0572  2D6F               	goto	u2167
  2053  0573  0000               	nop
  2054  0574                     l1478:
  2055                           
  2056                           ;main.c: 139:        if (b==8){
  2057  0574  3008               	movlw	8
  2058  0575  0670               	xorwf	display2@b,w
  2059  0576  0471               	iorwf	display2@b+1,w
  2060  0577  1D03               	btfss	3,2
  2061  0578  2D7A               	goto	u1161
  2062  0579  2D7B               	goto	u1160
  2063  057A                     u1161:
  2064  057A  2D86               	goto	l1484
  2065  057B                     u1160:
  2066  057B                     l1480:
  2067                           
  2068                           ;main.c: 140:         p8();
  2069  057B  3180  20F6  3184   	fcall	_p8
  2070  057E                     l1482:
  2071                           
  2072                           ;main.c: 141:         _delay((unsigned long)((30)*(4000000/4000.0)));
  2073  057E  3027               	movlw	39
  2074  057F  00F2               	movwf	??_display2
  2075  0580  30F5               	movlw	245
  2076  0581                     u2177:
  2077  0581  0B89               	decfsz	9,f
  2078  0582  2D81               	goto	u2177
  2079  0583  0BF2               	decfsz	??_display2,f
  2080  0584  2D81               	goto	u2177
  2081  0585  0000               	nop
  2082  0586                     l1484:
  2083                           
  2084                           ;main.c: 143:         if (b==9){
  2085  0586  3009               	movlw	9
  2086  0587  0670               	xorwf	display2@b,w
  2087  0588  0471               	iorwf	display2@b+1,w
  2088  0589  1D03               	btfss	3,2
  2089  058A  2D8C               	goto	u1171
  2090  058B  2D8D               	goto	u1170
  2091  058C                     u1171:
  2092  058C  2D98               	goto	l168
  2093  058D                     u1170:
  2094  058D                     l1486:
  2095                           
  2096                           ;main.c: 144:         p9();
  2097  058D  3180  20FA  3184   	fcall	_p9
  2098  0590                     l1488:
  2099                           
  2100                           ;main.c: 145:         _delay((unsigned long)((30)*(4000000/4000.0)));
  2101  0590  3027               	movlw	39
  2102  0591  00F2               	movwf	??_display2
  2103  0592  30F5               	movlw	245
  2104  0593                     u2187:
  2105  0593  0B89               	decfsz	9,f
  2106  0594  2D93               	goto	u2187
  2107  0595  0BF2               	decfsz	??_display2,f
  2108  0596  2D93               	goto	u2187
  2109  0597  0000               	nop
  2110  0598                     l168:
  2111  0598  0008               	return
  2112  0599                     __end_of_display2:
  2113                           
  2114                           	psect	text3
  2115  00FA                     __ptext3:	
  2116 ;; *************** function _p9 *****************
  2117 ;; Defined at:
  2118 ;;		line 72 in file "main.c"
  2119 ;; Parameters:    Size  Location     Type
  2120 ;;		None
  2121 ;; Auto vars:     Size  Location     Type
  2122 ;;		None
  2123 ;; Return value:  Size  Location     Type
  2124 ;;                  1    wreg      void 
  2125 ;; Registers used:
  2126 ;;		wreg
  2127 ;; Tracked objects:
  2128 ;;		On entry : 0/0
  2129 ;;		On exit  : 0/0
  2130 ;;		Unchanged: 0/0
  2131 ;; Data sizes:     COMMON   BANK0   BANK1   BANK2   BANK3   BANK4
  2132 ;;      Params:         0       0       0       0       0       0
  2133 ;;      Locals:         0       0       0       0       0       0
  2134 ;;      Temps:          0       0       0       0       0       0
  2135 ;;      Totals:         0       0       0       0       0       0
  2136 ;;Total ram usage:        0 bytes
  2137 ;; Hardware stack levels used:    1
  2138 ;; This function calls:
  2139 ;;		Nothing
  2140 ;; This function is called by:
  2141 ;;		_display2
  2142 ;;		_display3
  2143 ;; This function uses a non-reentrant model
  2144 ;;
  2145                           
  2146                           
  2147                           ;psect for function _p9
  2148  00FA                     _p9:
  2149  00FA                     l1386:	
  2150                           ;incstack = 0
  2151                           ; Regs used in _p9: [wreg]
  2152                           
  2153                           
  2154                           ;main.c: 73:     PORTB = 0b01100111;
  2155  00FA  3067               	movlw	103
  2156  00FB  0020               	movlb	0	; select bank0
  2157  00FC  008D               	movwf	13	;volatile
  2158  00FD                     l139:
  2159  00FD  0008               	return
  2160  00FE                     __end_of_p9:
  2161                           
  2162                           	psect	text4
  2163  00F6                     __ptext4:	
  2164 ;; *************** function _p8 *****************
  2165 ;; Defined at:
  2166 ;;		line 69 in file "main.c"
  2167 ;; Parameters:    Size  Location     Type
  2168 ;;		None
  2169 ;; Auto vars:     Size  Location     Type
  2170 ;;		None
  2171 ;; Return value:  Size  Location     Type
  2172 ;;                  1    wreg      void 
  2173 ;; Registers used:
  2174 ;;		wreg
  2175 ;; Tracked objects:
  2176 ;;		On entry : 0/0
  2177 ;;		On exit  : 0/0
  2178 ;;		Unchanged: 0/0
  2179 ;; Data sizes:     COMMON   BANK0   BANK1   BANK2   BANK3   BANK4
  2180 ;;      Params:         0       0       0       0       0       0
  2181 ;;      Locals:         0       0       0       0       0       0
  2182 ;;      Temps:          0       0       0       0       0       0
  2183 ;;      Totals:         0       0       0       0       0       0
  2184 ;;Total ram usage:        0 bytes
  2185 ;; Hardware stack levels used:    1
  2186 ;; This function calls:
  2187 ;;		Nothing
  2188 ;; This function is called by:
  2189 ;;		_display2
  2190 ;;		_display3
  2191 ;; This function uses a non-reentrant model
  2192 ;;
  2193                           
  2194                           
  2195                           ;psect for function _p8
  2196  00F6                     _p8:
  2197  00F6                     l1384:	
  2198                           ;incstack = 0
  2199                           ; Regs used in _p8: [wreg]
  2200                           
  2201                           
  2202                           ;main.c: 70:     PORTB = 0b01111111;
  2203  00F6  307F               	movlw	127
  2204  00F7  0020               	movlb	0	; select bank0
  2205  00F8  008D               	movwf	13	;volatile
  2206  00F9                     l136:
  2207  00F9  0008               	return
  2208  00FA                     __end_of_p8:
  2209                           
  2210                           	psect	text5
  2211  00F2                     __ptext5:	
  2212 ;; *************** function _p7 *****************
  2213 ;; Defined at:
  2214 ;;		line 66 in file "main.c"
  2215 ;; Parameters:    Size  Location     Type
  2216 ;;		None
  2217 ;; Auto vars:     Size  Location     Type
  2218 ;;		None
  2219 ;; Return value:  Size  Location     Type
  2220 ;;                  1    wreg      void 
  2221 ;; Registers used:
  2222 ;;		wreg
  2223 ;; Tracked objects:
  2224 ;;		On entry : 0/0
  2225 ;;		On exit  : 0/0
  2226 ;;		Unchanged: 0/0
  2227 ;; Data sizes:     COMMON   BANK0   BANK1   BANK2   BANK3   BANK4
  2228 ;;      Params:         0       0       0       0       0       0
  2229 ;;      Locals:         0       0       0       0       0       0
  2230 ;;      Temps:          0       0       0       0       0       0
  2231 ;;      Totals:         0       0       0       0       0       0
  2232 ;;Total ram usage:        0 bytes
  2233 ;; Hardware stack levels used:    1
  2234 ;; This function calls:
  2235 ;;		Nothing
  2236 ;; This function is called by:
  2237 ;;		_display2
  2238 ;;		_display3
  2239 ;; This function uses a non-reentrant model
  2240 ;;
  2241                           
  2242                           
  2243                           ;psect for function _p7
  2244  00F2                     _p7:
  2245  00F2                     l1382:	
  2246                           ;incstack = 0
  2247                           ; Regs used in _p7: [wreg]
  2248                           
  2249                           
  2250                           ;main.c: 67:     PORTB = 0b00000111;
  2251  00F2  3007               	movlw	7
  2252  00F3  0020               	movlb	0	; select bank0
  2253  00F4  008D               	movwf	13	;volatile
  2254  00F5                     l133:
  2255  00F5  0008               	return
  2256  00F6                     __end_of_p7:
  2257                           
  2258                           	psect	text6
  2259  00EE                     __ptext6:	
  2260 ;; *************** function _p6 *****************
  2261 ;; Defined at:
  2262 ;;		line 63 in file "main.c"
  2263 ;; Parameters:    Size  Location     Type
  2264 ;;		None
  2265 ;; Auto vars:     Size  Location     Type
  2266 ;;		None
  2267 ;; Return value:  Size  Location     Type
  2268 ;;                  1    wreg      void 
  2269 ;; Registers used:
  2270 ;;		wreg
  2271 ;; Tracked objects:
  2272 ;;		On entry : 0/0
  2273 ;;		On exit  : 0/0
  2274 ;;		Unchanged: 0/0
  2275 ;; Data sizes:     COMMON   BANK0   BANK1   BANK2   BANK3   BANK4
  2276 ;;      Params:         0       0       0       0       0       0
  2277 ;;      Locals:         0       0       0       0       0       0
  2278 ;;      Temps:          0       0       0       0       0       0
  2279 ;;      Totals:         0       0       0       0       0       0
  2280 ;;Total ram usage:        0 bytes
  2281 ;; Hardware stack levels used:    1
  2282 ;; This function calls:
  2283 ;;		Nothing
  2284 ;; This function is called by:
  2285 ;;		_display2
  2286 ;;		_display3
  2287 ;; This function uses a non-reentrant model
  2288 ;;
  2289                           
  2290                           
  2291                           ;psect for function _p6
  2292  00EE                     _p6:
  2293  00EE                     l1380:	
  2294                           ;incstack = 0
  2295                           ; Regs used in _p6: [wreg]
  2296                           
  2297                           
  2298                           ;main.c: 64:     PORTB = 0b01111101;
  2299  00EE  307D               	movlw	125
  2300  00EF  0020               	movlb	0	; select bank0
  2301  00F0  008D               	movwf	13	;volatile
  2302  00F1                     l130:
  2303  00F1  0008               	return
  2304  00F2                     __end_of_p6:
  2305                           
  2306                           	psect	text7
  2307  00EA                     __ptext7:	
  2308 ;; *************** function _p5 *****************
  2309 ;; Defined at:
  2310 ;;		line 60 in file "main.c"
  2311 ;; Parameters:    Size  Location     Type
  2312 ;;		None
  2313 ;; Auto vars:     Size  Location     Type
  2314 ;;		None
  2315 ;; Return value:  Size  Location     Type
  2316 ;;                  1    wreg      void 
  2317 ;; Registers used:
  2318 ;;		wreg
  2319 ;; Tracked objects:
  2320 ;;		On entry : 0/0
  2321 ;;		On exit  : 0/0
  2322 ;;		Unchanged: 0/0
  2323 ;; Data sizes:     COMMON   BANK0   BANK1   BANK2   BANK3   BANK4
  2324 ;;      Params:         0       0       0       0       0       0
  2325 ;;      Locals:         0       0       0       0       0       0
  2326 ;;      Temps:          0       0       0       0       0       0
  2327 ;;      Totals:         0       0       0       0       0       0
  2328 ;;Total ram usage:        0 bytes
  2329 ;; Hardware stack levels used:    1
  2330 ;; This function calls:
  2331 ;;		Nothing
  2332 ;; This function is called by:
  2333 ;;		_display2
  2334 ;;		_display3
  2335 ;; This function uses a non-reentrant model
  2336 ;;
  2337                           
  2338                           
  2339                           ;psect for function _p5
  2340  00EA                     _p5:
  2341  00EA                     l1378:	
  2342                           ;incstack = 0
  2343                           ; Regs used in _p5: [wreg]
  2344                           
  2345                           
  2346                           ;main.c: 61:     PORTB = 0b01101101;
  2347  00EA  306D               	movlw	109
  2348  00EB  0020               	movlb	0	; select bank0
  2349  00EC  008D               	movwf	13	;volatile
  2350  00ED                     l127:
  2351  00ED  0008               	return
  2352  00EE                     __end_of_p5:
  2353                           
  2354                           	psect	text8
  2355  00E6                     __ptext8:	
  2356 ;; *************** function _p4 *****************
  2357 ;; Defined at:
  2358 ;;		line 57 in file "main.c"
  2359 ;; Parameters:    Size  Location     Type
  2360 ;;		None
  2361 ;; Auto vars:     Size  Location     Type
  2362 ;;		None
  2363 ;; Return value:  Size  Location     Type
  2364 ;;                  1    wreg      void 
  2365 ;; Registers used:
  2366 ;;		wreg
  2367 ;; Tracked objects:
  2368 ;;		On entry : 0/0
  2369 ;;		On exit  : 0/0
  2370 ;;		Unchanged: 0/0
  2371 ;; Data sizes:     COMMON   BANK0   BANK1   BANK2   BANK3   BANK4
  2372 ;;      Params:         0       0       0       0       0       0
  2373 ;;      Locals:         0       0       0       0       0       0
  2374 ;;      Temps:          0       0       0       0       0       0
  2375 ;;      Totals:         0       0       0       0       0       0
  2376 ;;Total ram usage:        0 bytes
  2377 ;; Hardware stack levels used:    1
  2378 ;; This function calls:
  2379 ;;		Nothing
  2380 ;; This function is called by:
  2381 ;;		_display2
  2382 ;;		_display3
  2383 ;; This function uses a non-reentrant model
  2384 ;;
  2385                           
  2386                           
  2387                           ;psect for function _p4
  2388  00E6                     _p4:
  2389  00E6                     l1376:	
  2390                           ;incstack = 0
  2391                           ; Regs used in _p4: [wreg]
  2392                           
  2393                           
  2394                           ;main.c: 58:     PORTB = 0b01100110;
  2395  00E6  3066               	movlw	102
  2396  00E7  0020               	movlb	0	; select bank0
  2397  00E8  008D               	movwf	13	;volatile
  2398  00E9                     l124:
  2399  00E9  0008               	return
  2400  00EA                     __end_of_p4:
  2401                           
  2402                           	psect	text9
  2403  00E2                     __ptext9:	
  2404 ;; *************** function _p3 *****************
  2405 ;; Defined at:
  2406 ;;		line 54 in file "main.c"
  2407 ;; Parameters:    Size  Location     Type
  2408 ;;		None
  2409 ;; Auto vars:     Size  Location     Type
  2410 ;;		None
  2411 ;; Return value:  Size  Location     Type
  2412 ;;                  1    wreg      void 
  2413 ;; Registers used:
  2414 ;;		wreg
  2415 ;; Tracked objects:
  2416 ;;		On entry : 0/0
  2417 ;;		On exit  : 0/0
  2418 ;;		Unchanged: 0/0
  2419 ;; Data sizes:     COMMON   BANK0   BANK1   BANK2   BANK3   BANK4
  2420 ;;      Params:         0       0       0       0       0       0
  2421 ;;      Locals:         0       0       0       0       0       0
  2422 ;;      Temps:          0       0       0       0       0       0
  2423 ;;      Totals:         0       0       0       0       0       0
  2424 ;;Total ram usage:        0 bytes
  2425 ;; Hardware stack levels used:    1
  2426 ;; This function calls:
  2427 ;;		Nothing
  2428 ;; This function is called by:
  2429 ;;		_display2
  2430 ;; This function uses a non-reentrant model
  2431 ;;
  2432                           
  2433                           
  2434                           ;psect for function _p3
  2435  00E2                     _p3:
  2436  00E2                     l1374:	
  2437                           ;incstack = 0
  2438                           ; Regs used in _p3: [wreg]
  2439                           
  2440                           
  2441                           ;main.c: 55:     PORTB = 0b01001111;
  2442  00E2  304F               	movlw	79
  2443  00E3  0020               	movlb	0	; select bank0
  2444  00E4  008D               	movwf	13	;volatile
  2445  00E5                     l121:
  2446  00E5  0008               	return
  2447  00E6                     __end_of_p3:
  2448                           
  2449                           	psect	text10
  2450  00DE                     __ptext10:	
  2451 ;; *************** function _p2 *****************
  2452 ;; Defined at:
  2453 ;;		line 51 in file "main.c"
  2454 ;; Parameters:    Size  Location     Type
  2455 ;;		None
  2456 ;; Auto vars:     Size  Location     Type
  2457 ;;		None
  2458 ;; Return value:  Size  Location     Type
  2459 ;;                  1    wreg      void 
  2460 ;; Registers used:
  2461 ;;		wreg
  2462 ;; Tracked objects:
  2463 ;;		On entry : 0/0
  2464 ;;		On exit  : 0/0
  2465 ;;		Unchanged: 0/0
  2466 ;; Data sizes:     COMMON   BANK0   BANK1   BANK2   BANK3   BANK4
  2467 ;;      Params:         0       0       0       0       0       0
  2468 ;;      Locals:         0       0       0       0       0       0
  2469 ;;      Temps:          0       0       0       0       0       0
  2470 ;;      Totals:         0       0       0       0       0       0
  2471 ;;Total ram usage:        0 bytes
  2472 ;; Hardware stack levels used:    1
  2473 ;; This function calls:
  2474 ;;		Nothing
  2475 ;; This function is called by:
  2476 ;;		_display2
  2477 ;; This function uses a non-reentrant model
  2478 ;;
  2479                           
  2480                           
  2481                           ;psect for function _p2
  2482  00DE                     _p2:
  2483  00DE                     l1372:	
  2484                           ;incstack = 0
  2485                           ; Regs used in _p2: [wreg]
  2486                           
  2487                           
  2488                           ;main.c: 52:     PORTB = 0b01011011;
  2489  00DE  305B               	movlw	91
  2490  00DF  0020               	movlb	0	; select bank0
  2491  00E0  008D               	movwf	13	;volatile
  2492  00E1                     l118:
  2493  00E1  0008               	return
  2494  00E2                     __end_of_p2:
  2495                           
  2496                           	psect	text11
  2497  00DA                     __ptext11:	
  2498 ;; *************** function _p1 *****************
  2499 ;; Defined at:
  2500 ;;		line 48 in file "main.c"
  2501 ;; Parameters:    Size  Location     Type
  2502 ;;		None
  2503 ;; Auto vars:     Size  Location     Type
  2504 ;;		None
  2505 ;; Return value:  Size  Location     Type
  2506 ;;                  1    wreg      void 
  2507 ;; Registers used:
  2508 ;;		wreg
  2509 ;; Tracked objects:
  2510 ;;		On entry : 0/0
  2511 ;;		On exit  : 0/0
  2512 ;;		Unchanged: 0/0
  2513 ;; Data sizes:     COMMON   BANK0   BANK1   BANK2   BANK3   BANK4
  2514 ;;      Params:         0       0       0       0       0       0
  2515 ;;      Locals:         0       0       0       0       0       0
  2516 ;;      Temps:          0       0       0       0       0       0
  2517 ;;      Totals:         0       0       0       0       0       0
  2518 ;;Total ram usage:        0 bytes
  2519 ;; Hardware stack levels used:    1
  2520 ;; This function calls:
  2521 ;;		Nothing
  2522 ;; This function is called by:
  2523 ;;		_display2
  2524 ;; This function uses a non-reentrant model
  2525 ;;
  2526                           
  2527                           
  2528                           ;psect for function _p1
  2529  00DA                     _p1:
  2530  00DA                     l1370:	
  2531                           ;incstack = 0
  2532                           ; Regs used in _p1: [wreg]
  2533                           
  2534                           
  2535                           ;main.c: 49:     PORTB = 0b00000110;
  2536  00DA  3006               	movlw	6
  2537  00DB  0020               	movlb	0	; select bank0
  2538  00DC  008D               	movwf	13	;volatile
  2539  00DD                     l115:
  2540  00DD  0008               	return
  2541  00DE                     __end_of_p1:
  2542                           
  2543                           	psect	text12
  2544  00D6                     __ptext12:	
  2545 ;; *************** function _p0 *****************
  2546 ;; Defined at:
  2547 ;;		line 45 in file "main.c"
  2548 ;; Parameters:    Size  Location     Type
  2549 ;;		None
  2550 ;; Auto vars:     Size  Location     Type
  2551 ;;		None
  2552 ;; Return value:  Size  Location     Type
  2553 ;;                  1    wreg      void 
  2554 ;; Registers used:
  2555 ;;		wreg
  2556 ;; Tracked objects:
  2557 ;;		On entry : 0/0
  2558 ;;		On exit  : 0/0
  2559 ;;		Unchanged: 0/0
  2560 ;; Data sizes:     COMMON   BANK0   BANK1   BANK2   BANK3   BANK4
  2561 ;;      Params:         0       0       0       0       0       0
  2562 ;;      Locals:         0       0       0       0       0       0
  2563 ;;      Temps:          0       0       0       0       0       0
  2564 ;;      Totals:         0       0       0       0       0       0
  2565 ;;Total ram usage:        0 bytes
  2566 ;; Hardware stack levels used:    1
  2567 ;; This function calls:
  2568 ;;		Nothing
  2569 ;; This function is called by:
  2570 ;;		_display2
  2571 ;; This function uses a non-reentrant model
  2572 ;;
  2573                           
  2574                           
  2575                           ;psect for function _p0
  2576  00D6                     _p0:
  2577  00D6                     l1368:	
  2578                           ;incstack = 0
  2579                           ; Regs used in _p0: [wreg]
  2580                           
  2581                           
  2582                           ;main.c: 46:     PORTB=0b00111111;
  2583  00D6  303F               	movlw	63
  2584  00D7  0020               	movlb	0	; select bank0
  2585  00D8  008D               	movwf	13	;volatile
  2586  00D9                     l112:
  2587  00D9  0008               	return
  2588  00DA                     __end_of_p0:
  2589                           
  2590                           	psect	text13
  2591  01A4                     __ptext13:	
  2592 ;; *************** function _display1 *****************
  2593 ;; Defined at:
  2594 ;;		line 80 in file "main.c"
  2595 ;; Parameters:    Size  Location     Type
  2596 ;;  a               2    0[COMMON] int 
  2597 ;; Auto vars:     Size  Location     Type
  2598 ;;		None
  2599 ;; Return value:  Size  Location     Type
  2600 ;;                  2    0[COMMON] int 
  2601 ;; Registers used:
  2602 ;;		wreg, status,2, status,0
  2603 ;; Tracked objects:
  2604 ;;		On entry : 0/0
  2605 ;;		On exit  : 0/0
  2606 ;;		Unchanged: 0/0
  2607 ;; Data sizes:     COMMON   BANK0   BANK1   BANK2   BANK3   BANK4
  2608 ;;      Params:         2       0       0       0       0       0
  2609 ;;      Locals:         0       0       0       0       0       0
  2610 ;;      Temps:          1       0       0       0       0       0
  2611 ;;      Totals:         3       0       0       0       0       0
  2612 ;;Total ram usage:        3 bytes
  2613 ;; Hardware stack levels used:    1
  2614 ;; This function calls:
  2615 ;;		Nothing
  2616 ;; This function is called by:
  2617 ;;		_main
  2618 ;; This function uses a non-reentrant model
  2619 ;;
  2620                           
  2621                           
  2622                           ;psect for function _display1
  2623  01A4                     _display1:
  2624  01A4                     l1406:	
  2625                           ;incstack = 0
  2626                           ; Regs used in _display1: [wreg+status,2+status,0]
  2627                           
  2628                           
  2629                           ;main.c: 81:     PORTAbits.RA0 = 1;
  2630  01A4  0020               	movlb	0	; select bank0
  2631  01A5  140C               	bsf	12,0	;volatile
  2632                           
  2633                           ;main.c: 82:     PORTAbits.RA1 = 0;
  2634  01A6  108C               	bcf	12,1	;volatile
  2635  01A7                     l1408:
  2636                           
  2637                           ;main.c: 83:     if (a==0){
  2638  01A7  0870               	movf	display1@a,w
  2639  01A8  0471               	iorwf	display1@a+1,w
  2640  01A9  1D03               	btfss	3,2
  2641  01AA  29AC               	goto	u1031
  2642  01AB  29AD               	goto	u1030
  2643  01AC                     u1031:
  2644  01AC  29B7               	goto	l1412
  2645  01AD                     u1030:
  2646  01AD                     l1410:
  2647                           
  2648                           ;main.c: 84:         PORTB=0b10111111;
  2649  01AD  30BF               	movlw	191
  2650  01AE  008D               	movwf	13	;volatile
  2651                           
  2652                           ;main.c: 85:         _delay((unsigned long)((30)*(4000000/4000.0)));
  2653  01AF  3027               	movlw	39
  2654  01B0  00F2               	movwf	??_display1
  2655  01B1  30F5               	movlw	245
  2656  01B2                     u2197:
  2657  01B2  0B89               	decfsz	9,f
  2658  01B3  29B2               	goto	u2197
  2659  01B4  0BF2               	decfsz	??_display1,f
  2660  01B5  29B2               	goto	u2197
  2661  01B6  0000               	nop
  2662  01B7                     l1412:
  2663                           
  2664                           ;main.c: 87:      if (a==1){
  2665  01B7  0370               	decf	display1@a,w
  2666  01B8  0471               	iorwf	display1@a+1,w
  2667  01B9  1D03               	btfss	3,2
  2668  01BA  29BC               	goto	u1041
  2669  01BB  29BD               	goto	u1040
  2670  01BC                     u1041:
  2671  01BC  29C8               	goto	l1416
  2672  01BD                     u1040:
  2673  01BD                     l1414:
  2674                           
  2675                           ;main.c: 88:         PORTB = 0b10000110;
  2676  01BD  3086               	movlw	134
  2677  01BE  0020               	movlb	0	; select bank0
  2678  01BF  008D               	movwf	13	;volatile
  2679                           
  2680                           ;main.c: 89:         _delay((unsigned long)((30)*(4000000/4000.0)));
  2681  01C0  3027               	movlw	39
  2682  01C1  00F2               	movwf	??_display1
  2683  01C2  30F5               	movlw	245
  2684  01C3                     u2207:
  2685  01C3  0B89               	decfsz	9,f
  2686  01C4  29C3               	goto	u2207
  2687  01C5  0BF2               	decfsz	??_display1,f
  2688  01C6  29C3               	goto	u2207
  2689  01C7  0000               	nop
  2690  01C8                     l1416:
  2691                           
  2692                           ;main.c: 91:       if (a==2){
  2693  01C8  3002               	movlw	2
  2694  01C9  0670               	xorwf	display1@a,w
  2695  01CA  0471               	iorwf	display1@a+1,w
  2696  01CB  1D03               	btfss	3,2
  2697  01CC  29CE               	goto	u1051
  2698  01CD  29CF               	goto	u1050
  2699  01CE                     u1051:
  2700  01CE  29DA               	goto	l1420
  2701  01CF                     u1050:
  2702  01CF                     l1418:
  2703                           
  2704                           ;main.c: 92:         PORTB = 0b11011011;
  2705  01CF  30DB               	movlw	219
  2706  01D0  0020               	movlb	0	; select bank0
  2707  01D1  008D               	movwf	13	;volatile
  2708                           
  2709                           ;main.c: 93:         _delay((unsigned long)((30)*(4000000/4000.0)));
  2710  01D2  3027               	movlw	39
  2711  01D3  00F2               	movwf	??_display1
  2712  01D4  30F5               	movlw	245
  2713  01D5                     u2217:
  2714  01D5  0B89               	decfsz	9,f
  2715  01D6  29D5               	goto	u2217
  2716  01D7  0BF2               	decfsz	??_display1,f
  2717  01D8  29D5               	goto	u2217
  2718  01D9  0000               	nop
  2719  01DA                     l1420:
  2720                           
  2721                           ;main.c: 95:        if (a==3){
  2722  01DA  3003               	movlw	3
  2723  01DB  0670               	xorwf	display1@a,w
  2724  01DC  0471               	iorwf	display1@a+1,w
  2725  01DD  1D03               	btfss	3,2
  2726  01DE  29E0               	goto	u1061
  2727  01DF  29E1               	goto	u1060
  2728  01E0                     u1061:
  2729  01E0  29EC               	goto	l1424
  2730  01E1                     u1060:
  2731  01E1                     l1422:
  2732                           
  2733                           ;main.c: 96:         PORTB = 0b11001111;
  2734  01E1  30CF               	movlw	207
  2735  01E2  0020               	movlb	0	; select bank0
  2736  01E3  008D               	movwf	13	;volatile
  2737                           
  2738                           ;main.c: 97:         _delay((unsigned long)((30)*(4000000/4000.0)));
  2739  01E4  3027               	movlw	39
  2740  01E5  00F2               	movwf	??_display1
  2741  01E6  30F5               	movlw	245
  2742  01E7                     u2227:
  2743  01E7  0B89               	decfsz	9,f
  2744  01E8  29E7               	goto	u2227
  2745  01E9  0BF2               	decfsz	??_display1,f
  2746  01EA  29E7               	goto	u2227
  2747  01EB  0000               	nop
  2748  01EC                     l1424:
  2749                           
  2750                           ;main.c: 99:       if (a==4){
  2751  01EC  3004               	movlw	4
  2752  01ED  0670               	xorwf	display1@a,w
  2753  01EE  0471               	iorwf	display1@a+1,w
  2754  01EF  1D03               	btfss	3,2
  2755  01F0  29F2               	goto	u1071
  2756  01F1  29F3               	goto	u1070
  2757  01F2                     u1071:
  2758  01F2  29FE               	goto	l155
  2759  01F3                     u1070:
  2760  01F3                     l1426:
  2761                           
  2762                           ;main.c: 100:         PORTB = 0b11100110;
  2763  01F3  30E6               	movlw	230
  2764  01F4  0020               	movlb	0	; select bank0
  2765  01F5  008D               	movwf	13	;volatile
  2766                           
  2767                           ;main.c: 101:         _delay((unsigned long)((30)*(4000000/4000.0)));
  2768  01F6  3027               	movlw	39
  2769  01F7  00F2               	movwf	??_display1
  2770  01F8  30F5               	movlw	245
  2771  01F9                     u2237:
  2772  01F9  0B89               	decfsz	9,f
  2773  01FA  29F9               	goto	u2237
  2774  01FB  0BF2               	decfsz	??_display1,f
  2775  01FC  29F9               	goto	u2237
  2776  01FD  0000               	nop
  2777  01FE                     l155:
  2778  01FE  0008               	return
  2779  01FF                     __end_of_display1:
  2780                           
  2781                           	psect	text14
  2782  02D3                     __ptext14:	
  2783 ;; *************** function ___xxtofl *****************
  2784 ;; Defined at:
  2785 ;;		line 10 in file "C:\Program Files\Microchip\xc8\v2.31\pic\sources\c99\common\xxtofl.c"
  2786 ;; Parameters:    Size  Location     Type
  2787 ;;  sign            1    wreg     unsigned char 
  2788 ;;  val             4    0[COMMON] long 
  2789 ;; Auto vars:     Size  Location     Type
  2790 ;;  sign            1    8[COMMON] unsigned char 
  2791 ;;  arg             4   10[COMMON] unsigned long 
  2792 ;;  exp             1    9[COMMON] unsigned char 
  2793 ;; Return value:  Size  Location     Type
  2794 ;;                  4    0[COMMON] unsigned char 
  2795 ;; Registers used:
  2796 ;;		wreg, status,2, status,0
  2797 ;; Tracked objects:
  2798 ;;		On entry : 0/0
  2799 ;;		On exit  : 0/0
  2800 ;;		Unchanged: 0/0
  2801 ;; Data sizes:     COMMON   BANK0   BANK1   BANK2   BANK3   BANK4
  2802 ;;      Params:         4       0       0       0       0       0
  2803 ;;      Locals:         6       0       0       0       0       0
  2804 ;;      Temps:          4       0       0       0       0       0
  2805 ;;      Totals:        14       0       0       0       0       0
  2806 ;;Total ram usage:       14 bytes
  2807 ;; Hardware stack levels used:    1
  2808 ;; This function calls:
  2809 ;;		Nothing
  2810 ;; This function is called by:
  2811 ;;		_main
  2812 ;; This function uses a non-reentrant model
  2813 ;;
  2814                           
  2815                           
  2816                           ;psect for function ___xxtofl
  2817  02D3                     ___xxtofl:
  2818                           
  2819                           ;incstack = 0
  2820                           ; Regs used in ___xxtofl: [wreg+status,2+status,0]
  2821                           ;___xxtofl@sign stored from wreg
  2822  02D3  00F8               	movwf	___xxtofl@sign
  2823  02D4                     l1802:
  2824  02D4  0878               	movf	___xxtofl@sign,w
  2825  02D5  1903               	btfsc	3,2
  2826  02D6  2AD8               	goto	u1831
  2827  02D7  2AD9               	goto	u1830
  2828  02D8                     u1831:
  2829  02D8  2AED               	goto	l1808
  2830  02D9                     u1830:
  2831  02D9                     l1804:
  2832  02D9  1FF3               	btfss	___xxtofl@val+3,7
  2833  02DA  2ADC               	goto	u1841
  2834  02DB  2ADD               	goto	u1840
  2835  02DC                     u1841:
  2836  02DC  2AED               	goto	l1808
  2837  02DD                     u1840:
  2838  02DD                     l1806:
  2839  02DD  0970               	comf	___xxtofl@val,w
  2840  02DE  00FA               	movwf	___xxtofl@arg
  2841  02DF  0971               	comf	___xxtofl@val+1,w
  2842  02E0  00FB               	movwf	___xxtofl@arg+1
  2843  02E1  0972               	comf	___xxtofl@val+2,w
  2844  02E2  00FC               	movwf	___xxtofl@arg+2
  2845  02E3  0973               	comf	___xxtofl@val+3,w
  2846  02E4  00FD               	movwf	___xxtofl@arg+3
  2847  02E5  0AFA               	incf	___xxtofl@arg,f
  2848  02E6  1903               	skipnz
  2849  02E7  0AFB               	incf	___xxtofl@arg+1,f
  2850  02E8  1903               	skipnz
  2851  02E9  0AFC               	incf	___xxtofl@arg+2,f
  2852  02EA  1903               	skipnz
  2853  02EB  0AFD               	incf	___xxtofl@arg+3,f
  2854  02EC  2AF5               	goto	l785
  2855  02ED                     l1808:
  2856  02ED  0873               	movf	___xxtofl@val+3,w
  2857  02EE  00FD               	movwf	___xxtofl@arg+3
  2858  02EF  0872               	movf	___xxtofl@val+2,w
  2859  02F0  00FC               	movwf	___xxtofl@arg+2
  2860  02F1  0871               	movf	___xxtofl@val+1,w
  2861  02F2  00FB               	movwf	___xxtofl@arg+1
  2862  02F3  0870               	movf	___xxtofl@val,w
  2863  02F4  00FA               	movwf	___xxtofl@arg
  2864  02F5                     l785:
  2865  02F5  0873               	movf	___xxtofl@val+3,w
  2866  02F6  0472               	iorwf	___xxtofl@val+2,w
  2867  02F7  0471               	iorwf	___xxtofl@val+1,w
  2868  02F8  0470               	iorwf	___xxtofl@val,w
  2869  02F9  1D03               	skipz
  2870  02FA  2AFC               	goto	u1851
  2871  02FB  2AFD               	goto	u1850
  2872  02FC                     u1851:
  2873  02FC  2B06               	goto	l1814
  2874  02FD                     u1850:
  2875  02FD                     l1810:
  2876  02FD  3000               	movlw	0
  2877  02FE  00F3               	movwf	?___xxtofl+3
  2878  02FF  3000               	movlw	0
  2879  0300  00F2               	movwf	?___xxtofl+2
  2880  0301  3000               	movlw	0
  2881  0302  00F1               	movwf	?___xxtofl+1
  2882  0303  3000               	movlw	0
  2883  0304  00F0               	movwf	?___xxtofl
  2884  0305  2B7E               	goto	l787
  2885  0306                     l1814:
  2886  0306  3096               	movlw	150
  2887  0307  00F4               	movwf	??___xxtofl
  2888  0308  0874               	movf	??___xxtofl,w
  2889  0309  00F9               	movwf	___xxtofl@exp
  2890  030A  2B16               	goto	l1818
  2891  030B                     l1816:
  2892  030B  3001               	movlw	1
  2893  030C  00F4               	movwf	??___xxtofl
  2894  030D  0874               	movf	??___xxtofl,w
  2895  030E  07F9               	addwf	___xxtofl@exp,f
  2896  030F  3001               	movlw	1
  2897  0310                     u1865:
  2898  0310  36FD               	lsrf	___xxtofl@arg+3,f
  2899  0311  0CFC               	rrf	___xxtofl@arg+2,f
  2900  0312  0CFB               	rrf	___xxtofl@arg+1,f
  2901  0313  0CFA               	rrf	___xxtofl@arg,f
  2902  0314  0B89               	decfsz	9,f
  2903  0315  2B10               	goto	u1865
  2904  0316                     l1818:
  2905  0316  30FE               	movlw	254
  2906  0317  057D               	andwf	___xxtofl@arg+3,w
  2907  0318  1D03               	btfss	3,2
  2908  0319  2B1B               	goto	u1871
  2909  031A  2B1C               	goto	u1870
  2910  031B                     u1871:
  2911  031B  2B0B               	goto	l1816
  2912  031C                     u1870:
  2913  031C  2B30               	goto	l791
  2914  031D                     l1820:
  2915  031D  3001               	movlw	1
  2916  031E  00F4               	movwf	??___xxtofl
  2917  031F  0874               	movf	??___xxtofl,w
  2918  0320  07F9               	addwf	___xxtofl@exp,f
  2919  0321                     l1822:
  2920  0321  3001               	movlw	1
  2921  0322  07FA               	addwf	___xxtofl@arg,f
  2922  0323  3000               	movlw	0
  2923  0324  3DFB               	addwfc	___xxtofl@arg+1,f
  2924  0325  3000               	movlw	0
  2925  0326  3DFC               	addwfc	___xxtofl@arg+2,f
  2926  0327  3000               	movlw	0
  2927  0328  3DFD               	addwfc	___xxtofl@arg+3,f
  2928  0329                     l1824:
  2929  0329  3001               	movlw	1
  2930  032A                     u1885:
  2931  032A  36FD               	lsrf	___xxtofl@arg+3,f
  2932  032B  0CFC               	rrf	___xxtofl@arg+2,f
  2933  032C  0CFB               	rrf	___xxtofl@arg+1,f
  2934  032D  0CFA               	rrf	___xxtofl@arg,f
  2935  032E  0B89               	decfsz	9,f
  2936  032F  2B2A               	goto	u1885
  2937  0330                     l791:
  2938  0330  30FF               	movlw	255
  2939  0331  057D               	andwf	___xxtofl@arg+3,w
  2940  0332  1D03               	btfss	3,2
  2941  0333  2B35               	goto	u1891
  2942  0334  2B36               	goto	u1890
  2943  0335                     u1891:
  2944  0335  2B1D               	goto	l1820
  2945  0336                     u1890:
  2946  0336  2B40               	goto	l1828
  2947  0337                     l1826:
  2948  0337  3001               	movlw	1
  2949  0338  02F9               	subwf	___xxtofl@exp,f
  2950  0339  3001               	movlw	1
  2951  033A                     u1905:
  2952  033A  35FA               	lslf	___xxtofl@arg,f
  2953  033B  0DFB               	rlf	___xxtofl@arg+1,f
  2954  033C  0DFC               	rlf	___xxtofl@arg+2,f
  2955  033D  0DFD               	rlf	___xxtofl@arg+3,f
  2956  033E  0B89               	decfsz	9,f
  2957  033F  2B3A               	goto	u1905
  2958  0340                     l1828:
  2959  0340  1BFC               	btfsc	___xxtofl@arg+2,7
  2960  0341  2B43               	goto	u1911
  2961  0342  2B44               	goto	u1910
  2962  0343                     u1911:
  2963  0343  2B4A               	goto	l798
  2964  0344                     u1910:
  2965  0344                     l1830:
  2966  0344  3002               	movlw	2
  2967  0345  0279               	subwf	___xxtofl@exp,w
  2968  0346  1803               	skipnc
  2969  0347  2B49               	goto	u1921
  2970  0348  2B4A               	goto	u1920
  2971  0349                     u1921:
  2972  0349  2B37               	goto	l1826
  2973  034A                     u1920:
  2974  034A                     l798:
  2975  034A  1879               	btfsc	___xxtofl@exp,0
  2976  034B  2B4D               	goto	u1931
  2977  034C  2B4E               	goto	u1930
  2978  034D                     u1931:
  2979  034D  2B56               	goto	l799
  2980  034E                     u1930:
  2981  034E                     l1832:
  2982  034E  30FF               	movlw	255
  2983  034F  05FA               	andwf	___xxtofl@arg,f
  2984  0350  30FF               	movlw	255
  2985  0351  05FB               	andwf	___xxtofl@arg+1,f
  2986  0352  307F               	movlw	127
  2987  0353  05FC               	andwf	___xxtofl@arg+2,f
  2988  0354  30FF               	movlw	255
  2989  0355  05FD               	andwf	___xxtofl@arg+3,f
  2990  0356                     l799:
  2991  0356  1003               	clrc
  2992  0357  0CF9               	rrf	___xxtofl@exp,f
  2993  0358                     l1834:
  2994  0358  0879               	movf	___xxtofl@exp,w
  2995  0359  00F4               	movwf	??___xxtofl
  2996  035A  01F5               	clrf	??___xxtofl+1
  2997  035B  01F6               	clrf	??___xxtofl+2
  2998  035C  01F7               	clrf	??___xxtofl+3
  2999  035D  3018               	movlw	24
  3000  035E                     u1945:
  3001  035E  35F4               	lslf	??___xxtofl,f
  3002  035F  0DF5               	rlf	??___xxtofl+1,f
  3003  0360  0DF6               	rlf	??___xxtofl+2,f
  3004  0361  0DF7               	rlf	??___xxtofl+3,f
  3005  0362                     u1940:
  3006  0362  0B89               	decfsz	9,f
  3007  0363  2B5E               	goto	u1945
  3008  0364  0874               	movf	??___xxtofl,w
  3009  0365  04FA               	iorwf	___xxtofl@arg,f
  3010  0366  0875               	movf	??___xxtofl+1,w
  3011  0367  04FB               	iorwf	___xxtofl@arg+1,f
  3012  0368  0876               	movf	??___xxtofl+2,w
  3013  0369  04FC               	iorwf	___xxtofl@arg+2,f
  3014  036A  0877               	movf	??___xxtofl+3,w
  3015  036B  04FD               	iorwf	___xxtofl@arg+3,f
  3016  036C                     l1836:
  3017  036C  0878               	movf	___xxtofl@sign,w
  3018  036D  1903               	btfsc	3,2
  3019  036E  2B70               	goto	u1951
  3020  036F  2B71               	goto	u1950
  3021  0370                     u1951:
  3022  0370  2B76               	goto	l1842
  3023  0371                     u1950:
  3024  0371                     l1838:
  3025  0371  1FF3               	btfss	___xxtofl@val+3,7
  3026  0372  2B74               	goto	u1961
  3027  0373  2B75               	goto	u1960
  3028  0374                     u1961:
  3029  0374  2B76               	goto	l1842
  3030  0375                     u1960:
  3031  0375                     l1840:
  3032  0375  17FD               	bsf	___xxtofl@arg+3,7
  3033  0376                     l1842:
  3034  0376  087D               	movf	___xxtofl@arg+3,w
  3035  0377  00F3               	movwf	?___xxtofl+3
  3036  0378  087C               	movf	___xxtofl@arg+2,w
  3037  0379  00F2               	movwf	?___xxtofl+2
  3038  037A  087B               	movf	___xxtofl@arg+1,w
  3039  037B  00F1               	movwf	?___xxtofl+1
  3040  037C  087A               	movf	___xxtofl@arg,w
  3041  037D  00F0               	movwf	?___xxtofl
  3042  037E                     l787:
  3043  037E  0008               	return
  3044  037F                     __end_of___xxtofl:
  3045                           
  3046                           	psect	text15
  3047  025E                     __ptext15:	
  3048 ;; *************** function ___fltol *****************
  3049 ;; Defined at:
  3050 ;;		line 43 in file "C:\Program Files\Microchip\xc8\v2.31\pic\sources\c99\common\fltol.c"
  3051 ;; Parameters:    Size  Location     Type
  3052 ;;  f1              4   26[BANK0 ] unsigned char 
  3053 ;; Auto vars:     Size  Location     Type
  3054 ;;  exp1            1   36[BANK0 ] unsigned char 
  3055 ;;  sign1           1   35[BANK0 ] unsigned char 
  3056 ;; Return value:  Size  Location     Type
  3057 ;;                  4   26[BANK0 ] long 
  3058 ;; Registers used:
  3059 ;;		wreg, status,2, status,0
  3060 ;; Tracked objects:
  3061 ;;		On entry : 0/0
  3062 ;;		On exit  : 0/0
  3063 ;;		Unchanged: 0/0
  3064 ;; Data sizes:     COMMON   BANK0   BANK1   BANK2   BANK3   BANK4
  3065 ;;      Params:         0       4       0       0       0       0
  3066 ;;      Locals:         0       2       0       0       0       0
  3067 ;;      Temps:          0       5       0       0       0       0
  3068 ;;      Totals:         0      11       0       0       0       0
  3069 ;;Total ram usage:       11 bytes
  3070 ;; Hardware stack levels used:    1
  3071 ;; This function calls:
  3072 ;;		Nothing
  3073 ;; This function is called by:
  3074 ;;		_main
  3075 ;; This function uses a non-reentrant model
  3076 ;;
  3077                           
  3078                           
  3079                           ;psect for function ___fltol
  3080  025E                     ___fltol:
  3081  025E                     l1626:	
  3082                           ;incstack = 0
  3083                           ; Regs used in ___fltol: [wreg+status,2+status,0]
  3084                           
  3085  025E  1003               	clrc
  3086  025F  0020               	movlb	0	; select bank0
  3087  0260  0D3C               	rlf	___fltol@f1+2,w
  3088  0261  0D3D               	rlf	___fltol@f1+3,w
  3089  0262  00BE               	movwf	??___fltol
  3090  0263  083E               	movf	??___fltol,w
  3091  0264  00C4               	movwf	___fltol@exp1
  3092  0265  0844               	movf	___fltol@exp1,w
  3093  0266  1D03               	btfss	3,2
  3094  0267  2A69               	goto	u1471
  3095  0268  2A6A               	goto	u1470
  3096  0269                     u1471:
  3097  0269  2A73               	goto	l1632
  3098  026A                     u1470:
  3099  026A                     l1628:
  3100  026A  3000               	movlw	0
  3101  026B  00BD               	movwf	?___fltol+3
  3102  026C  3000               	movlw	0
  3103  026D  00BC               	movwf	?___fltol+2
  3104  026E  3000               	movlw	0
  3105  026F  00BB               	movwf	?___fltol+1
  3106  0270  3000               	movlw	0
  3107  0271  00BA               	movwf	?___fltol
  3108  0272  2AD2               	goto	l538
  3109  0273                     l1632:
  3110  0273  083A               	movf	___fltol@f1,w
  3111  0274  00BE               	movwf	??___fltol
  3112  0275  083B               	movf	___fltol@f1+1,w
  3113  0276  00BF               	movwf	??___fltol+1
  3114  0277  083C               	movf	___fltol@f1+2,w
  3115  0278  00C0               	movwf	??___fltol+2
  3116  0279  083D               	movf	___fltol@f1+3,w
  3117  027A  00C1               	movwf	??___fltol+3
  3118  027B  301F               	movlw	31
  3119  027C                     u1485:
  3120  027C  36C1               	lsrf	??___fltol+3,f
  3121  027D  0CC0               	rrf	??___fltol+2,f
  3122  027E  0CBF               	rrf	??___fltol+1,f
  3123  027F  0CBE               	rrf	??___fltol,f
  3124  0280                     u1480:
  3125  0280  0B89               	decfsz	9,f
  3126  0281  2A7C               	goto	u1485
  3127  0282  083E               	movf	??___fltol,w
  3128  0283  00C2               	movwf	??___fltol+4
  3129  0284  0842               	movf	??___fltol+4,w
  3130  0285  00C3               	movwf	___fltol@sign1
  3131  0286                     l1634:
  3132  0286  17BC               	bsf	___fltol@f1+2,7
  3133  0287                     l1636:
  3134  0287  30FF               	movlw	255
  3135  0288  05BA               	andwf	___fltol@f1,f
  3136  0289  30FF               	movlw	255
  3137  028A  05BB               	andwf	___fltol@f1+1,f
  3138  028B  30FF               	movlw	255
  3139  028C  05BC               	andwf	___fltol@f1+2,f
  3140  028D  3000               	movlw	0
  3141  028E  05BD               	andwf	___fltol@f1+3,f
  3142  028F                     l1638:
  3143  028F  3096               	movlw	150
  3144  0290  02C4               	subwf	___fltol@exp1,f
  3145  0291                     l1640:
  3146  0291  1FC4               	btfss	___fltol@exp1,7
  3147  0292  2A94               	goto	u1491
  3148  0293  2A95               	goto	u1490
  3149  0294                     u1491:
  3150  0294  2AAD               	goto	l1650
  3151  0295                     u1490:
  3152  0295                     l1642:
  3153  0295  0844               	movf	___fltol@exp1,w
  3154  0296  3A80               	xorlw	128
  3155  0297  3E97               	addlw	151
  3156  0298  1803               	skipnc
  3157  0299  2A9B               	goto	u1501
  3158  029A  2A9C               	goto	u1500
  3159  029B                     u1501:
  3160  029B  2A9D               	goto	l1648
  3161  029C                     u1500:
  3162  029C  2A6A               	goto	l1628
  3163  029D                     l1648:
  3164  029D  3001               	movlw	1
  3165  029E                     u1515:
  3166  029E  36BD               	lsrf	___fltol@f1+3,f
  3167  029F  0CBC               	rrf	___fltol@f1+2,f
  3168  02A0  0CBB               	rrf	___fltol@f1+1,f
  3169  02A1  0CBA               	rrf	___fltol@f1,f
  3170  02A2  0B89               	decfsz	9,f
  3171  02A3  2A9E               	goto	u1515
  3172  02A4  3001               	movlw	1
  3173  02A5  00BE               	movwf	??___fltol
  3174  02A6  083E               	movf	??___fltol,w
  3175  02A7  07C4               	addwf	___fltol@exp1,f
  3176  02A8  1D03               	btfss	3,2
  3177  02A9  2AAB               	goto	u1521
  3178  02AA  2AAC               	goto	u1520
  3179  02AB                     u1521:
  3180  02AB  2A9D               	goto	l1648
  3181  02AC                     u1520:
  3182  02AC  2AC2               	goto	l1658
  3183  02AD                     l1650:
  3184  02AD  3020               	movlw	32
  3185  02AE  0244               	subwf	___fltol@exp1,w
  3186  02AF  1C03               	skipc
  3187  02B0  2AB2               	goto	u1531
  3188  02B1  2AB3               	goto	u1530
  3189  02B2                     u1531:
  3190  02B2  2ABD               	goto	l545
  3191  02B3                     u1530:
  3192  02B3  2A6A               	goto	l1628
  3193  02B4                     l1656:
  3194  02B4  3001               	movlw	1
  3195  02B5                     u1545:
  3196  02B5  35BA               	lslf	___fltol@f1,f
  3197  02B6  0DBB               	rlf	___fltol@f1+1,f
  3198  02B7  0DBC               	rlf	___fltol@f1+2,f
  3199  02B8  0DBD               	rlf	___fltol@f1+3,f
  3200  02B9  0B89               	decfsz	9,f
  3201  02BA  2AB5               	goto	u1545
  3202  02BB  3001               	movlw	1
  3203  02BC  02C4               	subwf	___fltol@exp1,f
  3204  02BD                     l545:
  3205  02BD  0844               	movf	___fltol@exp1,w
  3206  02BE  1D03               	btfss	3,2
  3207  02BF  2AC1               	goto	u1551
  3208  02C0  2AC2               	goto	u1550
  3209  02C1                     u1551:
  3210  02C1  2AB4               	goto	l1656
  3211  02C2                     u1550:
  3212  02C2                     l1658:
  3213  02C2  0843               	movf	___fltol@sign1,w
  3214  02C3  1903               	btfsc	3,2
  3215  02C4  2AC6               	goto	u1561
  3216  02C5  2AC7               	goto	u1560
  3217  02C6                     u1561:
  3218  02C6  2AD2               	goto	l548
  3219  02C7                     u1560:
  3220  02C7                     l1660:
  3221  02C7  09BA               	comf	___fltol@f1,f
  3222  02C8  09BB               	comf	___fltol@f1+1,f
  3223  02C9  09BC               	comf	___fltol@f1+2,f
  3224  02CA  09BD               	comf	___fltol@f1+3,f
  3225  02CB  0ABA               	incf	___fltol@f1,f
  3226  02CC  1903               	skipnz
  3227  02CD  0ABB               	incf	___fltol@f1+1,f
  3228  02CE  1903               	skipnz
  3229  02CF  0ABC               	incf	___fltol@f1+2,f
  3230  02D0  1903               	skipnz
  3231  02D1  0ABD               	incf	___fltol@f1+3,f
  3232  02D2                     l548:
  3233  02D2                     l538:
  3234  02D2  0008               	return
  3235  02D3                     __end_of___fltol:
  3236                           
  3237                           	psect	text16
  3238  0599                     __ptext16:	
  3239 ;; *************** function ___flmul *****************
  3240 ;; Defined at:
  3241 ;;		line 8 in file "C:\Program Files\Microchip\xc8\v2.31\pic\sources\c99\common\sprcmul.c"
  3242 ;; Parameters:    Size  Location     Type
  3243 ;;  b               4    0[BANK0 ] long 
  3244 ;;  a               4    4[BANK0 ] long 
  3245 ;; Auto vars:     Size  Location     Type
  3246 ;;  prod            4   20[BANK0 ] struct .
  3247 ;;  grs             4   14[BANK0 ] unsigned long 
  3248 ;;  temp            2   24[BANK0 ] struct .
  3249 ;;  bexp            1   19[BANK0 ] unsigned char 
  3250 ;;  aexp            1   18[BANK0 ] unsigned char 
  3251 ;;  sign            1   13[BANK0 ] unsigned char 
  3252 ;; Return value:  Size  Location     Type
  3253 ;;                  4    0[BANK0 ] unsigned char 
  3254 ;; Registers used:
  3255 ;;		wreg, status,2, status,0, pclath, cstack
  3256 ;; Tracked objects:
  3257 ;;		On entry : 0/0
  3258 ;;		On exit  : 0/0
  3259 ;;		Unchanged: 0/0
  3260 ;; Data sizes:     COMMON   BANK0   BANK1   BANK2   BANK3   BANK4
  3261 ;;      Params:         0       8       0       0       0       0
  3262 ;;      Locals:         0      13       0       0       0       0
  3263 ;;      Temps:          0       5       0       0       0       0
  3264 ;;      Totals:         0      26       0       0       0       0
  3265 ;;Total ram usage:       26 bytes
  3266 ;; Hardware stack levels used:    1
  3267 ;; Hardware stack levels required when called:    1
  3268 ;; This function calls:
  3269 ;;		__Umul8_16
  3270 ;; This function is called by:
  3271 ;;		_main
  3272 ;; This function uses a non-reentrant model
  3273 ;;
  3274                           
  3275                           
  3276                           ;psect for function ___flmul
  3277  0599                     ___flmul:
  3278  0599                     l1662:	
  3279                           ;incstack = 0
  3280                           ; Regs used in ___flmul: [wreg+status,2+status,0+pclath+cstack]
  3281                           
  3282  0599  0020               	movlb	0	; select bank0
  3283  059A  0823               	movf	___flmul@b+3,w
  3284  059B  3980               	andlw	128
  3285  059C  00A8               	movwf	??___flmul
  3286  059D  0828               	movf	??___flmul,w
  3287  059E  00AD               	movwf	___flmul@sign
  3288  059F                     l1664:
  3289  059F  3523               	lslf	___flmul@b+3,w
  3290  05A0  00A8               	movwf	??___flmul
  3291  05A1  0828               	movf	??___flmul,w
  3292  05A2  00B3               	movwf	___flmul@bexp
  3293  05A3                     l1666:
  3294  05A3  1FA2               	btfss	___flmul@b+2,7
  3295  05A4  2DA6               	goto	u1571
  3296  05A5  2DA7               	goto	u1570
  3297  05A6                     u1571:
  3298  05A6  2DA8               	goto	l1670
  3299  05A7                     u1570:
  3300  05A7                     l1668:
  3301  05A7  1433               	bsf	___flmul@bexp,0
  3302  05A8                     l1670:
  3303  05A8  0833               	movf	___flmul@bexp,w
  3304  05A9  1903               	btfsc	3,2
  3305  05AA  2DAC               	goto	u1581
  3306  05AB  2DAD               	goto	u1580
  3307  05AC                     u1581:
  3308  05AC  2DBC               	goto	l1678
  3309  05AD                     u1580:
  3310  05AD                     l1672:
  3311  05AD  0A33               	incf	___flmul@bexp,w
  3312  05AE  1D03               	btfss	3,2
  3313  05AF  2DB1               	goto	u1591
  3314  05B0  2DB2               	goto	u1590
  3315  05B1                     u1591:
  3316  05B1  2DBA               	goto	l1676
  3317  05B2                     u1590:
  3318  05B2                     l1674:
  3319  05B2  3000               	movlw	0
  3320  05B3  00A3               	movwf	___flmul@b+3
  3321  05B4  3000               	movlw	0
  3322  05B5  00A2               	movwf	___flmul@b+2
  3323  05B6  3000               	movlw	0
  3324  05B7  00A1               	movwf	___flmul@b+1
  3325  05B8  3000               	movlw	0
  3326  05B9  00A0               	movwf	___flmul@b
  3327  05BA                     l1676:
  3328  05BA  17A2               	bsf	___flmul@b+2,7
  3329  05BB  2DC4               	goto	l1680
  3330  05BC                     l1678:
  3331  05BC  3000               	movlw	0
  3332  05BD  00A3               	movwf	___flmul@b+3
  3333  05BE  3000               	movlw	0
  3334  05BF  00A2               	movwf	___flmul@b+2
  3335  05C0  3000               	movlw	0
  3336  05C1  00A1               	movwf	___flmul@b+1
  3337  05C2  3000               	movlw	0
  3338  05C3  00A0               	movwf	___flmul@b
  3339  05C4                     l1680:
  3340  05C4  0827               	movf	___flmul@a+3,w
  3341  05C5  3980               	andlw	128
  3342  05C6  00A8               	movwf	??___flmul
  3343  05C7  0828               	movf	??___flmul,w
  3344  05C8  06AD               	xorwf	___flmul@sign,f
  3345  05C9                     l1682:
  3346  05C9  3527               	lslf	___flmul@a+3,w
  3347  05CA  00A8               	movwf	??___flmul
  3348  05CB  0828               	movf	??___flmul,w
  3349  05CC  00B2               	movwf	___flmul@aexp
  3350  05CD                     l1684:
  3351  05CD  1FA6               	btfss	___flmul@a+2,7
  3352  05CE  2DD0               	goto	u1601
  3353  05CF  2DD1               	goto	u1600
  3354  05D0                     u1601:
  3355  05D0  2DD2               	goto	l1688
  3356  05D1                     u1600:
  3357  05D1                     l1686:
  3358  05D1  1432               	bsf	___flmul@aexp,0
  3359  05D2                     l1688:
  3360  05D2  0832               	movf	___flmul@aexp,w
  3361  05D3  1903               	btfsc	3,2
  3362  05D4  2DD6               	goto	u1611
  3363  05D5  2DD7               	goto	u1610
  3364  05D6                     u1611:
  3365  05D6  2DE6               	goto	l1696
  3366  05D7                     u1610:
  3367  05D7                     l1690:
  3368  05D7  0A32               	incf	___flmul@aexp,w
  3369  05D8  1D03               	btfss	3,2
  3370  05D9  2DDB               	goto	u1621
  3371  05DA  2DDC               	goto	u1620
  3372  05DB                     u1621:
  3373  05DB  2DE4               	goto	l1694
  3374  05DC                     u1620:
  3375  05DC                     l1692:
  3376  05DC  3000               	movlw	0
  3377  05DD  00A7               	movwf	___flmul@a+3
  3378  05DE  3000               	movlw	0
  3379  05DF  00A6               	movwf	___flmul@a+2
  3380  05E0  3000               	movlw	0
  3381  05E1  00A5               	movwf	___flmul@a+1
  3382  05E2  3000               	movlw	0
  3383  05E3  00A4               	movwf	___flmul@a
  3384  05E4                     l1694:
  3385  05E4  17A6               	bsf	___flmul@a+2,7
  3386  05E5  2DEE               	goto	l1698
  3387  05E6                     l1696:
  3388  05E6  3000               	movlw	0
  3389  05E7  00A7               	movwf	___flmul@a+3
  3390  05E8  3000               	movlw	0
  3391  05E9  00A6               	movwf	___flmul@a+2
  3392  05EA  3000               	movlw	0
  3393  05EB  00A5               	movwf	___flmul@a+1
  3394  05EC  3000               	movlw	0
  3395  05ED  00A4               	movwf	___flmul@a
  3396  05EE                     l1698:
  3397  05EE  0832               	movf	___flmul@aexp,w
  3398  05EF  1903               	btfsc	3,2
  3399  05F0  2DF2               	goto	u1631
  3400  05F1  2DF3               	goto	u1630
  3401  05F2                     u1631:
  3402  05F2  2DF8               	goto	l1702
  3403  05F3                     u1630:
  3404  05F3                     l1700:
  3405  05F3  0833               	movf	___flmul@bexp,w
  3406  05F4  1D03               	btfss	3,2
  3407  05F5  2DF7               	goto	u1641
  3408  05F6  2DF8               	goto	u1640
  3409  05F7                     u1641:
  3410  05F7  2E01               	goto	l1706
  3411  05F8                     u1640:
  3412  05F8                     l1702:
  3413  05F8  3000               	movlw	0
  3414  05F9  00A3               	movwf	?___flmul+3
  3415  05FA  3000               	movlw	0
  3416  05FB  00A2               	movwf	?___flmul+2
  3417  05FC  3000               	movlw	0
  3418  05FD  00A1               	movwf	?___flmul+1
  3419  05FE  3000               	movlw	0
  3420  05FF  00A0               	movwf	?___flmul
  3421  0600  2FEF               	goto	l741
  3422  0601                     l1706:
  3423  0601  0820               	movf	___flmul@b,w
  3424  0602  00A8               	movwf	??___flmul
  3425  0603  0828               	movf	??___flmul,w
  3426  0604  00F0               	movwf	__Umul8_16@multiplicand
  3427  0605  0826               	movf	___flmul@a+2,w
  3428  0606  3181  212E  3185   	fcall	__Umul8_16
  3429  0609  0871               	movf	?__Umul8_16+1,w
  3430  060A  0020               	movlb	0	; select bank0
  3431  060B  00B9               	movwf	___flmul@temp+1
  3432  060C  0870               	movf	?__Umul8_16,w
  3433  060D  00B8               	movwf	___flmul@temp
  3434  060E                     l1708:
  3435  060E  0838               	movf	___flmul@temp,w
  3436  060F  00A8               	movwf	??___flmul
  3437  0610  01A9               	clrf	??___flmul+1
  3438  0611  01AA               	clrf	??___flmul+2
  3439  0612  01AB               	clrf	??___flmul+3
  3440  0613  082B               	movf	??___flmul+3,w
  3441  0614  00B1               	movwf	___flmul@grs+3
  3442  0615  082A               	movf	??___flmul+2,w
  3443  0616  00B0               	movwf	___flmul@grs+2
  3444  0617  0829               	movf	??___flmul+1,w
  3445  0618  00AF               	movwf	___flmul@grs+1
  3446  0619  0828               	movf	??___flmul,w
  3447  061A  00AE               	movwf	___flmul@grs
  3448  061B                     l1710:
  3449  061B  0839               	movf	___flmul@temp+1,w
  3450  061C  00A8               	movwf	??___flmul
  3451  061D  01A9               	clrf	??___flmul+1
  3452  061E  01AA               	clrf	??___flmul+2
  3453  061F  01AB               	clrf	??___flmul+3
  3454  0620  082B               	movf	??___flmul+3,w
  3455  0621  00B7               	movwf	___flmul@prod+3
  3456  0622  082A               	movf	??___flmul+2,w
  3457  0623  00B6               	movwf	___flmul@prod+2
  3458  0624  0829               	movf	??___flmul+1,w
  3459  0625  00B5               	movwf	___flmul@prod+1
  3460  0626  0828               	movf	??___flmul,w
  3461  0627  00B4               	movwf	___flmul@prod
  3462  0628  0821               	movf	___flmul@b+1,w
  3463  0629  00A8               	movwf	??___flmul
  3464  062A  0828               	movf	??___flmul,w
  3465  062B  00F0               	movwf	__Umul8_16@multiplicand
  3466  062C  0825               	movf	___flmul@a+1,w
  3467  062D  3181  212E  3185   	fcall	__Umul8_16
  3468  0630  0871               	movf	?__Umul8_16+1,w
  3469  0631  0020               	movlb	0	; select bank0
  3470  0632  00B9               	movwf	___flmul@temp+1
  3471  0633  0870               	movf	?__Umul8_16,w
  3472  0634  00B8               	movwf	___flmul@temp
  3473  0635                     l1712:
  3474  0635  0838               	movf	___flmul@temp,w
  3475  0636  00A8               	movwf	??___flmul
  3476  0637  01A9               	clrf	??___flmul+1
  3477  0638  01AA               	clrf	??___flmul+2
  3478  0639  01AB               	clrf	??___flmul+3
  3479  063A  0828               	movf	??___flmul,w
  3480  063B  07AE               	addwf	___flmul@grs,f
  3481  063C  0829               	movf	??___flmul+1,w
  3482  063D  3DAF               	addwfc	___flmul@grs+1,f
  3483  063E  082A               	movf	??___flmul+2,w
  3484  063F  3DB0               	addwfc	___flmul@grs+2,f
  3485  0640  082B               	movf	??___flmul+3,w
  3486  0641  3DB1               	addwfc	___flmul@grs+3,f
  3487  0642                     l1714:
  3488  0642  0839               	movf	___flmul@temp+1,w
  3489  0643  00A8               	movwf	??___flmul
  3490  0644  01A9               	clrf	??___flmul+1
  3491  0645  01AA               	clrf	??___flmul+2
  3492  0646  01AB               	clrf	??___flmul+3
  3493  0647  0828               	movf	??___flmul,w
  3494  0648  07B4               	addwf	___flmul@prod,f
  3495  0649  0829               	movf	??___flmul+1,w
  3496  064A  3DB5               	addwfc	___flmul@prod+1,f
  3497  064B  082A               	movf	??___flmul+2,w
  3498  064C  3DB6               	addwfc	___flmul@prod+2,f
  3499  064D  082B               	movf	??___flmul+3,w
  3500  064E  3DB7               	addwfc	___flmul@prod+3,f
  3501  064F  0822               	movf	___flmul@b+2,w
  3502  0650  00A8               	movwf	??___flmul
  3503  0651  0828               	movf	??___flmul,w
  3504  0652  00F0               	movwf	__Umul8_16@multiplicand
  3505  0653  0824               	movf	___flmul@a,w
  3506  0654  3181  212E  3185   	fcall	__Umul8_16
  3507  0657  0871               	movf	?__Umul8_16+1,w
  3508  0658  0020               	movlb	0	; select bank0
  3509  0659  00B9               	movwf	___flmul@temp+1
  3510  065A  0870               	movf	?__Umul8_16,w
  3511  065B  00B8               	movwf	___flmul@temp
  3512  065C                     l1716:
  3513  065C  0838               	movf	___flmul@temp,w
  3514  065D  00A8               	movwf	??___flmul
  3515  065E  01A9               	clrf	??___flmul+1
  3516  065F  01AA               	clrf	??___flmul+2
  3517  0660  01AB               	clrf	??___flmul+3
  3518  0661  0828               	movf	??___flmul,w
  3519  0662  07AE               	addwf	___flmul@grs,f
  3520  0663  0829               	movf	??___flmul+1,w
  3521  0664  3DAF               	addwfc	___flmul@grs+1,f
  3522  0665  082A               	movf	??___flmul+2,w
  3523  0666  3DB0               	addwfc	___flmul@grs+2,f
  3524  0667  082B               	movf	??___flmul+3,w
  3525  0668  3DB1               	addwfc	___flmul@grs+3,f
  3526  0669                     l1718:
  3527  0669  0839               	movf	___flmul@temp+1,w
  3528  066A  00A8               	movwf	??___flmul
  3529  066B  01A9               	clrf	??___flmul+1
  3530  066C  01AA               	clrf	??___flmul+2
  3531  066D  01AB               	clrf	??___flmul+3
  3532  066E  0828               	movf	??___flmul,w
  3533  066F  07B4               	addwf	___flmul@prod,f
  3534  0670  0829               	movf	??___flmul+1,w
  3535  0671  3DB5               	addwfc	___flmul@prod+1,f
  3536  0672  082A               	movf	??___flmul+2,w
  3537  0673  3DB6               	addwfc	___flmul@prod+2,f
  3538  0674  082B               	movf	??___flmul+3,w
  3539  0675  3DB7               	addwfc	___flmul@prod+3,f
  3540  0676                     l1720:
  3541  0676  3008               	movlw	8
  3542  0677                     u1655:
  3543  0677  35AE               	lslf	___flmul@grs,f
  3544  0678  0DAF               	rlf	___flmul@grs+1,f
  3545  0679  0DB0               	rlf	___flmul@grs+2,f
  3546  067A  0DB1               	rlf	___flmul@grs+3,f
  3547  067B  0B89               	decfsz	9,f
  3548  067C  2E77               	goto	u1655
  3549  067D                     l1722:
  3550  067D  0821               	movf	___flmul@b+1,w
  3551  067E  00A8               	movwf	??___flmul
  3552  067F  0828               	movf	??___flmul,w
  3553  0680  00F0               	movwf	__Umul8_16@multiplicand
  3554  0681  0824               	movf	___flmul@a,w
  3555  0682  3181  212E  3185   	fcall	__Umul8_16
  3556  0685  0871               	movf	?__Umul8_16+1,w
  3557  0686  0020               	movlb	0	; select bank0
  3558  0687  00B9               	movwf	___flmul@temp+1
  3559  0688  0870               	movf	?__Umul8_16,w
  3560  0689  00B8               	movwf	___flmul@temp
  3561  068A                     l1724:
  3562  068A  0838               	movf	___flmul@temp,w
  3563  068B  07AE               	addwf	___flmul@grs,f
  3564  068C  0839               	movf	___flmul@temp+1,w
  3565  068D  3DAF               	addwfc	___flmul@grs+1,f
  3566  068E  3000               	movlw	0
  3567  068F  3DB0               	addwfc	___flmul@grs+2,f
  3568  0690  3DB1               	addwfc	___flmul@grs+3,f
  3569  0691                     l1726:
  3570  0691  0820               	movf	___flmul@b,w
  3571  0692  00A8               	movwf	??___flmul
  3572  0693  0828               	movf	??___flmul,w
  3573  0694  00F0               	movwf	__Umul8_16@multiplicand
  3574  0695  0825               	movf	___flmul@a+1,w
  3575  0696  3181  212E  3185   	fcall	__Umul8_16
  3576  0699  0871               	movf	?__Umul8_16+1,w
  3577  069A  0020               	movlb	0	; select bank0
  3578  069B  00B9               	movwf	___flmul@temp+1
  3579  069C  0870               	movf	?__Umul8_16,w
  3580  069D  00B8               	movwf	___flmul@temp
  3581  069E                     l1728:
  3582  069E  0838               	movf	___flmul@temp,w
  3583  069F  07AE               	addwf	___flmul@grs,f
  3584  06A0  0839               	movf	___flmul@temp+1,w
  3585  06A1  3DAF               	addwfc	___flmul@grs+1,f
  3586  06A2  3000               	movlw	0
  3587  06A3  3DB0               	addwfc	___flmul@grs+2,f
  3588  06A4  3DB1               	addwfc	___flmul@grs+3,f
  3589  06A5                     l1730:
  3590  06A5  3008               	movlw	8
  3591  06A6                     u1665:
  3592  06A6  35AE               	lslf	___flmul@grs,f
  3593  06A7  0DAF               	rlf	___flmul@grs+1,f
  3594  06A8  0DB0               	rlf	___flmul@grs+2,f
  3595  06A9  0DB1               	rlf	___flmul@grs+3,f
  3596  06AA  0B89               	decfsz	9,f
  3597  06AB  2EA6               	goto	u1665
  3598  06AC  0820               	movf	___flmul@b,w
  3599  06AD  00A8               	movwf	??___flmul
  3600  06AE  0828               	movf	??___flmul,w
  3601  06AF  00F0               	movwf	__Umul8_16@multiplicand
  3602  06B0  0824               	movf	___flmul@a,w
  3603  06B1  3181  212E  3185   	fcall	__Umul8_16
  3604  06B4  0871               	movf	?__Umul8_16+1,w
  3605  06B5  0020               	movlb	0	; select bank0
  3606  06B6  00B9               	movwf	___flmul@temp+1
  3607  06B7  0870               	movf	?__Umul8_16,w
  3608  06B8  00B8               	movwf	___flmul@temp
  3609  06B9                     l1732:
  3610  06B9  0838               	movf	___flmul@temp,w
  3611  06BA  07AE               	addwf	___flmul@grs,f
  3612  06BB  0839               	movf	___flmul@temp+1,w
  3613  06BC  3DAF               	addwfc	___flmul@grs+1,f
  3614  06BD  3000               	movlw	0
  3615  06BE  3DB0               	addwfc	___flmul@grs+2,f
  3616  06BF  3DB1               	addwfc	___flmul@grs+3,f
  3617  06C0                     l1734:
  3618  06C0  0821               	movf	___flmul@b+1,w
  3619  06C1  00A8               	movwf	??___flmul
  3620  06C2  0828               	movf	??___flmul,w
  3621  06C3  00F0               	movwf	__Umul8_16@multiplicand
  3622  06C4  0826               	movf	___flmul@a+2,w
  3623  06C5  3181  212E  3185   	fcall	__Umul8_16
  3624  06C8  0871               	movf	?__Umul8_16+1,w
  3625  06C9  0020               	movlb	0	; select bank0
  3626  06CA  00B9               	movwf	___flmul@temp+1
  3627  06CB  0870               	movf	?__Umul8_16,w
  3628  06CC  00B8               	movwf	___flmul@temp
  3629  06CD  0838               	movf	___flmul@temp,w
  3630  06CE  07B4               	addwf	___flmul@prod,f
  3631  06CF  0839               	movf	___flmul@temp+1,w
  3632  06D0  3DB5               	addwfc	___flmul@prod+1,f
  3633  06D1  3000               	movlw	0
  3634  06D2  3DB6               	addwfc	___flmul@prod+2,f
  3635  06D3  3DB7               	addwfc	___flmul@prod+3,f
  3636  06D4                     l1736:
  3637  06D4  0822               	movf	___flmul@b+2,w
  3638  06D5  00A8               	movwf	??___flmul
  3639  06D6  0828               	movf	??___flmul,w
  3640  06D7  00F0               	movwf	__Umul8_16@multiplicand
  3641  06D8  0825               	movf	___flmul@a+1,w
  3642  06D9  3181  212E  3185   	fcall	__Umul8_16
  3643  06DC  0871               	movf	?__Umul8_16+1,w
  3644  06DD  0020               	movlb	0	; select bank0
  3645  06DE  00B9               	movwf	___flmul@temp+1
  3646  06DF  0870               	movf	?__Umul8_16,w
  3647  06E0  00B8               	movwf	___flmul@temp
  3648  06E1                     l1738:
  3649  06E1  0838               	movf	___flmul@temp,w
  3650  06E2  07B4               	addwf	___flmul@prod,f
  3651  06E3  0839               	movf	___flmul@temp+1,w
  3652  06E4  3DB5               	addwfc	___flmul@prod+1,f
  3653  06E5  3000               	movlw	0
  3654  06E6  3DB6               	addwfc	___flmul@prod+2,f
  3655  06E7  3DB7               	addwfc	___flmul@prod+3,f
  3656  06E8  0822               	movf	___flmul@b+2,w
  3657  06E9  00A8               	movwf	??___flmul
  3658  06EA  0828               	movf	??___flmul,w
  3659  06EB  00F0               	movwf	__Umul8_16@multiplicand
  3660  06EC  0826               	movf	___flmul@a+2,w
  3661  06ED  3181  212E  3185   	fcall	__Umul8_16
  3662  06F0  0871               	movf	?__Umul8_16+1,w
  3663  06F1  0020               	movlb	0	; select bank0
  3664  06F2  00B9               	movwf	___flmul@temp+1
  3665  06F3  0870               	movf	?__Umul8_16,w
  3666  06F4  00B8               	movwf	___flmul@temp
  3667  06F5                     l1740:
  3668  06F5  0838               	movf	___flmul@temp,w
  3669  06F6  00A8               	movwf	??___flmul
  3670  06F7  0839               	movf	___flmul@temp+1,w
  3671  06F8  00A9               	movwf	??___flmul+1
  3672  06F9  01AA               	clrf	??___flmul+2
  3673  06FA  01AB               	clrf	??___flmul+3
  3674  06FB  3008               	movlw	8
  3675  06FC                     u1675:
  3676  06FC  35A8               	lslf	??___flmul,f
  3677  06FD  0DA9               	rlf	??___flmul+1,f
  3678  06FE  0DAA               	rlf	??___flmul+2,f
  3679  06FF  0DAB               	rlf	??___flmul+3,f
  3680  0700                     u1670:
  3681  0700  0B89               	decfsz	9,f
  3682  0701  2EFC               	goto	u1675
  3683  0702  0828               	movf	??___flmul,w
  3684  0703  07B4               	addwf	___flmul@prod,f
  3685  0704  0829               	movf	??___flmul+1,w
  3686  0705  3DB5               	addwfc	___flmul@prod+1,f
  3687  0706  082A               	movf	??___flmul+2,w
  3688  0707  3DB6               	addwfc	___flmul@prod+2,f
  3689  0708  082B               	movf	??___flmul+3,w
  3690  0709  3DB7               	addwfc	___flmul@prod+3,f
  3691  070A                     l1742:
  3692  070A  082E               	movf	___flmul@grs,w
  3693  070B  00A8               	movwf	??___flmul
  3694  070C  082F               	movf	___flmul@grs+1,w
  3695  070D  00A9               	movwf	??___flmul+1
  3696  070E  0830               	movf	___flmul@grs+2,w
  3697  070F  00AA               	movwf	??___flmul+2
  3698  0710  0831               	movf	___flmul@grs+3,w
  3699  0711  00AB               	movwf	??___flmul+3
  3700  0712  3018               	movlw	24
  3701  0713                     u1685:
  3702  0713  36AB               	lsrf	??___flmul+3,f
  3703  0714  0CAA               	rrf	??___flmul+2,f
  3704  0715  0CA9               	rrf	??___flmul+1,f
  3705  0716  0CA8               	rrf	??___flmul,f
  3706  0717                     u1680:
  3707  0717  0B89               	decfsz	9,f
  3708  0718  2F13               	goto	u1685
  3709  0719  0828               	movf	??___flmul,w
  3710  071A  07B4               	addwf	___flmul@prod,f
  3711  071B  0829               	movf	??___flmul+1,w
  3712  071C  3DB5               	addwfc	___flmul@prod+1,f
  3713  071D  082A               	movf	??___flmul+2,w
  3714  071E  3DB6               	addwfc	___flmul@prod+2,f
  3715  071F  082B               	movf	??___flmul+3,w
  3716  0720  3DB7               	addwfc	___flmul@prod+3,f
  3717  0721                     l1744:
  3718  0721  3008               	movlw	8
  3719  0722                     u1695:
  3720  0722  35AE               	lslf	___flmul@grs,f
  3721  0723  0DAF               	rlf	___flmul@grs+1,f
  3722  0724  0DB0               	rlf	___flmul@grs+2,f
  3723  0725  0DB1               	rlf	___flmul@grs+3,f
  3724  0726  0B89               	decfsz	9,f
  3725  0727  2F22               	goto	u1695
  3726  0728                     l1746:
  3727  0728  0833               	movf	___flmul@bexp,w
  3728  0729  0732               	addwf	___flmul@aexp,w
  3729  072A  00A8               	movwf	??___flmul
  3730  072B  01A9               	clrf	??___flmul+1
  3731  072C  0DA9               	rlf	??___flmul+1,f
  3732  072D  0828               	movf	??___flmul,w
  3733  072E  3E82               	addlw	130
  3734  072F  00B8               	movwf	___flmul@temp
  3735  0730  30FF               	movlw	255
  3736  0731  3D29               	addwfc	??___flmul+1,w
  3737  0732  00B9               	movwf	___flmul@temp+1
  3738  0733  2F4B               	goto	l1758
  3739  0734                     l1748:
  3740  0734  3001               	movlw	1
  3741  0735                     u1705:
  3742  0735  35B4               	lslf	___flmul@prod,f
  3743  0736  0DB5               	rlf	___flmul@prod+1,f
  3744  0737  0DB6               	rlf	___flmul@prod+2,f
  3745  0738  0DB7               	rlf	___flmul@prod+3,f
  3746  0739  0B89               	decfsz	9,f
  3747  073A  2F35               	goto	u1705
  3748  073B                     l1750:
  3749  073B  1FB1               	btfss	___flmul@grs+3,7
  3750  073C  2F3E               	goto	u1711
  3751  073D  2F3F               	goto	u1710
  3752  073E                     u1711:
  3753  073E  2F40               	goto	l1754
  3754  073F                     u1710:
  3755  073F                     l1752:
  3756  073F  1434               	bsf	___flmul@prod,0
  3757  0740                     l1754:
  3758  0740  3001               	movlw	1
  3759  0741                     u1725:
  3760  0741  35AE               	lslf	___flmul@grs,f
  3761  0742  0DAF               	rlf	___flmul@grs+1,f
  3762  0743  0DB0               	rlf	___flmul@grs+2,f
  3763  0744  0DB1               	rlf	___flmul@grs+3,f
  3764  0745  0B89               	decfsz	9,f
  3765  0746  2F41               	goto	u1725
  3766  0747                     l1756:
  3767  0747  30FF               	movlw	255
  3768  0748  07B8               	addwf	___flmul@temp,f
  3769  0749  30FF               	movlw	255
  3770  074A  3DB9               	addwfc	___flmul@temp+1,f
  3771  074B                     l1758:
  3772  074B  1FB6               	btfss	___flmul@prod+2,7
  3773  074C  2F4E               	goto	u1731
  3774  074D  2F4F               	goto	u1730
  3775  074E                     u1731:
  3776  074E  2F34               	goto	l1748
  3777  074F                     u1730:
  3778  074F                     l1760:
  3779  074F  01B2               	clrf	___flmul@aexp
  3780  0750                     l1762:
  3781  0750  1FB1               	btfss	___flmul@grs+3,7
  3782  0751  2F53               	goto	u1741
  3783  0752  2F54               	goto	u1740
  3784  0753                     u1741:
  3785  0753  2F70               	goto	l1770
  3786  0754                     u1740:
  3787  0754                     l1764:
  3788  0754  30FF               	movlw	255
  3789  0755  052E               	andwf	___flmul@grs,w
  3790  0756  00A8               	movwf	??___flmul
  3791  0757  30FF               	movlw	255
  3792  0758  052F               	andwf	___flmul@grs+1,w
  3793  0759  00A9               	movwf	??___flmul+1
  3794  075A  30FF               	movlw	255
  3795  075B  0530               	andwf	___flmul@grs+2,w
  3796  075C  00AA               	movwf	??___flmul+2
  3797  075D  307F               	movlw	127
  3798  075E  0531               	andwf	___flmul@grs+3,w
  3799  075F  00AB               	movwf	??___flmul+3
  3800  0760  082B               	movf	??___flmul+3,w
  3801  0761  042A               	iorwf	??___flmul+2,w
  3802  0762  0429               	iorwf	??___flmul+1,w
  3803  0763  0428               	iorwf	??___flmul,w
  3804  0764  1903               	skipnz
  3805  0765  2F67               	goto	u1751
  3806  0766  2F68               	goto	u1750
  3807  0767                     u1751:
  3808  0767  2F6B               	goto	l747
  3809  0768                     u1750:
  3810  0768                     l1766:
  3811  0768  01B2               	clrf	___flmul@aexp
  3812  0769  0AB2               	incf	___flmul@aexp,f
  3813  076A  2F70               	goto	l1770
  3814  076B                     l747:
  3815  076B  1C34               	btfss	___flmul@prod,0
  3816  076C  2F6E               	goto	u1761
  3817  076D  2F6F               	goto	u1760
  3818  076E                     u1761:
  3819  076E  2F70               	goto	l1770
  3820  076F                     u1760:
  3821  076F  2F68               	goto	l1766
  3822  0770                     l1770:
  3823  0770  0832               	movf	___flmul@aexp,w
  3824  0771  1903               	btfsc	3,2
  3825  0772  2F74               	goto	u1771
  3826  0773  2F75               	goto	u1770
  3827  0774                     u1771:
  3828  0774  2F9D               	goto	l1780
  3829  0775                     u1770:
  3830  0775                     l1772:
  3831  0775  3001               	movlw	1
  3832  0776  07B4               	addwf	___flmul@prod,f
  3833  0777  3000               	movlw	0
  3834  0778  3DB5               	addwfc	___flmul@prod+1,f
  3835  0779  3000               	movlw	0
  3836  077A  3DB6               	addwfc	___flmul@prod+2,f
  3837  077B  3000               	movlw	0
  3838  077C  3DB7               	addwfc	___flmul@prod+3,f
  3839  077D                     l1774:
  3840  077D  1C37               	btfss	___flmul@prod+3,0
  3841  077E  2F80               	goto	u1781
  3842  077F  2F81               	goto	u1780
  3843  0780                     u1781:
  3844  0780  2F9D               	goto	l1780
  3845  0781                     u1780:
  3846  0781                     l1776:
  3847  0781  0834               	movf	___flmul@prod,w
  3848  0782  00A8               	movwf	??___flmul
  3849  0783  0835               	movf	___flmul@prod+1,w
  3850  0784  00A9               	movwf	??___flmul+1
  3851  0785  0836               	movf	___flmul@prod+2,w
  3852  0786  00AA               	movwf	??___flmul+2
  3853  0787  0837               	movf	___flmul@prod+3,w
  3854  0788  00AB               	movwf	??___flmul+3
  3855  0789  3001               	movlw	1
  3856  078A  00AC               	movwf	??___flmul+4
  3857  078B                     u1795:
  3858  078B  37AB               	asrf	??___flmul+3,f
  3859  078C  0CAA               	rrf	??___flmul+2,f
  3860  078D  0CA9               	rrf	??___flmul+1,f
  3861  078E  0CA8               	rrf	??___flmul,f
  3862  078F                     u1790:
  3863  078F  0BAC               	decfsz	??___flmul+4,f
  3864  0790  2F8B               	goto	u1795
  3865  0791  082B               	movf	??___flmul+3,w
  3866  0792  00B7               	movwf	___flmul@prod+3
  3867  0793  082A               	movf	??___flmul+2,w
  3868  0794  00B6               	movwf	___flmul@prod+2
  3869  0795  0829               	movf	??___flmul+1,w
  3870  0796  00B5               	movwf	___flmul@prod+1
  3871  0797  0828               	movf	??___flmul,w
  3872  0798  00B4               	movwf	___flmul@prod
  3873  0799                     l1778:
  3874  0799  3001               	movlw	1
  3875  079A  07B8               	addwf	___flmul@temp,f
  3876  079B  3000               	movlw	0
  3877  079C  3DB9               	addwfc	___flmul@temp+1,f
  3878  079D                     l1780:
  3879  079D  0839               	movf	___flmul@temp+1,w
  3880  079E  3A80               	xorlw	128
  3881  079F  00A8               	movwf	??___flmul
  3882  07A0  3080               	movlw	128
  3883  07A1  0228               	subwf	??___flmul,w
  3884  07A2  1D03               	skipz
  3885  07A3  2FA6               	goto	u1805
  3886  07A4  30FF               	movlw	255
  3887  07A5  0238               	subwf	___flmul@temp,w
  3888  07A6                     u1805:
  3889  07A6  1C03               	skipc
  3890  07A7  2FA9               	goto	u1801
  3891  07A8  2FAA               	goto	u1800
  3892  07A9                     u1801:
  3893  07A9  2FB4               	goto	l1784
  3894  07AA                     u1800:
  3895  07AA                     l1782:
  3896  07AA  307F               	movlw	127
  3897  07AB  0020               	movlb	0	; select bank0
  3898  07AC  00B7               	movwf	___flmul@prod+3
  3899  07AD  3080               	movlw	128
  3900  07AE  00B6               	movwf	___flmul@prod+2
  3901  07AF  3000               	movlw	0
  3902  07B0  00B5               	movwf	___flmul@prod+1
  3903  07B1  3000               	movlw	0
  3904  07B2  00B4               	movwf	___flmul@prod
  3905  07B3  2FE3               	goto	l753
  3906  07B4                     l1784:
  3907  07B4  0020               	movlb	0	; select bank0
  3908  07B5  0839               	movf	___flmul@temp+1,w
  3909  07B6  3A80               	xorlw	128
  3910  07B7  00A8               	movwf	??___flmul
  3911  07B8  3080               	movlw	128
  3912  07B9  0228               	subwf	??___flmul,w
  3913  07BA  1D03               	skipz
  3914  07BB  2FBE               	goto	u1815
  3915  07BC  3001               	movlw	1
  3916  07BD  0238               	subwf	___flmul@temp,w
  3917  07BE                     u1815:
  3918  07BE  1803               	skipnc
  3919  07BF  2FC1               	goto	u1811
  3920  07C0  2FC2               	goto	u1810
  3921  07C1                     u1811:
  3922  07C1  2FCD               	goto	l1790
  3923  07C2                     u1810:
  3924  07C2                     l1786:
  3925  07C2  3000               	movlw	0
  3926  07C3  0020               	movlb	0	; select bank0
  3927  07C4  00B7               	movwf	___flmul@prod+3
  3928  07C5  3000               	movlw	0
  3929  07C6  00B6               	movwf	___flmul@prod+2
  3930  07C7  3000               	movlw	0
  3931  07C8  00B5               	movwf	___flmul@prod+1
  3932  07C9  3000               	movlw	0
  3933  07CA  00B4               	movwf	___flmul@prod
  3934  07CB                     l1788:
  3935  07CB  01AD               	clrf	___flmul@sign
  3936  07CC  2FE3               	goto	l753
  3937  07CD                     l1790:
  3938  07CD  0020               	movlb	0	; select bank0
  3939  07CE  0838               	movf	___flmul@temp,w
  3940  07CF  00A8               	movwf	??___flmul
  3941  07D0  0828               	movf	??___flmul,w
  3942  07D1  00B3               	movwf	___flmul@bexp
  3943  07D2  30FF               	movlw	255
  3944  07D3  05B4               	andwf	___flmul@prod,f
  3945  07D4  30FF               	movlw	255
  3946  07D5  05B5               	andwf	___flmul@prod+1,f
  3947  07D6  307F               	movlw	127
  3948  07D7  05B6               	andwf	___flmul@prod+2,f
  3949  07D8  3000               	movlw	0
  3950  07D9  05B7               	andwf	___flmul@prod+3,f
  3951  07DA                     l1792:
  3952  07DA  1C33               	btfss	___flmul@bexp,0
  3953  07DB  2FDD               	goto	u1821
  3954  07DC  2FDE               	goto	u1820
  3955  07DD                     u1821:
  3956  07DD  2FDF               	goto	l1796
  3957  07DE                     u1820:
  3958  07DE                     l1794:
  3959  07DE  17B6               	bsf	___flmul@prod+2,7
  3960  07DF                     l1796:
  3961  07DF  3633               	lsrf	___flmul@bexp,w
  3962  07E0  00A8               	movwf	??___flmul
  3963  07E1  0828               	movf	??___flmul,w
  3964  07E2  00B7               	movwf	___flmul@prod+3
  3965  07E3                     l753:
  3966  07E3  082D               	movf	___flmul@sign,w
  3967  07E4  00A8               	movwf	??___flmul
  3968  07E5  0828               	movf	??___flmul,w
  3969  07E6  04B7               	iorwf	___flmul@prod+3,f
  3970  07E7                     l1798:
  3971  07E7  0837               	movf	___flmul@prod+3,w
  3972  07E8  00A3               	movwf	?___flmul+3
  3973  07E9  0836               	movf	___flmul@prod+2,w
  3974  07EA  00A2               	movwf	?___flmul+2
  3975  07EB  0835               	movf	___flmul@prod+1,w
  3976  07EC  00A1               	movwf	?___flmul+1
  3977  07ED  0834               	movf	___flmul@prod,w
  3978  07EE  00A0               	movwf	?___flmul
  3979  07EF                     l741:
  3980  07EF  0008               	return
  3981  07F0                     __end_of___flmul:
  3982                           
  3983                           	psect	text17
  3984  012E                     __ptext17:	
  3985 ;; *************** function __Umul8_16 *****************
  3986 ;; Defined at:
  3987 ;;		line 4 in file "C:\Program Files\Microchip\xc8\v2.31\pic\sources\c99\common\Umul8_16.c"
  3988 ;; Parameters:    Size  Location     Type
  3989 ;;  multiplier      1    wreg     unsigned char 
  3990 ;;  multiplicand    1    0[COMMON] unsigned char 
  3991 ;; Auto vars:     Size  Location     Type
  3992 ;;  multiplier      1    8[COMMON] unsigned char 
  3993 ;;  word_mpld       2    6[COMMON] unsigned int 
  3994 ;;  product         2    4[COMMON] unsigned int 
  3995 ;; Return value:  Size  Location     Type
  3996 ;;                  2    0[COMMON] unsigned int 
  3997 ;; Registers used:
  3998 ;;		wreg, status,2, status,0
  3999 ;; Tracked objects:
  4000 ;;		On entry : 0/0
  4001 ;;		On exit  : 0/0
  4002 ;;		Unchanged: 0/0
  4003 ;; Data sizes:     COMMON   BANK0   BANK1   BANK2   BANK3   BANK4
  4004 ;;      Params:         2       0       0       0       0       0
  4005 ;;      Locals:         5       0       0       0       0       0
  4006 ;;      Temps:          2       0       0       0       0       0
  4007 ;;      Totals:         9       0       0       0       0       0
  4008 ;;Total ram usage:        9 bytes
  4009 ;; Hardware stack levels used:    1
  4010 ;; This function calls:
  4011 ;;		Nothing
  4012 ;; This function is called by:
  4013 ;;		___flmul
  4014 ;; This function uses a non-reentrant model
  4015 ;;
  4016                           
  4017                           
  4018                           ;psect for function __Umul8_16
  4019  012E                     __Umul8_16:
  4020                           
  4021                           ;incstack = 0
  4022                           ; Regs used in __Umul8_16: [wreg+status,2+status,0]
  4023                           ;__Umul8_16@multiplier stored from wreg
  4024  012E  00F8               	movwf	__Umul8_16@multiplier
  4025  012F                     l1388:
  4026  012F  01F4               	clrf	__Umul8_16@product
  4027  0130  01F5               	clrf	__Umul8_16@product+1
  4028  0131                     l1390:
  4029  0131  0870               	movf	__Umul8_16@multiplicand,w
  4030  0132  00F2               	movwf	??__Umul8_16
  4031  0133  01F3               	clrf	??__Umul8_16+1
  4032  0134  0872               	movf	??__Umul8_16,w
  4033  0135  00F6               	movwf	__Umul8_16@word_mpld
  4034  0136  0873               	movf	??__Umul8_16+1,w
  4035  0137  00F7               	movwf	__Umul8_16@word_mpld+1
  4036  0138                     l1392:
  4037  0138  1C78               	btfss	__Umul8_16@multiplier,0
  4038  0139  293B               	goto	u1001
  4039  013A  293C               	goto	u1000
  4040  013B                     u1001:
  4041  013B  2940               	goto	l760
  4042  013C                     u1000:
  4043  013C                     l1394:
  4044  013C  0876               	movf	__Umul8_16@word_mpld,w
  4045  013D  07F4               	addwf	__Umul8_16@product,f
  4046  013E  0877               	movf	__Umul8_16@word_mpld+1,w
  4047  013F  3DF5               	addwfc	__Umul8_16@product+1,f
  4048  0140                     l760:
  4049  0140  3001               	movlw	1
  4050  0141                     u1015:
  4051  0141  35F6               	lslf	__Umul8_16@word_mpld,f
  4052  0142  0DF7               	rlf	__Umul8_16@word_mpld+1,f
  4053  0143  0B89               	decfsz	9,f
  4054  0144  2941               	goto	u1015
  4055  0145  1003               	clrc
  4056  0146  0CF8               	rrf	__Umul8_16@multiplier,f
  4057  0147                     l1396:
  4058  0147  0878               	movf	__Umul8_16@multiplier,w
  4059  0148  1D03               	btfss	3,2
  4060  0149  294B               	goto	u1021
  4061  014A  294C               	goto	u1020
  4062  014B                     u1021:
  4063  014B  2938               	goto	l1392
  4064  014C                     u1020:
  4065  014C                     l1398:
  4066  014C  0875               	movf	__Umul8_16@product+1,w
  4067  014D  00F1               	movwf	?__Umul8_16+1
  4068  014E  0874               	movf	__Umul8_16@product,w
  4069  014F  00F0               	movwf	?__Umul8_16
  4070  0150                     l762:
  4071  0150  0008               	return
  4072  0151                     __end_of__Umul8_16:
  4073                           
  4074                           	psect	text18
  4075  0151                     __ptext18:	
  4076 ;; *************** function ___awmod *****************
  4077 ;; Defined at:
  4078 ;;		line 5 in file "C:\Program Files\Microchip\xc8\v2.31\pic\sources\c99\common\awmod.c"
  4079 ;; Parameters:    Size  Location     Type
  4080 ;;  divisor         2    0[COMMON] int 
  4081 ;;  dividend        2    2[COMMON] int 
  4082 ;; Auto vars:     Size  Location     Type
  4083 ;;  sign            1    6[COMMON] unsigned char 
  4084 ;;  counter         1    5[COMMON] unsigned char 
  4085 ;; Return value:  Size  Location     Type
  4086 ;;                  2    0[COMMON] int 
  4087 ;; Registers used:
  4088 ;;		wreg, status,2, status,0
  4089 ;; Tracked objects:
  4090 ;;		On entry : 0/0
  4091 ;;		On exit  : 0/0
  4092 ;;		Unchanged: 0/0
  4093 ;; Data sizes:     COMMON   BANK0   BANK1   BANK2   BANK3   BANK4
  4094 ;;      Params:         4       0       0       0       0       0
  4095 ;;      Locals:         2       0       0       0       0       0
  4096 ;;      Temps:          1       0       0       0       0       0
  4097 ;;      Totals:         7       0       0       0       0       0
  4098 ;;Total ram usage:        7 bytes
  4099 ;; Hardware stack levels used:    1
  4100 ;; This function calls:
  4101 ;;		Nothing
  4102 ;; This function is called by:
  4103 ;;		_main
  4104 ;; This function uses a non-reentrant model
  4105 ;;
  4106                           
  4107                           
  4108                           ;psect for function ___awmod
  4109  0151                     ___awmod:
  4110  0151                     l1588:	
  4111                           ;incstack = 0
  4112                           ; Regs used in ___awmod: [wreg+status,2+status,0]
  4113                           
  4114  0151  01F6               	clrf	___awmod@sign
  4115  0152                     l1590:
  4116  0152  1FF3               	btfss	___awmod@dividend+1,7
  4117  0153  2955               	goto	u1381
  4118  0154  2956               	goto	u1380
  4119  0155                     u1381:
  4120  0155  295D               	goto	l1596
  4121  0156                     u1380:
  4122  0156                     l1592:
  4123  0156  09F2               	comf	___awmod@dividend,f
  4124  0157  09F3               	comf	___awmod@dividend+1,f
  4125  0158  0AF2               	incf	___awmod@dividend,f
  4126  0159  1903               	skipnz
  4127  015A  0AF3               	incf	___awmod@dividend+1,f
  4128  015B                     l1594:
  4129  015B  01F6               	clrf	___awmod@sign
  4130  015C  0AF6               	incf	___awmod@sign,f
  4131  015D                     l1596:
  4132  015D  1FF1               	btfss	___awmod@divisor+1,7
  4133  015E  2960               	goto	u1391
  4134  015F  2961               	goto	u1390
  4135  0160                     u1391:
  4136  0160  2966               	goto	l1600
  4137  0161                     u1390:
  4138  0161                     l1598:
  4139  0161  09F0               	comf	___awmod@divisor,f
  4140  0162  09F1               	comf	___awmod@divisor+1,f
  4141  0163  0AF0               	incf	___awmod@divisor,f
  4142  0164  1903               	skipnz
  4143  0165  0AF1               	incf	___awmod@divisor+1,f
  4144  0166                     l1600:
  4145  0166  0870               	movf	___awmod@divisor,w
  4146  0167  0471               	iorwf	___awmod@divisor+1,w
  4147  0168  1903               	btfsc	3,2
  4148  0169  296B               	goto	u1401
  4149  016A  296C               	goto	u1400
  4150  016B                     u1401:
  4151  016B  2995               	goto	l1618
  4152  016C                     u1400:
  4153  016C                     l1602:
  4154  016C  01F5               	clrf	___awmod@counter
  4155  016D  0AF5               	incf	___awmod@counter,f
  4156  016E  2978               	goto	l1608
  4157  016F                     l1604:
  4158  016F  3001               	movlw	1
  4159  0170                     u1415:
  4160  0170  35F0               	lslf	___awmod@divisor,f
  4161  0171  0DF1               	rlf	___awmod@divisor+1,f
  4162  0172  0B89               	decfsz	9,f
  4163  0173  2970               	goto	u1415
  4164  0174                     l1606:
  4165  0174  3001               	movlw	1
  4166  0175  00F4               	movwf	??___awmod
  4167  0176  0874               	movf	??___awmod,w
  4168  0177  07F5               	addwf	___awmod@counter,f
  4169  0178                     l1608:
  4170  0178  1FF1               	btfss	___awmod@divisor+1,7
  4171  0179  297B               	goto	u1421
  4172  017A  297C               	goto	u1420
  4173  017B                     u1421:
  4174  017B  296F               	goto	l1604
  4175  017C                     u1420:
  4176  017C                     l1610:
  4177  017C  0871               	movf	___awmod@divisor+1,w
  4178  017D  0273               	subwf	___awmod@dividend+1,w
  4179  017E  1D03               	skipz
  4180  017F  2982               	goto	u1435
  4181  0180  0870               	movf	___awmod@divisor,w
  4182  0181  0272               	subwf	___awmod@dividend,w
  4183  0182                     u1435:
  4184  0182  1C03               	skipc
  4185  0183  2985               	goto	u1431
  4186  0184  2986               	goto	u1430
  4187  0185                     u1431:
  4188  0185  298A               	goto	l1614
  4189  0186                     u1430:
  4190  0186                     l1612:
  4191  0186  0870               	movf	___awmod@divisor,w
  4192  0187  02F2               	subwf	___awmod@dividend,f
  4193  0188  0871               	movf	___awmod@divisor+1,w
  4194  0189  3BF3               	subwfb	___awmod@dividend+1,f
  4195  018A                     l1614:
  4196  018A  3001               	movlw	1
  4197  018B                     u1445:
  4198  018B  36F1               	lsrf	___awmod@divisor+1,f
  4199  018C  0CF0               	rrf	___awmod@divisor,f
  4200  018D  0B89               	decfsz	9,f
  4201  018E  298B               	goto	u1445
  4202  018F                     l1616:
  4203  018F  3001               	movlw	1
  4204  0190  02F5               	subwf	___awmod@counter,f
  4205  0191  1D03               	btfss	3,2
  4206  0192  2994               	goto	u1451
  4207  0193  2995               	goto	u1450
  4208  0194                     u1451:
  4209  0194  297C               	goto	l1610
  4210  0195                     u1450:
  4211  0195                     l1618:
  4212  0195  0876               	movf	___awmod@sign,w
  4213  0196  1903               	btfsc	3,2
  4214  0197  2999               	goto	u1461
  4215  0198  299A               	goto	u1460
  4216  0199                     u1461:
  4217  0199  299F               	goto	l1622
  4218  019A                     u1460:
  4219  019A                     l1620:
  4220  019A  09F2               	comf	___awmod@dividend,f
  4221  019B  09F3               	comf	___awmod@dividend+1,f
  4222  019C  0AF2               	incf	___awmod@dividend,f
  4223  019D  1903               	skipnz
  4224  019E  0AF3               	incf	___awmod@dividend+1,f
  4225  019F                     l1622:
  4226  019F  0873               	movf	___awmod@dividend+1,w
  4227  01A0  00F1               	movwf	?___awmod+1
  4228  01A1  0872               	movf	___awmod@dividend,w
  4229  01A2  00F0               	movwf	?___awmod
  4230  01A3                     l510:
  4231  01A3  0008               	return
  4232  01A4                     __end_of___awmod:
  4233                           
  4234                           	psect	text19
  4235  01FF                     __ptext19:	
  4236 ;; *************** function ___awdiv *****************
  4237 ;; Defined at:
  4238 ;;		line 5 in file "C:\Program Files\Microchip\xc8\v2.31\pic\sources\c99\common\awdiv.c"
  4239 ;; Parameters:    Size  Location     Type
  4240 ;;  divisor         2    0[COMMON] int 
  4241 ;;  dividend        2    2[COMMON] int 
  4242 ;; Auto vars:     Size  Location     Type
  4243 ;;  quotient        2    7[COMMON] int 
  4244 ;;  sign            1    6[COMMON] unsigned char 
  4245 ;;  counter         1    5[COMMON] unsigned char 
  4246 ;; Return value:  Size  Location     Type
  4247 ;;                  2    0[COMMON] int 
  4248 ;; Registers used:
  4249 ;;		wreg, status,2, status,0
  4250 ;; Tracked objects:
  4251 ;;		On entry : 0/0
  4252 ;;		On exit  : 0/0
  4253 ;;		Unchanged: 0/0
  4254 ;; Data sizes:     COMMON   BANK0   BANK1   BANK2   BANK3   BANK4
  4255 ;;      Params:         4       0       0       0       0       0
  4256 ;;      Locals:         4       0       0       0       0       0
  4257 ;;      Temps:          1       0       0       0       0       0
  4258 ;;      Totals:         9       0       0       0       0       0
  4259 ;;Total ram usage:        9 bytes
  4260 ;; Hardware stack levels used:    1
  4261 ;; This function calls:
  4262 ;;		Nothing
  4263 ;; This function is called by:
  4264 ;;		_main
  4265 ;; This function uses a non-reentrant model
  4266 ;;
  4267                           
  4268                           
  4269                           ;psect for function ___awdiv
  4270  01FF                     ___awdiv:
  4271  01FF                     l1544:	
  4272                           ;incstack = 0
  4273                           ; Regs used in ___awdiv: [wreg+status,2+status,0]
  4274                           
  4275  01FF  01F6               	clrf	___awdiv@sign
  4276  0200                     l1546:
  4277  0200  1FF1               	btfss	___awdiv@divisor+1,7
  4278  0201  2A03               	goto	u1281
  4279  0202  2A04               	goto	u1280
  4280  0203                     u1281:
  4281  0203  2A0B               	goto	l1552
  4282  0204                     u1280:
  4283  0204                     l1548:
  4284  0204  09F0               	comf	___awdiv@divisor,f
  4285  0205  09F1               	comf	___awdiv@divisor+1,f
  4286  0206  0AF0               	incf	___awdiv@divisor,f
  4287  0207  1903               	skipnz
  4288  0208  0AF1               	incf	___awdiv@divisor+1,f
  4289  0209                     l1550:
  4290  0209  01F6               	clrf	___awdiv@sign
  4291  020A  0AF6               	incf	___awdiv@sign,f
  4292  020B                     l1552:
  4293  020B  1FF3               	btfss	___awdiv@dividend+1,7
  4294  020C  2A0E               	goto	u1291
  4295  020D  2A0F               	goto	u1290
  4296  020E                     u1291:
  4297  020E  2A18               	goto	l1558
  4298  020F                     u1290:
  4299  020F                     l1554:
  4300  020F  09F2               	comf	___awdiv@dividend,f
  4301  0210  09F3               	comf	___awdiv@dividend+1,f
  4302  0211  0AF2               	incf	___awdiv@dividend,f
  4303  0212  1903               	skipnz
  4304  0213  0AF3               	incf	___awdiv@dividend+1,f
  4305  0214                     l1556:
  4306  0214  3001               	movlw	1
  4307  0215  00F4               	movwf	??___awdiv
  4308  0216  0874               	movf	??___awdiv,w
  4309  0217  06F6               	xorwf	___awdiv@sign,f
  4310  0218                     l1558:
  4311  0218  01F7               	clrf	___awdiv@quotient
  4312  0219  01F8               	clrf	___awdiv@quotient+1
  4313  021A                     l1560:
  4314  021A  0870               	movf	___awdiv@divisor,w
  4315  021B  0471               	iorwf	___awdiv@divisor+1,w
  4316  021C  1903               	btfsc	3,2
  4317  021D  2A1F               	goto	u1301
  4318  021E  2A20               	goto	u1300
  4319  021F                     u1301:
  4320  021F  2A4F               	goto	l1580
  4321  0220                     u1300:
  4322  0220                     l1562:
  4323  0220  01F5               	clrf	___awdiv@counter
  4324  0221  0AF5               	incf	___awdiv@counter,f
  4325  0222  2A2C               	goto	l1568
  4326  0223                     l1564:
  4327  0223  3001               	movlw	1
  4328  0224                     u1315:
  4329  0224  35F0               	lslf	___awdiv@divisor,f
  4330  0225  0DF1               	rlf	___awdiv@divisor+1,f
  4331  0226  0B89               	decfsz	9,f
  4332  0227  2A24               	goto	u1315
  4333  0228                     l1566:
  4334  0228  3001               	movlw	1
  4335  0229  00F4               	movwf	??___awdiv
  4336  022A  0874               	movf	??___awdiv,w
  4337  022B  07F5               	addwf	___awdiv@counter,f
  4338  022C                     l1568:
  4339  022C  1FF1               	btfss	___awdiv@divisor+1,7
  4340  022D  2A2F               	goto	u1321
  4341  022E  2A30               	goto	u1320
  4342  022F                     u1321:
  4343  022F  2A23               	goto	l1564
  4344  0230                     u1320:
  4345  0230                     l1570:
  4346  0230  3001               	movlw	1
  4347  0231                     u1335:
  4348  0231  35F7               	lslf	___awdiv@quotient,f
  4349  0232  0DF8               	rlf	___awdiv@quotient+1,f
  4350  0233  0B89               	decfsz	9,f
  4351  0234  2A31               	goto	u1335
  4352  0235  0871               	movf	___awdiv@divisor+1,w
  4353  0236  0273               	subwf	___awdiv@dividend+1,w
  4354  0237  1D03               	skipz
  4355  0238  2A3B               	goto	u1345
  4356  0239  0870               	movf	___awdiv@divisor,w
  4357  023A  0272               	subwf	___awdiv@dividend,w
  4358  023B                     u1345:
  4359  023B  1C03               	skipc
  4360  023C  2A3E               	goto	u1341
  4361  023D  2A3F               	goto	u1340
  4362  023E                     u1341:
  4363  023E  2A44               	goto	l1576
  4364  023F                     u1340:
  4365  023F                     l1572:
  4366  023F  0870               	movf	___awdiv@divisor,w
  4367  0240  02F2               	subwf	___awdiv@dividend,f
  4368  0241  0871               	movf	___awdiv@divisor+1,w
  4369  0242  3BF3               	subwfb	___awdiv@dividend+1,f
  4370  0243                     l1574:
  4371  0243  1477               	bsf	___awdiv@quotient,0
  4372  0244                     l1576:
  4373  0244  3001               	movlw	1
  4374  0245                     u1355:
  4375  0245  36F1               	lsrf	___awdiv@divisor+1,f
  4376  0246  0CF0               	rrf	___awdiv@divisor,f
  4377  0247  0B89               	decfsz	9,f
  4378  0248  2A45               	goto	u1355
  4379  0249                     l1578:
  4380  0249  3001               	movlw	1
  4381  024A  02F5               	subwf	___awdiv@counter,f
  4382  024B  1D03               	btfss	3,2
  4383  024C  2A4E               	goto	u1361
  4384  024D  2A4F               	goto	u1360
  4385  024E                     u1361:
  4386  024E  2A30               	goto	l1570
  4387  024F                     u1360:
  4388  024F                     l1580:
  4389  024F  0876               	movf	___awdiv@sign,w
  4390  0250  1903               	btfsc	3,2
  4391  0251  2A53               	goto	u1371
  4392  0252  2A54               	goto	u1370
  4393  0253                     u1371:
  4394  0253  2A59               	goto	l1584
  4395  0254                     u1370:
  4396  0254                     l1582:
  4397  0254  09F7               	comf	___awdiv@quotient,f
  4398  0255  09F8               	comf	___awdiv@quotient+1,f
  4399  0256  0AF7               	incf	___awdiv@quotient,f
  4400  0257  1903               	skipnz
  4401  0258  0AF8               	incf	___awdiv@quotient+1,f
  4402  0259                     l1584:
  4403  0259  0878               	movf	___awdiv@quotient+1,w
  4404  025A  00F1               	movwf	?___awdiv+1
  4405  025B  0877               	movf	___awdiv@quotient,w
  4406  025C  00F0               	movwf	?___awdiv
  4407  025D                     l497:
  4408  025D  0008               	return
  4409  025E                     __end_of___awdiv:
  4410                           
  4411                           	psect	text20
  4412  010D                     __ptext20:	
  4413 ;; *************** function _SYSTEM_Initialize *****************
  4414 ;; Defined at:
  4415 ;;		line 50 in file "mcc_generated_files/mcc.c"
  4416 ;; Parameters:    Size  Location     Type
  4417 ;;		None
  4418 ;; Auto vars:     Size  Location     Type
  4419 ;;		None
  4420 ;; Return value:  Size  Location     Type
  4421 ;;                  1    wreg      void 
  4422 ;; Registers used:
  4423 ;;		wreg, status,2, status,0, pclath, cstack
  4424 ;; Tracked objects:
  4425 ;;		On entry : 0/0
  4426 ;;		On exit  : 0/0
  4427 ;;		Unchanged: 0/0
  4428 ;; Data sizes:     COMMON   BANK0   BANK1   BANK2   BANK3   BANK4
  4429 ;;      Params:         0       0       0       0       0       0
  4430 ;;      Locals:         0       0       0       0       0       0
  4431 ;;      Temps:          0       0       0       0       0       0
  4432 ;;      Totals:         0       0       0       0       0       0
  4433 ;;Total ram usage:        0 bytes
  4434 ;; Hardware stack levels used:    1
  4435 ;; Hardware stack levels required when called:    1
  4436 ;; This function calls:
  4437 ;;		_ADC_Initialize
  4438 ;;		_OSCILLATOR_Initialize
  4439 ;;		_PIN_MANAGER_Initialize
  4440 ;;		_WDT_Initialize
  4441 ;; This function is called by:
  4442 ;;		_main
  4443 ;; This function uses a non-reentrant model
  4444 ;;
  4445                           
  4446                           
  4447                           ;psect for function _SYSTEM_Initialize
  4448  010D                     _SYSTEM_Initialize:
  4449  010D                     l1404:	
  4450                           ;incstack = 0
  4451                           ; Regs used in _SYSTEM_Initialize: [wreg+status,2+status,0+pclath+cstack]
  4452                           
  4453                           
  4454                           ;mcc_generated_files/mcc.c: 53:     PIN_MANAGER_Initialize();
  4455  010D  3181  211A  3181   	fcall	_PIN_MANAGER_Initialize
  4456                           
  4457                           ;mcc_generated_files/mcc.c: 54:     OSCILLATOR_Initialize();
  4458  0110  3180  20FE  3181   	fcall	_OSCILLATOR_Initialize
  4459                           
  4460                           ;mcc_generated_files/mcc.c: 55:     WDT_Initialize();
  4461  0113  3180  20D2  3181   	fcall	_WDT_Initialize
  4462                           
  4463                           ;mcc_generated_files/mcc.c: 56:     ADC_Initialize();
  4464  0116  3181  2105  3181   	fcall	_ADC_Initialize
  4465  0119                     l85:
  4466  0119  0008               	return
  4467  011A                     __end_of_SYSTEM_Initialize:
  4468                           
  4469                           	psect	text21
  4470  00D2                     __ptext21:	
  4471 ;; *************** function _WDT_Initialize *****************
  4472 ;; Defined at:
  4473 ;;		line 69 in file "mcc_generated_files/mcc.c"
  4474 ;; Parameters:    Size  Location     Type
  4475 ;;		None
  4476 ;; Auto vars:     Size  Location     Type
  4477 ;;		None
  4478 ;; Return value:  Size  Location     Type
  4479 ;;                  1    wreg      void 
  4480 ;; Registers used:
  4481 ;;		wreg
  4482 ;; Tracked objects:
  4483 ;;		On entry : 0/0
  4484 ;;		On exit  : 0/0
  4485 ;;		Unchanged: 0/0
  4486 ;; Data sizes:     COMMON   BANK0   BANK1   BANK2   BANK3   BANK4
  4487 ;;      Params:         0       0       0       0       0       0
  4488 ;;      Locals:         0       0       0       0       0       0
  4489 ;;      Temps:          0       0       0       0       0       0
  4490 ;;      Totals:         0       0       0       0       0       0
  4491 ;;Total ram usage:        0 bytes
  4492 ;; Hardware stack levels used:    1
  4493 ;; This function calls:
  4494 ;;		Nothing
  4495 ;; This function is called by:
  4496 ;;		_SYSTEM_Initialize
  4497 ;; This function uses a non-reentrant model
  4498 ;;
  4499                           
  4500                           
  4501                           ;psect for function _WDT_Initialize
  4502  00D2                     _WDT_Initialize:
  4503  00D2                     l1366:	
  4504                           ;incstack = 0
  4505                           ; Regs used in _WDT_Initialize: [wreg]
  4506                           
  4507                           
  4508                           ;mcc_generated_files/mcc.c: 72:     WDTCON = 0x16;
  4509  00D2  3016               	movlw	22
  4510  00D3  0021               	movlb	1	; select bank1
  4511  00D4  0097               	movwf	23	;volatile
  4512  00D5                     l91:
  4513  00D5  0008               	return
  4514  00D6                     __end_of_WDT_Initialize:
  4515                           
  4516                           	psect	text22
  4517  011A                     __ptext22:	
  4518 ;; *************** function _PIN_MANAGER_Initialize *****************
  4519 ;; Defined at:
  4520 ;;		line 55 in file "mcc_generated_files/pin_manager.c"
  4521 ;; Parameters:    Size  Location     Type
  4522 ;;		None
  4523 ;; Auto vars:     Size  Location     Type
  4524 ;;		None
  4525 ;; Return value:  Size  Location     Type
  4526 ;;                  1    wreg      void 
  4527 ;; Registers used:
  4528 ;;		wreg, status,2
  4529 ;; Tracked objects:
  4530 ;;		On entry : 0/0
  4531 ;;		On exit  : 0/0
  4532 ;;		Unchanged: 0/0
  4533 ;; Data sizes:     COMMON   BANK0   BANK1   BANK2   BANK3   BANK4
  4534 ;;      Params:         0       0       0       0       0       0
  4535 ;;      Locals:         0       0       0       0       0       0
  4536 ;;      Temps:          0       0       0       0       0       0
  4537 ;;      Totals:         0       0       0       0       0       0
  4538 ;;Total ram usage:        0 bytes
  4539 ;; Hardware stack levels used:    1
  4540 ;; This function calls:
  4541 ;;		Nothing
  4542 ;; This function is called by:
  4543 ;;		_SYSTEM_Initialize
  4544 ;; This function uses a non-reentrant model
  4545 ;;
  4546                           
  4547                           
  4548                           ;psect for function _PIN_MANAGER_Initialize
  4549  011A                     _PIN_MANAGER_Initialize:
  4550  011A                     l1342:	
  4551                           ;incstack = 0
  4552                           ; Regs used in _PIN_MANAGER_Initialize: [wreg+status,2]
  4553                           
  4554                           
  4555                           ;mcc_generated_files/pin_manager.c: 60:     LATA = 0x00;
  4556  011A  0022               	movlb	2	; select bank2
  4557  011B  018C               	clrf	12	;volatile
  4558                           
  4559                           ;mcc_generated_files/pin_manager.c: 61:     LATB = 0x00;
  4560  011C  018D               	clrf	13	;volatile
  4561  011D                     l1344:
  4562                           
  4563                           ;mcc_generated_files/pin_manager.c: 66:     TRISA = 0xFC;
  4564  011D  30FC               	movlw	252
  4565  011E  0021               	movlb	1	; select bank1
  4566  011F  008C               	movwf	12	;volatile
  4567  0120                     l1346:
  4568                           
  4569                           ;mcc_generated_files/pin_manager.c: 67:     TRISB = 0x00;
  4570  0120  018D               	clrf	13	;volatile
  4571  0121                     l1348:
  4572                           
  4573                           ;mcc_generated_files/pin_manager.c: 72:     ANSELB = 0x00;
  4574  0121  0023               	movlb	3	; select bank3
  4575  0122  018D               	clrf	13	;volatile
  4576  0123                     l1350:
  4577                           
  4578                           ;mcc_generated_files/pin_manager.c: 73:     ANSELA = 0x1C;
  4579  0123  301C               	movlw	28
  4580  0124  008C               	movwf	12	;volatile
  4581                           
  4582                           ;mcc_generated_files/pin_manager.c: 78:     WPUB = 0x00;
  4583  0125  0024               	movlb	4	; select bank4
  4584  0126  018D               	clrf	13	;volatile
  4585                           
  4586                           ;mcc_generated_files/pin_manager.c: 79:     WPUA = 0x00;
  4587  0127  018C               	clrf	12	;volatile
  4588  0128                     l1352:
  4589                           
  4590                           ;mcc_generated_files/pin_manager.c: 80:     OPTION_REGbits.nWPUEN = 1;
  4591  0128  0021               	movlb	1	; select bank1
  4592  0129  1795               	bsf	21,7	;volatile
  4593                           
  4594                           ;mcc_generated_files/pin_manager.c: 86:     APFCON0 = 0x00;
  4595  012A  0022               	movlb	2	; select bank2
  4596  012B  019D               	clrf	29	;volatile
  4597                           
  4598                           ;mcc_generated_files/pin_manager.c: 87:     APFCON1 = 0x00;
  4599  012C  019E               	clrf	30	;volatile
  4600  012D                     l25:
  4601  012D  0008               	return
  4602  012E                     __end_of_PIN_MANAGER_Initialize:
  4603                           
  4604                           	psect	text23
  4605  00FE                     __ptext23:	
  4606 ;; *************** function _OSCILLATOR_Initialize *****************
  4607 ;; Defined at:
  4608 ;;		line 59 in file "mcc_generated_files/mcc.c"
  4609 ;; Parameters:    Size  Location     Type
  4610 ;;		None
  4611 ;; Auto vars:     Size  Location     Type
  4612 ;;		None
  4613 ;; Return value:  Size  Location     Type
  4614 ;;                  1    wreg      void 
  4615 ;; Registers used:
  4616 ;;		wreg, status,2
  4617 ;; Tracked objects:
  4618 ;;		On entry : 0/0
  4619 ;;		On exit  : 0/0
  4620 ;;		Unchanged: 0/0
  4621 ;; Data sizes:     COMMON   BANK0   BANK1   BANK2   BANK3   BANK4
  4622 ;;      Params:         0       0       0       0       0       0
  4623 ;;      Locals:         0       0       0       0       0       0
  4624 ;;      Temps:          0       0       0       0       0       0
  4625 ;;      Totals:         0       0       0       0       0       0
  4626 ;;Total ram usage:        0 bytes
  4627 ;; Hardware stack levels used:    1
  4628 ;; This function calls:
  4629 ;;		Nothing
  4630 ;; This function is called by:
  4631 ;;		_SYSTEM_Initialize
  4632 ;; This function uses a non-reentrant model
  4633 ;;
  4634                           
  4635                           
  4636                           ;psect for function _OSCILLATOR_Initialize
  4637  00FE                     _OSCILLATOR_Initialize:
  4638  00FE                     l1360:	
  4639                           ;incstack = 0
  4640                           ; Regs used in _OSCILLATOR_Initialize: [wreg+status,2]
  4641                           
  4642                           
  4643                           ;mcc_generated_files/mcc.c: 62:     OSCCON = 0x6A;
  4644  00FE  306A               	movlw	106
  4645  00FF  0021               	movlb	1	; select bank1
  4646  0100  0099               	movwf	25	;volatile
  4647  0101                     l1362:
  4648                           
  4649                           ;mcc_generated_files/mcc.c: 64:     OSCTUNE = 0x00;
  4650  0101  0198               	clrf	24	;volatile
  4651  0102                     l1364:
  4652                           
  4653                           ;mcc_generated_files/mcc.c: 66:     BORCON = 0x00;
  4654  0102  0022               	movlb	2	; select bank2
  4655  0103  0196               	clrf	22	;volatile
  4656  0104                     l88:
  4657  0104  0008               	return
  4658  0105                     __end_of_OSCILLATOR_Initialize:
  4659                           
  4660                           	psect	text24
  4661  0105                     __ptext24:	
  4662 ;; *************** function _ADC_Initialize *****************
  4663 ;; Defined at:
  4664 ;;		line 67 in file "mcc_generated_files/adc.c"
  4665 ;; Parameters:    Size  Location     Type
  4666 ;;		None
  4667 ;; Auto vars:     Size  Location     Type
  4668 ;;		None
  4669 ;; Return value:  Size  Location     Type
  4670 ;;                  1    wreg      void 
  4671 ;; Registers used:
  4672 ;;		wreg, status,2
  4673 ;; Tracked objects:
  4674 ;;		On entry : 0/0
  4675 ;;		On exit  : 0/0
  4676 ;;		Unchanged: 0/0
  4677 ;; Data sizes:     COMMON   BANK0   BANK1   BANK2   BANK3   BANK4
  4678 ;;      Params:         0       0       0       0       0       0
  4679 ;;      Locals:         0       0       0       0       0       0
  4680 ;;      Temps:          0       0       0       0       0       0
  4681 ;;      Totals:         0       0       0       0       0       0
  4682 ;;Total ram usage:        0 bytes
  4683 ;; Hardware stack levels used:    1
  4684 ;; This function calls:
  4685 ;;		Nothing
  4686 ;; This function is called by:
  4687 ;;		_SYSTEM_Initialize
  4688 ;;		_main
  4689 ;; This function uses a non-reentrant model
  4690 ;;
  4691                           
  4692                           
  4693                           ;psect for function _ADC_Initialize
  4694  0105                     _ADC_Initialize:
  4695  0105                     l1354:	
  4696                           ;incstack = 0
  4697                           ; Regs used in _ADC_Initialize: [wreg+status,2]
  4698                           
  4699                           
  4700                           ;mcc_generated_files/adc.c: 72:     ADCON1 = 0xC0;
  4701  0105  30C0               	movlw	192
  4702  0106  0021               	movlb	1	; select bank1
  4703  0107  009E               	movwf	30	;volatile
  4704  0108                     l1356:
  4705                           
  4706                           ;mcc_generated_files/adc.c: 75:     ADRESL = 0x00;
  4707  0108  019B               	clrf	27	;volatile
  4708  0109                     l1358:
  4709                           
  4710                           ;mcc_generated_files/adc.c: 78:     ADRESH = 0x00;
  4711  0109  019C               	clrf	28	;volatile
  4712                           
  4713                           ;mcc_generated_files/adc.c: 81:     ADCON0 = 0x11;
  4714  010A  3011               	movlw	17
  4715  010B  009D               	movwf	29	;volatile
  4716  010C                     l45:
  4717  010C  0008               	return
  4718  010D                     __end_of_ADC_Initialize:
  4719                           
  4720                           	psect	text25
  4721  00CF                     __ptext25:	
  4722 ;; *************** function _ADC_StartConversion *****************
  4723 ;; Defined at:
  4724 ;;		line 93 in file "mcc_generated_files/adc.c"
  4725 ;; Parameters:    Size  Location     Type
  4726 ;;		None
  4727 ;; Auto vars:     Size  Location     Type
  4728 ;;		None
  4729 ;; Return value:  Size  Location     Type
  4730 ;;                  1    wreg      void 
  4731 ;; Registers used:
  4732 ;;		None
  4733 ;; Tracked objects:
  4734 ;;		On entry : 0/0
  4735 ;;		On exit  : 0/0
  4736 ;;		Unchanged: 0/0
  4737 ;; Data sizes:     COMMON   BANK0   BANK1   BANK2   BANK3   BANK4
  4738 ;;      Params:         0       0       0       0       0       0
  4739 ;;      Locals:         0       0       0       0       0       0
  4740 ;;      Temps:          0       0       0       0       0       0
  4741 ;;      Totals:         0       0       0       0       0       0
  4742 ;;Total ram usage:        0 bytes
  4743 ;; Hardware stack levels used:    1
  4744 ;; This function calls:
  4745 ;;		Nothing
  4746 ;; This function is called by:
  4747 ;;		_main
  4748 ;; This function uses a non-reentrant model
  4749 ;;
  4750                           
  4751                           
  4752                           ;psect for function _ADC_StartConversion
  4753  00CF                     _ADC_StartConversion:
  4754  00CF                     l1402:	
  4755                           ;incstack = 0
  4756                           ; Regs used in _ADC_StartConversion: []
  4757                           
  4758                           
  4759                           ;mcc_generated_files/adc.c: 96:     ADCON0bits.GO_nDONE = 1;
  4760  00CF  0021               	movlb	1	; select bank1
  4761  00D0  149D               	bsf	29,1	;volatile
  4762  00D1                     l51:
  4763  00D1  0008               	return
  4764  00D2                     __end_of_ADC_StartConversion:
  4765  007E                     btemp	set	126	;btemp
  4766  007E                     wtemp0	set	126
  4767                           
  4768                           	psect	config
  4769                           
  4770                           ;Config register CONFIG1 @ 0x8007
  4771                           ;	Oscillator Selection
  4772                           ;	FOSC = INTOSC, INTOSC oscillator: I/O function on CLKIN pin
  4773                           ;	Watchdog Timer Enable
  4774                           ;	WDTE = OFF, WDT disabled
  4775                           ;	Power-up Timer Enable
  4776                           ;	PWRTE = OFF, PWRT disabled
  4777                           ;	MCLR Pin Function Select
  4778                           ;	MCLRE = ON, MCLR/VPP pin function is MCLR
  4779                           ;	Flash Program Memory Code Protection
  4780                           ;	CP = OFF, Program memory code protection is disabled
  4781                           ;	Data Memory Code Protection
  4782                           ;	CPD = OFF, Data memory code protection is disabled
  4783                           ;	Brown-out Reset Enable
  4784                           ;	BOREN = ON, Brown-out Reset enabled
  4785                           ;	Clock Out Enable
  4786                           ;	CLKOUTEN = OFF, CLKOUT function is disabled. I/O or oscillator function on the CLKOUT 
      +                          pin
  4787                           ;	Internal/External Switchover
  4788                           ;	IESO = ON, Internal/External Switchover mode is enabled
  4789                           ;	Fail-Safe Clock Monitor Enable
  4790                           ;	FCMEN = ON, Fail-Safe Clock Monitor is enabled
  4791  8007                     	org	32775
  4792  8007  3FE4               	dw	16356
  4793                           
  4794                           ;Config register CONFIG2 @ 0x8008
  4795                           ;	Flash Memory Self-Write Protection
  4796                           ;	WRT = OFF, Write protection off
  4797                           ;	PLL Enable
  4798                           ;	PLLEN = OFF, 4x PLL disabled
  4799                           ;	Stack Overflow/Underflow Reset Enable
  4800                           ;	STVREN = ON, Stack Overflow or Underflow will cause a Reset
  4801                           ;	Brown-out Reset Voltage Selection
  4802                           ;	BORV = LO, Brown-out Reset Voltage (Vbor), low trip point selected.
  4803                           ;	Low-Voltage Programming Enable
  4804                           ;	LVP = ON, Low-voltage programming enabled
  4805  8008                     	org	32776
  4806  8008  3EFF               	dw	16127

Data Sizes:
    Strings     0
    Constant    0
    Data        0
    BSS         12
    Persistent  32
    Stack       0

Auto Spaces:
    Space          Size  Autos    Used
    COMMON           14     14      14
    BANK0            80     40      52
    BANK1            80      0       0
    BANK2            80      0       0
    BANK3            80      0       0
    BANK4            48      0       0

Pointer List with Targets:

    ADC_InterruptHandler	PTR FTN()void  size(2) Largest target is 1
		 -> Absolute function(), 


Critical Paths under _main in COMMON

    _main->___xxtofl
    ___fltol->___xxtofl
    ___flmul->___xxtofl

Critical Paths under _main in BANK0

    _main->___fltol
    ___fltol->___flmul

Critical Paths under _main in BANK1

    None.

Critical Paths under _main in BANK2

    None.

Critical Paths under _main in BANK3

    None.

Critical Paths under _main in BANK4

    None.

Call Graph Tables:

 ---------------------------------------------------------------------------------
 (Depth) Function   	        Calls       Base Space   Used Autos Params    Refs
 ---------------------------------------------------------------------------------
 (0) _main                                                 3     3      0    5102
                                             37 BANK0      3     3      0
                     _ADC_Initialize
                _ADC_StartConversion
                  _SYSTEM_Initialize
                            ___awdiv
                            ___awmod
                            ___flmul
                            ___fltol
                           ___xxtofl
                           _display1
                           _display2
                           _display3
 ---------------------------------------------------------------------------------
 (1) _display3                                             3     1      2     296
                                              0 COMMON     3     1      2
                                 _p4
                                 _p5
                                 _p6
                                 _p7
                                 _p8
                                 _p9
 ---------------------------------------------------------------------------------
 (1) _display2                                             3     1      2     296
                                              0 COMMON     3     1      2
                                 _p0
                                 _p1
                                 _p2
                                 _p3
                                 _p4
                                 _p5
                                 _p6
                                 _p7
                                 _p8
                                 _p9
 ---------------------------------------------------------------------------------
 (2) _p9                                                   0     0      0       0
 ---------------------------------------------------------------------------------
 (2) _p8                                                   0     0      0       0
 ---------------------------------------------------------------------------------
 (2) _p7                                                   0     0      0       0
 ---------------------------------------------------------------------------------
 (2) _p6                                                   0     0      0       0
 ---------------------------------------------------------------------------------
 (2) _p5                                                   0     0      0       0
 ---------------------------------------------------------------------------------
 (2) _p4                                                   0     0      0       0
 ---------------------------------------------------------------------------------
 (2) _p3                                                   0     0      0       0
 ---------------------------------------------------------------------------------
 (2) _p2                                                   0     0      0       0
 ---------------------------------------------------------------------------------
 (2) _p1                                                   0     0      0       0
 ---------------------------------------------------------------------------------
 (2) _p0                                                   0     0      0       0
 ---------------------------------------------------------------------------------
 (1) _display1                                             3     1      2     186
                                              0 COMMON     3     1      2
 ---------------------------------------------------------------------------------
 (1) ___xxtofl                                            14    10      4     398
                                              0 COMMON    14    10      4
 ---------------------------------------------------------------------------------
 (1) ___fltol                                             11     7      4     305
                                             26 BANK0     11     7      4
                            ___flmul (ARG)
                           ___xxtofl (ARG)
 ---------------------------------------------------------------------------------
 (1) ___flmul                                             26    18      8    2417
                                              0 BANK0     26    18      8
                          __Umul8_16
                           ___xxtofl (ARG)
 ---------------------------------------------------------------------------------
 (2) __Umul8_16                                            9     7      2     799
                                              0 COMMON     9     7      2
 ---------------------------------------------------------------------------------
 (1) ___awmod                                              7     3      4     600
                                              0 COMMON     7     3      4
 ---------------------------------------------------------------------------------
 (1) ___awdiv                                              9     5      4     604
                                              0 COMMON     9     5      4
 ---------------------------------------------------------------------------------
 (1) _SYSTEM_Initialize                                    0     0      0       0
                     _ADC_Initialize
              _OSCILLATOR_Initialize
             _PIN_MANAGER_Initialize
                     _WDT_Initialize
 ---------------------------------------------------------------------------------
 (2) _WDT_Initialize                                       0     0      0       0
 ---------------------------------------------------------------------------------
 (2) _PIN_MANAGER_Initialize                               0     0      0       0
 ---------------------------------------------------------------------------------
 (2) _OSCILLATOR_Initialize                                0     0      0       0
 ---------------------------------------------------------------------------------
 (2) _ADC_Initialize                                       0     0      0       0
 ---------------------------------------------------------------------------------
 (1) _ADC_StartConversion                                  0     0      0       0
 ---------------------------------------------------------------------------------
 Estimated maximum stack depth 2
 ---------------------------------------------------------------------------------

 Call Graph Graphs:

 _main (ROOT)
   _ADC_Initialize
   _ADC_StartConversion
   _SYSTEM_Initialize
     _ADC_Initialize
     _OSCILLATOR_Initialize
     _PIN_MANAGER_Initialize
     _WDT_Initialize
   ___awdiv
   ___awmod
   ___flmul
     __Umul8_16
     ___xxtofl (ARG)
   ___fltol
     ___flmul (ARG)
       __Umul8_16
       ___xxtofl (ARG)
     ___xxtofl (ARG)
   ___xxtofl
   _display1
   _display2
     _p0
     _p1
     _p2
     _p3
     _p4
     _p5
     _p6
     _p7
     _p8
     _p9
   _display3
     _p4
     _p5
     _p6
     _p7
     _p8
     _p9

 Address spaces:
Name               Size   Autos  Total    Cost      Usage
BIGRAM             170      0       0       0        0.0%
EEDATA             100      0       0       0        0.0%
NULL                 0      0       0       0        0.0%
CODE                 0      0       0       0        0.0%
BITCOMMON            E      0       0       1        0.0%
BITSFR0              0      0       0       1        0.0%
SFR0                 0      0       0       1        0.0%
COMMON               E      E       E       2      100.0%
BITSFR1              0      0       0       2        0.0%
SFR1                 0      0       0       2        0.0%
BITSFR2              0      0       0       3        0.0%
SFR2                 0      0       0       3        0.0%
STACK                0      0       0       3        0.0%
BITSFR3              0      0       0       4        0.0%
SFR3                 0      0       0       4        0.0%
ABS                  0      0      42       4        0.0%
BITBANK0            50      0       0       5        0.0%
BITSFR4              0      0       0       5        0.0%
SFR4                 0      0       0       5        0.0%
BANK0               50     28      34       6       65.0%
BITSFR5              0      0       0       6        0.0%
SFR5                 0      0       0       6        0.0%
BITBANK1            50      0       0       7        0.0%
BITSFR6              0      0       0       7        0.0%
SFR6                 0      0       0       7        0.0%
BANK1               50      0       0       8        0.0%
BITSFR7              0      0       0       8        0.0%
SFR7                 0      0       0       8        0.0%
BITBANK2            50      0       0       9        0.0%
BITSFR8              0      0       0       9        0.0%
SFR8                 0      0       0       9        0.0%
BANK2               50      0       0      10        0.0%
BITSFR9              0      0       0      10        0.0%
SFR9                 0      0       0      10        0.0%
BITBANK3            50      0       0      11        0.0%
BITSFR10             0      0       0      11        0.0%
SFR10                0      0       0      11        0.0%
BANK3               50      0       0      12        0.0%
BITSFR11             0      0       0      12        0.0%
SFR11                0      0       0      12        0.0%
BITBANK4            30      0       0      13        0.0%
BITSFR12             0      0       0      13        0.0%
SFR12                0      0       0      13        0.0%
BANK4               30      0       0      14        0.0%
BITSFR13             0      0       0      14        0.0%
SFR13                0      0       0      14        0.0%
BITSFR14             0      0       0      15        0.0%
SFR14                0      0       0      15        0.0%
DATA                 0      0      42      15        0.0%
BITSFR15             0      0       0      16        0.0%
SFR15                0      0       0      16        0.0%
BITSFR16             0      0       0      17        0.0%
SFR16                0      0       0      17        0.0%
BITSFR17             0      0       0      18        0.0%
SFR17                0      0       0      18        0.0%
BITSFR18             0      0       0      19        0.0%
SFR18                0      0       0      19        0.0%
BITSFR19             0      0       0      20        0.0%
SFR19                0      0       0      20        0.0%
BITSFR20             0      0       0      21        0.0%
SFR20                0      0       0      21        0.0%
BITSFR21             0      0       0      22        0.0%
SFR21                0      0       0      22        0.0%
BITSFR22             0      0       0      23        0.0%
SFR22                0      0       0      23        0.0%
BITSFR23             0      0       0      24        0.0%
SFR23                0      0       0      24        0.0%
BITSFR24             0      0       0      25        0.0%
SFR24                0      0       0      25        0.0%
BITSFR25             0      0       0      26        0.0%
SFR25                0      0       0      26        0.0%
BITSFR26             0      0       0      27        0.0%
SFR26                0      0       0      27        0.0%
BITSFR27             0      0       0      28        0.0%
SFR27                0      0       0      28        0.0%
BITSFR28             0      0       0      29        0.0%
SFR28                0      0       0      29        0.0%
BITSFR29             0      0       0      30        0.0%
SFR29                0      0       0      30        0.0%
BITSFR30             0      0       0      31        0.0%
SFR30                0      0       0      31        0.0%
BITSFR31             0      0       0      32        0.0%
SFR31                0      0       0      32        0.0%


Microchip Technology PIC Macro Assembler V2.31 build 20201012212115 
Symbol Table                                                                                   Thu Dec 16 10:47:20 2021

                              _a 004E                                _b 004C                                _c 004A  
                             l25 012D                               l51 00D1                               l45 010C  
                             l91 00D5                               l85 0119                               l88 0104  
                             _p0 00D6                               _p1 00DA                               _p2 00DE  
                   ___awdiv@sign 0076                               _p3 00E2                               _p4 00E6  
                             _p5 00EA                               _p6 00EE                               _p7 00F2  
                             _p8 00F6                               _p9 00FA              __Umul8_16@word_mpld 0076  
                            ?_p0 0070                              ?_p1 0070                              ?_p2 0070  
                            ?_p3 0070                              ?_p4 0070                              ?_p5 0070  
                            ?_p6 0070                              ?_p7 0070                              ?_p8 0070  
                            ?_p9 0070                              l112 00D9                              l121 00E5  
                            l130 00F1                              l115 00DD                              l124 00E9  
                            l133 00F5                              l118 00E1                              l127 00ED  
                            l136 00F9                              l155 01FE                              l139 00FD  
                            l181 04E2                              l510 01A3                              l168 0598  
                            l189 0388                              l545 02BD                              l538 02D2  
                            l548 02D2                              l741 07EF                              l760 0140  
                            l497 025D                              l753 07E3                              l762 0150  
                            l747 076B                              l791 0330                              l785 02F5  
                            l787 037E                              l798 034A                              l799 0356  
                   ___awmod@sign 0076                              wreg 0009                     ___flmul@aexp 0032  
                   ___flmul@bexp 0033                     ___flmul@sign 002D                     ___flmul@temp 0038  
                   ___flmul@prod 0034                             ??_p0 0070                             ??_p1 0070  
                           ??_p2 0070                             ??_p3 0070                             ??_p4 0070  
                           ??_p5 0070                             ??_p6 0070                             ??_p7 0070  
                           ??_p8 0070                             ??_p9 0070                     ___fltol@exp1 0044  
                           l1402 00CF                             l1410 01AD                             l1404 010D  
                           l1420 01DA                             l1412 01B7                             l1500 0452  
                           l1350 0123                             l1342 011A                             l1422 01E1  
                           l1414 01BD                             l1406 01A4                             l1430 04E6  
                           l1510 047D                             l1502 0459                             l1360 00FE  
                           l1352 0128                             l1344 011D                             l1600 0166  
                           l1424 01EC                             l1416 01C8                             l1408 01A7  
                           l1440 0500                             l1432 04EC                             l1520 049A  
                           l1512 0480                             l1504 0464                             l1354 0105  
                           l1362 0101                             l1346 0120                             l1610 017C  
                           l1602 016C                             l1426 01F3                             l1418 01CF  
                           l1370 00DA                             l1450 0521                             l1442 0508  
                           l1434 04EF                             l1530 04B6                             l1522 04A1  
                           l1514 0488                             l1506 046B                             l1356 0108  
                           l1364 0102                             l1348 0121                             l1620 019A  
                           l1612 0186                             l1604 016F                             l1700 05F3  
                           l1372 00DE                             l1380 00EE                             l1460 053E  
                           l1452 0524                             l1444 050F                             l1436 04F7  
                           l1428 04E3                             l1540 04D7                             l1532 04BE  
                           l1524 04A4                             l1516 048F                             l1508 0476  
                           l1358 0109                             l1366 00D2                             l1550 0209  
                           l1622 019F                             l1614 018A                             l1606 0174  
                           l1390 0131                             l1710 061B                             l1702 05F8  
                           l1374 00E2                             l1382 00F2                             l1470 055A  
                           l1462 0545                             l1454 052C                             l1446 0512  
                           l1438 04FD                             l1542 04DA                             l1534 04C5  
                           l1526 04AC                             l1518 0492                             l1560 021A  
                           l1552 020B                             l1544 01FF                             l1616 018F  
                           l1608 0178                             l1392 0138                             l1720 0676  
                           l1712 0635                             l1640 0291                             l1632 0273  
                           l1368 00D6                             l1376 00E6                             l1384 00F6  
                           l1480 057B                             l1472 0562                             l1464 0548  
                           l1456 0533                             l1448 051A                             l1536 04C8  
                           l1528 04B3                             l1570 0230                             l1562 0220  
                           l1554 020F                             l1546 0200                             l1618 0195  
                           l1394 013C                             l1730 06A5                             l1722 067D  
                           l1714 0642                             l1706 0601                             l1642 0295  
                           l1650 02AD                             l1634 0286                             l1626 025E  
                           l1810 02FD                             l1802 02D4                             l1378 00EA  
                           l1386 00FA                             l1482 057E                             l1474 0569  
                           l1466 0550                             l1458 0536                             l1538 04D0  
                           l1490 042E                             l1572 023F                             l1564 0223  
                           l1580 024F                             l1556 0214                             l1548 0204  
                           l1396 0147                             l1388 012F                             l1740 06F5  
                           l1732 06B9                             l1724 068A                             l1716 065C  
                           l1708 060E                             l1660 02C7                             l1636 0287  
                           l1628 026A                             l1820 031D                             l1804 02D9  
                           l1484 0586                             l1476 056C                             l1468 0557  
                           l1492 0431                             l1582 0254                             l1574 0243  
                           l1566 0228                             l1558 0218                             l1590 0152  
                           l1398 014C                             l1750 073B                             l1742 070A  
                           l1734 06C0                             l1726 0691                             l1718 0669  
                           l1670 05A8                             l1662 0599                             l1638 028F  
                           l1830 0344                             l1822 0321                             l1814 0306  
                           l1806 02DD                             l1486 058D                             l1478 0574  
                           l1494 0437                             l1584 0259                             l1576 0244  
                           l1568 022C                             l1592 0156                             l1760 074F  
                           l1752 073F                             l1744 0721                             l1736 06D4  
                           l1728 069E                             l1680 05C4                             l1672 05AD  
                           l1664 059F                             l1656 02B4                             l1648 029D  
                           l1840 0375                             l1832 034E                             l1824 0329  
                           l1816 030B                             l1808 02ED                             l1488 0590  
                           l1496 0441                             l1578 0249                             l1594 015B  
                           l1770 0770                             l1762 0750                             l1754 0740  
                           l1746 0728                             l1738 06E1                             l1690 05D7  
                           l1682 05C9                             l1674 05B2                             l1666 05A3  
                           l1658 02C2                             l1842 0376                             l1834 0358  
                           l1826 0337                             l1818 0316                             l1498 0447  
                           l1850 038D                             l1596 015D                             l1588 0151  
                           l1772 0775                             l1780 079D                             l1764 0754  
                           l1756 0747                             l1748 0734                             l1692 05DC  
                           l1684 05CD                             l1676 05BA                             l1668 05A7  
                           l1836 036C                             l1828 0340                             l1852 041A  
                           l1598 0161                             l1790 07CD                             l1782 07AA  
                           l1774 077D                             l1766 0768                             l1758 074B  
                           l1694 05E4                             l1686 05D1                             l1678 05BC  
                           l1838 0371                             l1854 0423                             l1846 037F  
                           l1792 07DA                             l1784 07B4                             l1776 0781  
                           l1696 05E6                             l1688 05D2                             l1848 0385  
                           l1794 07DE                             l1786 07C2                             l1778 0799  
                           l1698 05EE                             l1796 07DF                             l1788 07CB  
                           l1798 07E7                             u1000 013C                             u1001 013B  
                           u1020 014C                             u1100 050F                             u1021 014B  
                           u1101 050E                             u1030 01AD                             u1110 0521  
                           u1015 0141                             u1031 01AC                             u1111 0520  
                           u1040 01BD                             u1120 0533                             u1200 0459  
                           u1041 01BC                             u1121 0532                             u1201 0458  
                           u1050 01CF                             u1130 0545                             u1210 046B  
                           u1051 01CE                             u1131 0544                             u1211 046A  
                           u1300 0220                             u1060 01E1                             u1140 0557  
                           u1220 047D                             u1301 021F                             u1061 01E0  
                           u1141 0556                             u1221 047C                             u1070 01F3  
                           u1150 0569                             u1230 048F                             u1071 01F2  
                           u1151 0568                             u1231 048E                             u2007 044D  
                           u1320 0230                             u1400 016C                             u1160 057B  
                           u1080 04EC                             u1240 04A1                             u1321 022F  
                           u1401 016B                             u1161 057A                             u1081 04EB  
                           u1241 04A0                             u2017 045F                             u1170 058D  
                           u1090 04FD                             u1250 04B3                             u1315 0224  
                           u1171 058C                             u2107 0503                             u1091 04FC  
                           u1251 04B2                             u2027 0471                             u1340 023F  
                           u1420 017C                             u1500 029C                             u1260 04C5  
                           u1180 0437                             u1341 023E                             u1421 017B  
                           u1501 029B                             u2117 0515                             u1261 04C4  
                           u2037 0483                             u1181 0436                             _LATA 010C  
                           u1430 0186                             u1270 04D7                             u1190 0447  
                           _LATB 010D                             u1335 0231                             u1431 0185  
                           u1415 0170                             u2207 01C3                             u2127 0527  
                           u1271 04D6                             u2047 0495                             u1191 0446  
                           u1360 024F                             u1280 0204                             u1600 05D1  
                           u1520 02AC                             u1361 024E                             u1345 023B  
                           u1281 0203                             u1601 05D0                             u1521 02AB  
                           u2217 01D5                             u2137 0539                             u2057 04A7  
                           u1370 0254                             u1290 020F                             u1450 0195  
                           u1610 05D7                             u1530 02B3                             u1371 0253  
                           u1355 0245                             u1291 020E                             u1451 0194  
                           u1435 0182                             u1611 05D6                             u1531 02B2  
                           u1515 029E                             u2227 01E7                             u2147 054B  
                           u2067 04B9                             u1460 019A                             u1380 0156  
                           u1620 05DC                             u1461 0199                             u1445 018B  
                           u1381 0155                             u1621 05DB                             u2237 01F9  
                           u2157 055D                             u2077 04CB                             u1390 0161  
                           u1710 073F                             u1630 05F3                             u1550 02C2  
                           u1470 026A                             u1391 0160                             u1711 073E  
                           u1631 05F2                             u1551 02C1                             u1471 0269  
                           u2167 056F                             u2087 04DD                             u1800 07AA  
                           u1640 05F8                             u1560 02C7                             u1480 0280  
                           u1801 07A9                             u1705 0735                             u1641 05F7  
                           u1561 02C6                             u1545 02B5                             u2177 0581  
                           u2097 04F2                             u1810 07C2                             u1730 074F  
                           u1570 05A7                             u1490 0295                             u1811 07C1  
                           u1731 074E                             u1571 05A6                             u1491 0294  
                           u2187 0593                             u1820 07DE                             u1740 0754  
                           u1580 05AD                             u1821 07DD                             u1805 07A6  
                           u1741 0753                             u1725 0741                             u1581 05AC  
                           u1485 027C                             u2197 01B2                             u1750 0768  
                           u1670 0700                             u1590 05B2                             u1910 0344  
                           u1830 02D9                             u1815 07BE                             u1751 0767  
                           u1655 0677                             u1591 05B1                             u1911 0343  
                           u1831 02D8                             u1760 076F                             u1680 0717  
                           u1920 034A                             u1840 02DD                             u1761 076E  
                           u1665 06A6                             u1921 0349                             u1905 033A  
                           u1841 02DC                             u1770 0775                             u1930 034E  
                           u1850 02FD                             u1771 0774                             u1675 06FC  
                           u1931 034D                             u1851 02FC                             u1780 0781  
                           u1940 0362                             u1781 0780                             u1685 0713  
                           u1790 078F                             u1950 0371                             u1870 031C  
                           u1695 0722                             u1951 0370                             u1871 031B  
                           u1960 0375                             u1961 0374                             u1945 035E  
                           u1865 0310                             u1890 0336                             u1970 038D  
                           u1795 078B                             u1891 0335                             u1971 038C  
                           u1885 032A                             u1987 041E                             u1997 043C  
                           _WPUA 020C                             _WPUB 020D                             _main 037F  
                           btemp 007E                             start 0002   __size_of_OSCILLATOR_Initialize 0007  
  __end_of_OSCILLATOR_Initialize 0105                    ___fltol@sign1 0043                            ?_main 0070  
                __end_of___awdiv 025E                  __end_of___awmod 01A4                  __end_of___flmul 07F0  
                __end_of___fltol 02D3                  ___awdiv@divisor 0070                  ___awdiv@counter 0075  
                          _PORTB 000D                            _TRISA 008C                            _TRISB 008D  
                 _WDT_Initialize 00D2                            _resto 0048                            status 0003  
                          wtemp0 007E                  __initialization 07F0                     __end_of_main 042E  
                         ??_main 0045           __end_of_WDT_Initialize 00D6                           _ADCON0 009D  
                         _ADCON1 009E                           _ADRESH 009C                           _ADRESL 009B  
               ___awdiv@dividend 0072                           _ANSELA 018C                           _ANSELB 018D  
                         _BORCON 0116                           _OSCCON 0099                           _WDTCON 0097  
               __end_of___xxtofl 037F                 __end_of_display1 01FF                 __end_of_display2 0599  
               __end_of_display3 04E3                        ??___awdiv 0074                        ??___awmod 0074  
                      ??___flmul 0028                        ??___fltol 003E                 ___awdiv@quotient 0077  
                ___awmod@divisor 0070                  ___awmod@counter 0075               __size_of__Umul8_16 0023  
                ?_WDT_Initialize 0070                     ___xxtofl@arg 007A                     ___xxtofl@exp 0079  
              _SYSTEM_Initialize 010D                     ___xxtofl@val 0070          __end_of__initialization 07FD  
             ?_SYSTEM_Initialize 0070                       ___fltol@f1 003A     __size_of_ADC_StartConversion 0003  
                 __pcstackCOMMON 0070              ??_SYSTEM_Initialize 0070                       __end_of_p0 00DA  
                     __end_of_p1 00DE                       __end_of_p2 00E2                       __end_of_p3 00E6  
                     __end_of_p4 00EA                       __end_of_p5 00EE                       __end_of_p6 00F2  
                     __end_of_p7 00F6                       __end_of_p8 00FA                       __end_of_p9 00FE  
                 _OPTION_REGbits 0095        __end_of_SYSTEM_Initialize 011A                       __pbssBANK0 0048  
              __end_of__Umul8_16 0151                       __pmaintext 037F                          _APFCON0 011D  
                        _APFCON1 011E          __size_of_ADC_Initialize 0008                        ?___xxtofl 0070  
                        _OSCTUNE 0098                        ?_display1 0070                        ?_display2 0070  
                      ?_display3 0070             _ADC_InterruptHandler 0052                          ___awdiv 01FF  
                        ___awmod 0151                          ___flmul 0599                          ___fltol 025E  
                        __ptext1 042E                          __ptext2 04E3                          __ptext3 00FA  
                        __ptext4 00F6                          __ptext5 00F2                          __ptext6 00EE  
                        __ptext7 00EA                          __ptext8 00E6                          __ptext9 00E2  
          _OSCILLATOR_Initialize 00FE                       ??___xxtofl 0074                 ___awmod@dividend 0072  
       ??_PIN_MANAGER_Initialize 0070       __size_of_SYSTEM_Initialize 000D                       ??_display1 0072  
                     ??_display2 0072                       ??_display3 0072             end_of_initialization 07FD  
               ??_WDT_Initialize 0070                        _PORTAbits 000C                    ___xxtofl@sign 0078  
            _ADC_StartConversion 00CF                      ___flmul@grs 002E             ?_ADC_StartConversion 0070  
                 _ADC_Initialize 0105           ?_OSCILLATOR_Initialize 0070              start_initialization 07F0  
__size_of_PIN_MANAGER_Initialize 0014            ??_ADC_StartConversion 0070           __end_of_ADC_Initialize 010D  
                      __Umul8_16 012E                        ___flmul@a 0024                        ___flmul@b 0020  
                      ___latbits 0001                    __pcstackBANK0 0020                __size_of___xxtofl 00AC  
              __size_of_display1 005B                __size_of_display2 00B6                __size_of_display3 00B5  
         _PIN_MANAGER_Initialize 011A                         ?___awdiv 0070                         ?___awmod 0070  
                       ?___flmul 0020                         ?___fltol 003A                       ?__Umul8_16 0070  
                ?_ADC_Initialize 0070                      __size_of_p0 0004                      __size_of_p1 0004  
                    __size_of_p2 0004                      __size_of_p3 0004                      __size_of_p4 0004  
                    __size_of_p5 0004                      __size_of_p6 0004                      __size_of_p7 0004  
                    __size_of_p8 0004                      __size_of_p9 0004                        _risultato 0050  
                     _ADCON0bits 009D                        display1@a 0070                        display2@b 0070  
                      display3@c 0070          ??_OSCILLATOR_Initialize 0070                      ??__Umul8_16 0072  
               __size_of___awdiv 005F                 __size_of___awmod 0053                 __size_of___flmul 0257  
               __size_of___fltol 0075                         ___xxtofl 02D3                         __ptext10 00DE  
                       __ptext11 00DA                         __ptext20 010D                         __ptext12 00D6  
                       __ptext21 00D2                         __ptext13 01A4                         __ptext22 011A  
                       __ptext14 02D3                         __ptext23 00FE                         __ptext15 025E  
                       __ptext24 0105                         __ptext16 0599                         __ptext25 00CF  
                       __ptext17 012E                         __ptext18 0151                         __ptext19 01FF  
                       _display1 01A4                         _display2 04E3                         _display3 042E  
                  __size_of_main 00AF          __size_of_WDT_Initialize 0004      __end_of_ADC_StartConversion 00D2  
        ?_PIN_MANAGER_Initialize 0070                 ??_ADC_Initialize 0070           __Umul8_16@multiplicand 0070  
 __end_of_PIN_MANAGER_Initialize 012E             __Umul8_16@multiplier 0078                __Umul8_16@product 0074  
