

Microchip MPLAB XC8 Assembler V2.35 build 20211206165544 
                                                                                               Thu Mar 31 10:43:29 2022

Microchip MPLAB XC8 C Compiler v2.35 (Free license) build 20211206165544 Og1 
     1                           	processor	16F1827
     2                           	pagewidth 120
     3                           	opt	flic
     4                           	psect	idataBANK0,global,class=CODE,delta=2,noexec
     5                           	psect	stringtext1,global,class=STRCODE,delta=2,noexec
     6                           	psect	nvBANK0,global,class=BANK0,space=1,delta=1,noexec
     7                           	psect	cinit,global,class=CODE,merge=1,delta=2
     8                           	psect	bssBANK0,global,class=BANK0,space=1,delta=1,noexec
     9                           	psect	dataBANK0,global,class=BANK0,space=1,delta=1,noexec
    10                           	psect	bssBANK1,global,class=BANK1,space=1,delta=1,noexec
    11                           	psect	clrtext,global,class=CODE,delta=2
    12                           	psect	cstackCOMMON,global,class=COMMON,space=1,delta=1,noexec
    13                           	psect	cstackBANK0,global,class=BANK0,space=1,delta=1,noexec
    14                           	psect	maintext,global,class=CODE,merge=1,split=1,delta=2
    15                           	psect	text1,local,class=CODE,merge=1,delta=2,group=1
    16                           	psect	text2,local,class=CODE,merge=1,delta=2,group=1
    17                           	psect	text3,local,class=CODE,merge=1,delta=2,group=1
    18                           	psect	text4,local,class=CODE,merge=1,delta=2,group=1
    19                           	psect	text5,local,class=CODE,merge=1,delta=2,group=1
    20                           	psect	text6,local,class=CODE,merge=1,delta=2,group=1
    21                           	psect	text7,local,class=CODE,merge=1,delta=2
    22                           	psect	text8,local,class=CODE,merge=1,delta=2
    23                           	psect	text9,local,class=CODE,merge=1,delta=2
    24                           	psect	text10,local,class=CODE,merge=1,delta=2
    25                           	psect	text11,local,class=CODE,merge=1,delta=2
    26                           	psect	text12,local,class=CODE,merge=1,delta=2
    27                           	psect	text13,local,class=CODE,merge=1,delta=2
    28                           	psect	text14,local,class=CODE,merge=1,delta=2
    29                           	psect	text15,local,class=CODE,merge=1,delta=2
    30                           	psect	text16,local,class=CODE,merge=1,delta=2
    31                           	psect	text17,local,class=CODE,merge=1,delta=2
    32                           	psect	text18,local,class=CODE,merge=1,delta=2
    33                           	psect	text19,local,class=CODE,merge=1,delta=2
    34                           	psect	text20,local,class=CODE,merge=1,delta=2
    35                           	psect	text21,local,class=CODE,merge=1,inline,delta=2
    36                           	psect	text22,local,class=CODE,merge=1,delta=2
    37                           	psect	text23,local,class=CODE,merge=1,delta=2
    38                           	psect	text24,local,class=CODE,merge=1,delta=2
    39                           	psect	text25,local,class=CODE,merge=1,inline,delta=2
    40                           	psect	text26,local,class=CODE,merge=1,inline,delta=2
    41                           	psect	text27,local,class=CODE,merge=1,delta=2
    42                           	psect	text28,local,class=CODE,merge=1,delta=2
    43                           	psect	text29,local,class=CODE,merge=1,delta=2
    44                           	psect	text30,local,class=CODE,merge=1,delta=2
    45                           	psect	text31,local,class=CODE,merge=1,delta=2
    46                           	psect	text32,local,class=CODE,merge=1,delta=2
    47                           	psect	text33,local,class=CODE,merge=1,delta=2
    48                           	psect	text34,local,class=CODE,merge=1,delta=2
    49                           	psect	text35,local,class=CODE,merge=1,delta=2
    50                           	psect	text36,local,class=CODE,merge=1,delta=2
    51                           	psect	text37,local,class=CODE,merge=1,delta=2
    52                           	psect	text38,local,class=CODE,merge=1,delta=2
    53                           	psect	text39,local,class=CODE,merge=1,delta=2
    54                           	psect	text40,local,class=CODE,merge=1,delta=2
    55                           	psect	text41,local,class=CODE,merge=1,delta=2
    56                           	psect	text42,local,class=CODE,merge=1,delta=2
    57                           	psect	text43,local,class=CODE,merge=1,inline,delta=2
    58                           	psect	text44,local,class=CODE,merge=1,inline,delta=2
    59                           	psect	text45,local,class=CODE,merge=1,inline,delta=2
    60                           	psect	text46,local,class=CODE,merge=1,inline,delta=2
    61                           	psect	text47,local,class=CODE,merge=1,inline,delta=2
    62                           	psect	text48,local,class=CODE,merge=1,inline,delta=2
    63                           	psect	text49,local,class=CODE,merge=1,inline,delta=2
    64                           	psect	text50,local,class=CODE,merge=1,delta=2
    65                           	psect	text51,local,class=CODE,merge=1,delta=2
    66                           	psect	text52,local,class=CODE,merge=1,delta=2
    67                           	psect	text53,local,class=CODE,merge=1,delta=2
    68                           	psect	text54,local,class=CODE,merge=1,delta=2
    69                           	psect	text55,local,class=CODE,merge=1,delta=2
    70                           	psect	text56,local,class=CODE,merge=1,delta=2
    71                           	psect	text57,local,class=CODE,merge=1,delta=2
    72                           	psect	text58,local,class=CODE,merge=1,delta=2
    73                           	psect	text59,local,class=CODE,merge=1,delta=2
    74                           	psect	text60,local,class=CODE,merge=1,inline,delta=2
    75                           	psect	text61,local,class=CODE,merge=1,inline,delta=2
    76                           	psect	text62,local,class=CODE,merge=1,inline,delta=2
    77                           	psect	text63,local,class=CODE,merge=1,delta=2
    78                           	psect	text64,local,class=CODE,merge=1,inline,delta=2
    79                           	psect	text65,local,class=CODE,merge=1,inline,delta=2
    80                           	psect	text66,local,class=CODE,merge=1,inline,delta=2
    81                           	psect	text67,local,class=CODE,merge=1,delta=2
    82                           	psect	idloc,global,abs,ovrld,class=IDLOC,space=5,delta=2,noexec
    83                           	psect	config,global,abs,ovrld,class=CONFIG,space=4,delta=2,noexec
    84                           	dabs	1,0x7E,2
    85  0000                     
    86                           ; Version 2.20
    87                           ; Generated 12/02/2020 GMT
    88                           ; 
    89                           ; Copyright © 2020, Microchip Technology Inc. and its subsidiaries ("Microchip")
    90                           ; All rights reserved.
    91                           ; 
    92                           ; This software is developed by Microchip Technology Inc. and its subsidiaries ("Microch
      +                          ip").
    93                           ; 
    94                           ; Redistribution and use in source and binary forms, with or without modification, are
    95                           ; permitted provided that the following conditions are met:
    96                           ; 
    97                           ;     1. Redistributions of source code must retain the above copyright notice, this lis
      +                          t of
    98                           ;        conditions and the following disclaimer.
    99                           ; 
   100                           ;     2. Redistributions in binary form must reproduce the above copyright notice, this 
      +                          list
   101                           ;        of conditions and the following disclaimer in the documentation and/or other
   102                           ;        materials provided with the distribution.
   103                           ; 
   104                           ;     3. Microchip's name may not be used to endorse or promote products derived from th
      +                          is
   105                           ;        software without specific prior written permission.
   106                           ; 
   107                           ; THIS SOFTWARE IS PROVIDED BY MICROCHIP "AS IS" AND ANY EXPRESS OR IMPLIED WARRANTIES,
   108                           ; INCLUDING, BUT NOT LIMITED TO, THE IMPLIED WARRANTIES OF MERCHANTABILITY AND FITNESS F
      +                          OR
   109                           ; PURPOSE ARE DISCLAIMED.  IN NO EVENT SHALL MICROCHIP BE LIABLE FOR ANY DIRECT, INDIREC
      +                          T,
   110                           ; INCIDENTAL, SPECIAL, EXEMPLARY, OR CONSEQUENTIAL DAMAGES (INCLUDING BUT NOT LIMITED TO
   111                           ; PROCUREMENT OF SUBSTITUTE GOODS OR SERVICES; LOSS OF USE, DATA OR PROFITS; OR BUSINESS
   112                           ; INTERRUPTION) HOWSOEVER CAUSED AND ON ANY THEORY OF LIABILITY, WHETHER IN CONTRACT, ST
      +                          RICT
   113                           ; LIABILITY, OR TORT (INCLUDING NEGLIGENCE OR OTHERWISE) ARISING IN ANY WAY OUT OF THE U
      +                          SE OF
   114                           ; THIS SOFTWARE, EVEN IF ADVISED OF THE POSSIBILITY OF SUCH DAMAGE.
   115                           ; 
   116                           ; 
   117                           ; Code-generator required, PIC16F1827 Definitions
   118                           ; 
   119                           ; SFR Addresses
   120  0000                     	;# 
   121  0001                     	;# 
   122  0002                     	;# 
   123  0003                     	;# 
   124  0004                     	;# 
   125  0005                     	;# 
   126  0006                     	;# 
   127  0007                     	;# 
   128  0008                     	;# 
   129  0009                     	;# 
   130  000A                     	;# 
   131  000B                     	;# 
   132  000C                     	;# 
   133  000D                     	;# 
   134  0011                     	;# 
   135  0012                     	;# 
   136  0013                     	;# 
   137  0014                     	;# 
   138  0015                     	;# 
   139  0016                     	;# 
   140  0016                     	;# 
   141  0017                     	;# 
   142  0018                     	;# 
   143  0019                     	;# 
   144  001A                     	;# 
   145  001B                     	;# 
   146  001C                     	;# 
   147  001E                     	;# 
   148  001F                     	;# 
   149  008C                     	;# 
   150  008D                     	;# 
   151  0091                     	;# 
   152  0092                     	;# 
   153  0093                     	;# 
   154  0094                     	;# 
   155  0095                     	;# 
   156  0096                     	;# 
   157  0097                     	;# 
   158  0098                     	;# 
   159  0099                     	;# 
   160  009A                     	;# 
   161  009B                     	;# 
   162  009B                     	;# 
   163  009C                     	;# 
   164  009D                     	;# 
   165  009E                     	;# 
   166  010C                     	;# 
   167  010D                     	;# 
   168  0111                     	;# 
   169  0112                     	;# 
   170  0113                     	;# 
   171  0114                     	;# 
   172  0115                     	;# 
   173  0116                     	;# 
   174  0117                     	;# 
   175  0118                     	;# 
   176  0119                     	;# 
   177  011A                     	;# 
   178  011B                     	;# 
   179  011D                     	;# 
   180  011E                     	;# 
   181  018C                     	;# 
   182  018D                     	;# 
   183  0191                     	;# 
   184  0191                     	;# 
   185  0192                     	;# 
   186  0193                     	;# 
   187  0193                     	;# 
   188  0193                     	;# 
   189  0194                     	;# 
   190  0195                     	;# 
   191  0196                     	;# 
   192  0199                     	;# 
   193  019A                     	;# 
   194  019B                     	;# 
   195  019B                     	;# 
   196  019B                     	;# 
   197  019B                     	;# 
   198  019C                     	;# 
   199  019C                     	;# 
   200  019D                     	;# 
   201  019E                     	;# 
   202  019F                     	;# 
   203  020C                     	;# 
   204  020D                     	;# 
   205  0211                     	;# 
   206  0211                     	;# 
   207  0212                     	;# 
   208  0212                     	;# 
   209  0213                     	;# 
   210  0213                     	;# 
   211  0214                     	;# 
   212  0214                     	;# 
   213  0215                     	;# 
   214  0215                     	;# 
   215  0215                     	;# 
   216  0216                     	;# 
   217  0216                     	;# 
   218  0217                     	;# 
   219  0217                     	;# 
   220  0219                     	;# 
   221  021A                     	;# 
   222  021B                     	;# 
   223  021C                     	;# 
   224  021D                     	;# 
   225  021E                     	;# 
   226  021F                     	;# 
   227  0291                     	;# 
   228  0291                     	;# 
   229  0292                     	;# 
   230  0293                     	;# 
   231  0294                     	;# 
   232  0295                     	;# 
   233  0295                     	;# 
   234  0296                     	;# 
   235  0298                     	;# 
   236  0298                     	;# 
   237  0299                     	;# 
   238  029A                     	;# 
   239  029B                     	;# 
   240  029C                     	;# 
   241  029C                     	;# 
   242  029D                     	;# 
   243  029E                     	;# 
   244  029E                     	;# 
   245  0311                     	;# 
   246  0311                     	;# 
   247  0312                     	;# 
   248  0313                     	;# 
   249  0318                     	;# 
   250  0318                     	;# 
   251  0319                     	;# 
   252  031A                     	;# 
   253  0394                     	;# 
   254  0395                     	;# 
   255  0396                     	;# 
   256  039A                     	;# 
   257  039C                     	;# 
   258  039D                     	;# 
   259  039E                     	;# 
   260  039F                     	;# 
   261  0415                     	;# 
   262  0416                     	;# 
   263  0417                     	;# 
   264  041C                     	;# 
   265  041D                     	;# 
   266  041E                     	;# 
   267  0FE4                     	;# 
   268  0FE5                     	;# 
   269  0FE6                     	;# 
   270  0FE7                     	;# 
   271  0FE8                     	;# 
   272  0FE9                     	;# 
   273  0FEA                     	;# 
   274  0FEB                     	;# 
   275  0FED                     	;# 
   276  0FEE                     	;# 
   277  0FEF                     	;# 
   278  0000                     	;# 
   279  0001                     	;# 
   280  0002                     	;# 
   281  0003                     	;# 
   282  0004                     	;# 
   283  0005                     	;# 
   284  0006                     	;# 
   285  0007                     	;# 
   286  0008                     	;# 
   287  0009                     	;# 
   288  000A                     	;# 
   289  000B                     	;# 
   290  000C                     	;# 
   291  000D                     	;# 
   292  0011                     	;# 
   293  0012                     	;# 
   294  0013                     	;# 
   295  0014                     	;# 
   296  0015                     	;# 
   297  0016                     	;# 
   298  0016                     	;# 
   299  0017                     	;# 
   300  0018                     	;# 
   301  0019                     	;# 
   302  001A                     	;# 
   303  001B                     	;# 
   304  001C                     	;# 
   305  001E                     	;# 
   306  001F                     	;# 
   307  008C                     	;# 
   308  008D                     	;# 
   309  0091                     	;# 
   310  0092                     	;# 
   311  0093                     	;# 
   312  0094                     	;# 
   313  0095                     	;# 
   314  0096                     	;# 
   315  0097                     	;# 
   316  0098                     	;# 
   317  0099                     	;# 
   318  009A                     	;# 
   319  009B                     	;# 
   320  009B                     	;# 
   321  009C                     	;# 
   322  009D                     	;# 
   323  009E                     	;# 
   324  010C                     	;# 
   325  010D                     	;# 
   326  0111                     	;# 
   327  0112                     	;# 
   328  0113                     	;# 
   329  0114                     	;# 
   330  0115                     	;# 
   331  0116                     	;# 
   332  0117                     	;# 
   333  0118                     	;# 
   334  0119                     	;# 
   335  011A                     	;# 
   336  011B                     	;# 
   337  011D                     	;# 
   338  011E                     	;# 
   339  018C                     	;# 
   340  018D                     	;# 
   341  0191                     	;# 
   342  0191                     	;# 
   343  0192                     	;# 
   344  0193                     	;# 
   345  0193                     	;# 
   346  0193                     	;# 
   347  0194                     	;# 
   348  0195                     	;# 
   349  0196                     	;# 
   350  0199                     	;# 
   351  019A                     	;# 
   352  019B                     	;# 
   353  019B                     	;# 
   354  019B                     	;# 
   355  019B                     	;# 
   356  019C                     	;# 
   357  019C                     	;# 
   358  019D                     	;# 
   359  019E                     	;# 
   360  019F                     	;# 
   361  020C                     	;# 
   362  020D                     	;# 
   363  0211                     	;# 
   364  0211                     	;# 
   365  0212                     	;# 
   366  0212                     	;# 
   367  0213                     	;# 
   368  0213                     	;# 
   369  0214                     	;# 
   370  0214                     	;# 
   371  0215                     	;# 
   372  0215                     	;# 
   373  0215                     	;# 
   374  0216                     	;# 
   375  0216                     	;# 
   376  0217                     	;# 
   377  0217                     	;# 
   378  0219                     	;# 
   379  021A                     	;# 
   380  021B                     	;# 
   381  021C                     	;# 
   382  021D                     	;# 
   383  021E                     	;# 
   384  021F                     	;# 
   385  0291                     	;# 
   386  0291                     	;# 
   387  0292                     	;# 
   388  0293                     	;# 
   389  0294                     	;# 
   390  0295                     	;# 
   391  0295                     	;# 
   392  0296                     	;# 
   393  0298                     	;# 
   394  0298                     	;# 
   395  0299                     	;# 
   396  029A                     	;# 
   397  029B                     	;# 
   398  029C                     	;# 
   399  029C                     	;# 
   400  029D                     	;# 
   401  029E                     	;# 
   402  029E                     	;# 
   403  0311                     	;# 
   404  0311                     	;# 
   405  0312                     	;# 
   406  0313                     	;# 
   407  0318                     	;# 
   408  0318                     	;# 
   409  0319                     	;# 
   410  031A                     	;# 
   411  0394                     	;# 
   412  0395                     	;# 
   413  0396                     	;# 
   414  039A                     	;# 
   415  039C                     	;# 
   416  039D                     	;# 
   417  039E                     	;# 
   418  039F                     	;# 
   419  0415                     	;# 
   420  0416                     	;# 
   421  0417                     	;# 
   422  041C                     	;# 
   423  041D                     	;# 
   424  041E                     	;# 
   425  0FE4                     	;# 
   426  0FE5                     	;# 
   427  0FE6                     	;# 
   428  0FE7                     	;# 
   429  0FE8                     	;# 
   430  0FE9                     	;# 
   431  0FEA                     	;# 
   432  0FEB                     	;# 
   433  0FED                     	;# 
   434  0FEE                     	;# 
   435  0FEF                     	;# 
   436  0000                     	;# 
   437  0001                     	;# 
   438  0002                     	;# 
   439  0003                     	;# 
   440  0004                     	;# 
   441  0005                     	;# 
   442  0006                     	;# 
   443  0007                     	;# 
   444  0008                     	;# 
   445  0009                     	;# 
   446  000A                     	;# 
   447  000B                     	;# 
   448  000C                     	;# 
   449  000D                     	;# 
   450  0011                     	;# 
   451  0012                     	;# 
   452  0013                     	;# 
   453  0014                     	;# 
   454  0015                     	;# 
   455  0016                     	;# 
   456  0016                     	;# 
   457  0017                     	;# 
   458  0018                     	;# 
   459  0019                     	;# 
   460  001A                     	;# 
   461  001B                     	;# 
   462  001C                     	;# 
   463  001E                     	;# 
   464  001F                     	;# 
   465  008C                     	;# 
   466  008D                     	;# 
   467  0091                     	;# 
   468  0092                     	;# 
   469  0093                     	;# 
   470  0094                     	;# 
   471  0095                     	;# 
   472  0096                     	;# 
   473  0097                     	;# 
   474  0098                     	;# 
   475  0099                     	;# 
   476  009A                     	;# 
   477  009B                     	;# 
   478  009B                     	;# 
   479  009C                     	;# 
   480  009D                     	;# 
   481  009E                     	;# 
   482  010C                     	;# 
   483  010D                     	;# 
   484  0111                     	;# 
   485  0112                     	;# 
   486  0113                     	;# 
   487  0114                     	;# 
   488  0115                     	;# 
   489  0116                     	;# 
   490  0117                     	;# 
   491  0118                     	;# 
   492  0119                     	;# 
   493  011A                     	;# 
   494  011B                     	;# 
   495  011D                     	;# 
   496  011E                     	;# 
   497  018C                     	;# 
   498  018D                     	;# 
   499  0191                     	;# 
   500  0191                     	;# 
   501  0192                     	;# 
   502  0193                     	;# 
   503  0193                     	;# 
   504  0193                     	;# 
   505  0194                     	;# 
   506  0195                     	;# 
   507  0196                     	;# 
   508  0199                     	;# 
   509  019A                     	;# 
   510  019B                     	;# 
   511  019B                     	;# 
   512  019B                     	;# 
   513  019B                     	;# 
   514  019C                     	;# 
   515  019C                     	;# 
   516  019D                     	;# 
   517  019E                     	;# 
   518  019F                     	;# 
   519  020C                     	;# 
   520  020D                     	;# 
   521  0211                     	;# 
   522  0211                     	;# 
   523  0212                     	;# 
   524  0212                     	;# 
   525  0213                     	;# 
   526  0213                     	;# 
   527  0214                     	;# 
   528  0214                     	;# 
   529  0215                     	;# 
   530  0215                     	;# 
   531  0215                     	;# 
   532  0216                     	;# 
   533  0216                     	;# 
   534  0217                     	;# 
   535  0217                     	;# 
   536  0219                     	;# 
   537  021A                     	;# 
   538  021B                     	;# 
   539  021C                     	;# 
   540  021D                     	;# 
   541  021E                     	;# 
   542  021F                     	;# 
   543  0291                     	;# 
   544  0291                     	;# 
   545  0292                     	;# 
   546  0293                     	;# 
   547  0294                     	;# 
   548  0295                     	;# 
   549  0295                     	;# 
   550  0296                     	;# 
   551  0298                     	;# 
   552  0298                     	;# 
   553  0299                     	;# 
   554  029A                     	;# 
   555  029B                     	;# 
   556  029C                     	;# 
   557  029C                     	;# 
   558  029D                     	;# 
   559  029E                     	;# 
   560  029E                     	;# 
   561  0311                     	;# 
   562  0311                     	;# 
   563  0312                     	;# 
   564  0313                     	;# 
   565  0318                     	;# 
   566  0318                     	;# 
   567  0319                     	;# 
   568  031A                     	;# 
   569  0394                     	;# 
   570  0395                     	;# 
   571  0396                     	;# 
   572  039A                     	;# 
   573  039C                     	;# 
   574  039D                     	;# 
   575  039E                     	;# 
   576  039F                     	;# 
   577  0415                     	;# 
   578  0416                     	;# 
   579  0417                     	;# 
   580  041C                     	;# 
   581  041D                     	;# 
   582  041E                     	;# 
   583  0FE4                     	;# 
   584  0FE5                     	;# 
   585  0FE6                     	;# 
   586  0FE7                     	;# 
   587  0FE8                     	;# 
   588  0FE9                     	;# 
   589  0FEA                     	;# 
   590  0FEB                     	;# 
   591  0FED                     	;# 
   592  0FEE                     	;# 
   593  0FEF                     	;# 
   594  0000                     	;# 
   595  0001                     	;# 
   596  0002                     	;# 
   597  0003                     	;# 
   598  0004                     	;# 
   599  0005                     	;# 
   600  0006                     	;# 
   601  0007                     	;# 
   602  0008                     	;# 
   603  0009                     	;# 
   604  000A                     	;# 
   605  000B                     	;# 
   606  000C                     	;# 
   607  000D                     	;# 
   608  0011                     	;# 
   609  0012                     	;# 
   610  0013                     	;# 
   611  0014                     	;# 
   612  0015                     	;# 
   613  0016                     	;# 
   614  0016                     	;# 
   615  0017                     	;# 
   616  0018                     	;# 
   617  0019                     	;# 
   618  001A                     	;# 
   619  001B                     	;# 
   620  001C                     	;# 
   621  001E                     	;# 
   622  001F                     	;# 
   623  008C                     	;# 
   624  008D                     	;# 
   625  0091                     	;# 
   626  0092                     	;# 
   627  0093                     	;# 
   628  0094                     	;# 
   629  0095                     	;# 
   630  0096                     	;# 
   631  0097                     	;# 
   632  0098                     	;# 
   633  0099                     	;# 
   634  009A                     	;# 
   635  009B                     	;# 
   636  009B                     	;# 
   637  009C                     	;# 
   638  009D                     	;# 
   639  009E                     	;# 
   640  010C                     	;# 
   641  010D                     	;# 
   642  0111                     	;# 
   643  0112                     	;# 
   644  0113                     	;# 
   645  0114                     	;# 
   646  0115                     	;# 
   647  0116                     	;# 
   648  0117                     	;# 
   649  0118                     	;# 
   650  0119                     	;# 
   651  011A                     	;# 
   652  011B                     	;# 
   653  011D                     	;# 
   654  011E                     	;# 
   655  018C                     	;# 
   656  018D                     	;# 
   657  0191                     	;# 
   658  0191                     	;# 
   659  0192                     	;# 
   660  0193                     	;# 
   661  0193                     	;# 
   662  0193                     	;# 
   663  0194                     	;# 
   664  0195                     	;# 
   665  0196                     	;# 
   666  0199                     	;# 
   667  019A                     	;# 
   668  019B                     	;# 
   669  019B                     	;# 
   670  019B                     	;# 
   671  019B                     	;# 
   672  019C                     	;# 
   673  019C                     	;# 
   674  019D                     	;# 
   675  019E                     	;# 
   676  019F                     	;# 
   677  020C                     	;# 
   678  020D                     	;# 
   679  0211                     	;# 
   680  0211                     	;# 
   681  0212                     	;# 
   682  0212                     	;# 
   683  0213                     	;# 
   684  0213                     	;# 
   685  0214                     	;# 
   686  0214                     	;# 
   687  0215                     	;# 
   688  0215                     	;# 
   689  0215                     	;# 
   690  0216                     	;# 
   691  0216                     	;# 
   692  0217                     	;# 
   693  0217                     	;# 
   694  0219                     	;# 
   695  021A                     	;# 
   696  021B                     	;# 
   697  021C                     	;# 
   698  021D                     	;# 
   699  021E                     	;# 
   700  021F                     	;# 
   701  0291                     	;# 
   702  0291                     	;# 
   703  0292                     	;# 
   704  0293                     	;# 
   705  0294                     	;# 
   706  0295                     	;# 
   707  0295                     	;# 
   708  0296                     	;# 
   709  0298                     	;# 
   710  0298                     	;# 
   711  0299                     	;# 
   712  029A                     	;# 
   713  029B                     	;# 
   714  029C                     	;# 
   715  029C                     	;# 
   716  029D                     	;# 
   717  029E                     	;# 
   718  029E                     	;# 
   719  0311                     	;# 
   720  0311                     	;# 
   721  0312                     	;# 
   722  0313                     	;# 
   723  0318                     	;# 
   724  0318                     	;# 
   725  0319                     	;# 
   726  031A                     	;# 
   727  0394                     	;# 
   728  0395                     	;# 
   729  0396                     	;# 
   730  039A                     	;# 
   731  039C                     	;# 
   732  039D                     	;# 
   733  039E                     	;# 
   734  039F                     	;# 
   735  0415                     	;# 
   736  0416                     	;# 
   737  0417                     	;# 
   738  041C                     	;# 
   739  041D                     	;# 
   740  041E                     	;# 
   741  0FE4                     	;# 
   742  0FE5                     	;# 
   743  0FE6                     	;# 
   744  0FE7                     	;# 
   745  0FE8                     	;# 
   746  0FE9                     	;# 
   747  0FEA                     	;# 
   748  0FEB                     	;# 
   749  0FED                     	;# 
   750  0FEE                     	;# 
   751  0FEF                     	;# 
   752  0000                     	;# 
   753  0001                     	;# 
   754  0002                     	;# 
   755  0003                     	;# 
   756  0004                     	;# 
   757  0005                     	;# 
   758  0006                     	;# 
   759  0007                     	;# 
   760  0008                     	;# 
   761  0009                     	;# 
   762  000A                     	;# 
   763  000B                     	;# 
   764  000C                     	;# 
   765  000D                     	;# 
   766  0011                     	;# 
   767  0012                     	;# 
   768  0013                     	;# 
   769  0014                     	;# 
   770  0015                     	;# 
   771  0016                     	;# 
   772  0016                     	;# 
   773  0017                     	;# 
   774  0018                     	;# 
   775  0019                     	;# 
   776  001A                     	;# 
   777  001B                     	;# 
   778  001C                     	;# 
   779  001E                     	;# 
   780  001F                     	;# 
   781  008C                     	;# 
   782  008D                     	;# 
   783  0091                     	;# 
   784  0092                     	;# 
   785  0093                     	;# 
   786  0094                     	;# 
   787  0095                     	;# 
   788  0096                     	;# 
   789  0097                     	;# 
   790  0098                     	;# 
   791  0099                     	;# 
   792  009A                     	;# 
   793  009B                     	;# 
   794  009B                     	;# 
   795  009C                     	;# 
   796  009D                     	;# 
   797  009E                     	;# 
   798  010C                     	;# 
   799  010D                     	;# 
   800  0111                     	;# 
   801  0112                     	;# 
   802  0113                     	;# 
   803  0114                     	;# 
   804  0115                     	;# 
   805  0116                     	;# 
   806  0117                     	;# 
   807  0118                     	;# 
   808  0119                     	;# 
   809  011A                     	;# 
   810  011B                     	;# 
   811  011D                     	;# 
   812  011E                     	;# 
   813  018C                     	;# 
   814  018D                     	;# 
   815  0191                     	;# 
   816  0191                     	;# 
   817  0192                     	;# 
   818  0193                     	;# 
   819  0193                     	;# 
   820  0193                     	;# 
   821  0194                     	;# 
   822  0195                     	;# 
   823  0196                     	;# 
   824  0199                     	;# 
   825  019A                     	;# 
   826  019B                     	;# 
   827  019B                     	;# 
   828  019B                     	;# 
   829  019B                     	;# 
   830  019C                     	;# 
   831  019C                     	;# 
   832  019D                     	;# 
   833  019E                     	;# 
   834  019F                     	;# 
   835  020C                     	;# 
   836  020D                     	;# 
   837  0211                     	;# 
   838  0211                     	;# 
   839  0212                     	;# 
   840  0212                     	;# 
   841  0213                     	;# 
   842  0213                     	;# 
   843  0214                     	;# 
   844  0214                     	;# 
   845  0215                     	;# 
   846  0215                     	;# 
   847  0215                     	;# 
   848  0216                     	;# 
   849  0216                     	;# 
   850  0217                     	;# 
   851  0217                     	;# 
   852  0219                     	;# 
   853  021A                     	;# 
   854  021B                     	;# 
   855  021C                     	;# 
   856  021D                     	;# 
   857  021E                     	;# 
   858  021F                     	;# 
   859  0291                     	;# 
   860  0291                     	;# 
   861  0292                     	;# 
   862  0293                     	;# 
   863  0294                     	;# 
   864  0295                     	;# 
   865  0295                     	;# 
   866  0296                     	;# 
   867  0298                     	;# 
   868  0298                     	;# 
   869  0299                     	;# 
   870  029A                     	;# 
   871  029B                     	;# 
   872  029C                     	;# 
   873  029C                     	;# 
   874  029D                     	;# 
   875  029E                     	;# 
   876  029E                     	;# 
   877  0311                     	;# 
   878  0311                     	;# 
   879  0312                     	;# 
   880  0313                     	;# 
   881  0318                     	;# 
   882  0318                     	;# 
   883  0319                     	;# 
   884  031A                     	;# 
   885  0394                     	;# 
   886  0395                     	;# 
   887  0396                     	;# 
   888  039A                     	;# 
   889  039C                     	;# 
   890  039D                     	;# 
   891  039E                     	;# 
   892  039F                     	;# 
   893  0415                     	;# 
   894  0416                     	;# 
   895  0417                     	;# 
   896  041C                     	;# 
   897  041D                     	;# 
   898  041E                     	;# 
   899  0FE4                     	;# 
   900  0FE5                     	;# 
   901  0FE6                     	;# 
   902  0FE7                     	;# 
   903  0FE8                     	;# 
   904  0FE9                     	;# 
   905  0FEA                     	;# 
   906  0FEB                     	;# 
   907  0FED                     	;# 
   908  0FEE                     	;# 
   909  0FEF                     	;# 
   910  0000                     	;# 
   911  0001                     	;# 
   912  0002                     	;# 
   913  0003                     	;# 
   914  0004                     	;# 
   915  0005                     	;# 
   916  0006                     	;# 
   917  0007                     	;# 
   918  0008                     	;# 
   919  0009                     	;# 
   920  000A                     	;# 
   921  000B                     	;# 
   922  000C                     	;# 
   923  000D                     	;# 
   924  0011                     	;# 
   925  0012                     	;# 
   926  0013                     	;# 
   927  0014                     	;# 
   928  0015                     	;# 
   929  0016                     	;# 
   930  0016                     	;# 
   931  0017                     	;# 
   932  0018                     	;# 
   933  0019                     	;# 
   934  001A                     	;# 
   935  001B                     	;# 
   936  001C                     	;# 
   937  001E                     	;# 
   938  001F                     	;# 
   939  008C                     	;# 
   940  008D                     	;# 
   941  0091                     	;# 
   942  0092                     	;# 
   943  0093                     	;# 
   944  0094                     	;# 
   945  0095                     	;# 
   946  0096                     	;# 
   947  0097                     	;# 
   948  0098                     	;# 
   949  0099                     	;# 
   950  009A                     	;# 
   951  009B                     	;# 
   952  009B                     	;# 
   953  009C                     	;# 
   954  009D                     	;# 
   955  009E                     	;# 
   956  010C                     	;# 
   957  010D                     	;# 
   958  0111                     	;# 
   959  0112                     	;# 
   960  0113                     	;# 
   961  0114                     	;# 
   962  0115                     	;# 
   963  0116                     	;# 
   964  0117                     	;# 
   965  0118                     	;# 
   966  0119                     	;# 
   967  011A                     	;# 
   968  011B                     	;# 
   969  011D                     	;# 
   970  011E                     	;# 
   971  018C                     	;# 
   972  018D                     	;# 
   973  0191                     	;# 
   974  0191                     	;# 
   975  0192                     	;# 
   976  0193                     	;# 
   977  0193                     	;# 
   978  0193                     	;# 
   979  0194                     	;# 
   980  0195                     	;# 
   981  0196                     	;# 
   982  0199                     	;# 
   983  019A                     	;# 
   984  019B                     	;# 
   985  019B                     	;# 
   986  019B                     	;# 
   987  019B                     	;# 
   988  019C                     	;# 
   989  019C                     	;# 
   990  019D                     	;# 
   991  019E                     	;# 
   992  019F                     	;# 
   993  020C                     	;# 
   994  020D                     	;# 
   995  0211                     	;# 
   996  0211                     	;# 
   997  0212                     	;# 
   998  0212                     	;# 
   999  0213                     	;# 
  1000  0213                     	;# 
  1001  0214                     	;# 
  1002  0214                     	;# 
  1003  0215                     	;# 
  1004  0215                     	;# 
  1005  0215                     	;# 
  1006  0216                     	;# 
  1007  0216                     	;# 
  1008  0217                     	;# 
  1009  0217                     	;# 
  1010  0219                     	;# 
  1011  021A                     	;# 
  1012  021B                     	;# 
  1013  021C                     	;# 
  1014  021D                     	;# 
  1015  021E                     	;# 
  1016  021F                     	;# 
  1017  0291                     	;# 
  1018  0291                     	;# 
  1019  0292                     	;# 
  1020  0293                     	;# 
  1021  0294                     	;# 
  1022  0295                     	;# 
  1023  0295                     	;# 
  1024  0296                     	;# 
  1025  0298                     	;# 
  1026  0298                     	;# 
  1027  0299                     	;# 
  1028  029A                     	;# 
  1029  029B                     	;# 
  1030  029C                     	;# 
  1031  029C                     	;# 
  1032  029D                     	;# 
  1033  029E                     	;# 
  1034  029E                     	;# 
  1035  0311                     	;# 
  1036  0311                     	;# 
  1037  0312                     	;# 
  1038  0313                     	;# 
  1039  0318                     	;# 
  1040  0318                     	;# 
  1041  0319                     	;# 
  1042  031A                     	;# 
  1043  0394                     	;# 
  1044  0395                     	;# 
  1045  0396                     	;# 
  1046  039A                     	;# 
  1047  039C                     	;# 
  1048  039D                     	;# 
  1049  039E                     	;# 
  1050  039F                     	;# 
  1051  0415                     	;# 
  1052  0416                     	;# 
  1053  0417                     	;# 
  1054  041C                     	;# 
  1055  041D                     	;# 
  1056  041E                     	;# 
  1057  0FE4                     	;# 
  1058  0FE5                     	;# 
  1059  0FE6                     	;# 
  1060  0FE7                     	;# 
  1061  0FE8                     	;# 
  1062  0FE9                     	;# 
  1063  0FEA                     	;# 
  1064  0FEB                     	;# 
  1065  0FED                     	;# 
  1066  0FEE                     	;# 
  1067  0FEF                     	;# 
  1068                           
  1069                           	psect	idataBANK0
  1070  0E3F                     __pidataBANK0:
  1071                           
  1072                           ;initializer for _BackLight_State
  1073  0E3F  3408               	retlw	8
  1074                           
  1075                           	psect	stringtext1
  1076  0800                     __pstringtext1:
  1077  0800                     _i2c1_fsmStateTable:
  1078  0800  3473               	retlw	low _I2C1_DO_IDLE
  1079  0801  340E               	retlw	high _I2C1_DO_IDLE
  1080  0802  34D5               	retlw	low _I2C1_DO_SEND_ADR_READ
  1081  0803  340E               	retlw	high _I2C1_DO_SEND_ADR_READ
  1082  0804  34C5               	retlw	low _I2C1_DO_SEND_ADR_WRITE
  1083  0805  340E               	retlw	high _I2C1_DO_SEND_ADR_WRITE
  1084  0806  3409               	retlw	low _I2C1_DO_TX
  1085  0807  3402               	retlw	high _I2C1_DO_TX
  1086  0808  3470               	retlw	low _I2C1_DO_RX
  1087  0809  3401               	retlw	high _I2C1_DO_RX
  1088  080A  34B7               	retlw	low _I2C1_DO_RCEN
  1089  080B  340E               	retlw	high _I2C1_DO_RCEN
  1090  080C  3407               	retlw	low _I2C1_DO_TX_EMPTY
  1091  080D  3401               	retlw	high _I2C1_DO_TX_EMPTY
  1092  080E  3478               	retlw	low _I2C1_DO_SEND_RESTART_READ
  1093  080F  340E               	retlw	high _I2C1_DO_SEND_RESTART_READ
  1094  0810  347D               	retlw	low _I2C1_DO_SEND_RESTART_WRITE
  1095  0811  340E               	retlw	high _I2C1_DO_SEND_RESTART_WRITE
  1096  0812  3482               	retlw	low _I2C1_DO_SEND_RESTART
  1097  0813  340E               	retlw	high _I2C1_DO_SEND_RESTART
  1098  0814  3487               	retlw	low _I2C1_DO_SEND_STOP
  1099  0815  340E               	retlw	high _I2C1_DO_SEND_STOP
  1100  0816  348C               	retlw	low _I2C1_DO_RX_ACK
  1101  0817  340E               	retlw	high _I2C1_DO_RX_ACK
  1102  0818  3491               	retlw	low _I2C1_DO_RX_NACK_STOP
  1103  0819  340E               	retlw	high _I2C1_DO_RX_NACK_STOP
  1104  081A  3496               	retlw	low _I2C1_DO_RX_NACK_RESTART
  1105  081B  340E               	retlw	high _I2C1_DO_RX_NACK_RESTART
  1106  081C  349B               	retlw	low _I2C1_DO_RESET
  1107  081D  340E               	retlw	high _I2C1_DO_RESET
  1108  081E  34AD               	retlw	low _I2C1_DO_ADDRESS_NACK
  1109  081F  3400               	retlw	high _I2C1_DO_ADDRESS_NACK
  1110  0820                     __end_of_i2c1_fsmStateTable:
  1111                           
  1112                           	psect	nvBANK0
  1113  0061                     __pnvBANK0:
  1114  0061                     _i2c_add:
  1115  0061                     	ds	1
  1116  0011                     _PIR1bits	set	17
  1117  0012                     _PIR2bits	set	18
  1118  0091                     _PIE1bits	set	145
  1119  009D                     _ADCON0bits	set	157
  1120  009D                     _ADCON0	set	157
  1121  009C                     _ADRESH	set	156
  1122  009E                     _ADCON1	set	158
  1123  0097                     _WDTCON	set	151
  1124  0098                     _OSCTUNE	set	152
  1125  0099                     _OSCCON	set	153
  1126  0095                     _OPTION_REGbits	set	149
  1127  008D                     _TRISB	set	141
  1128  008C                     _TRISA	set	140
  1129  009B                     _ADRESL	set	155
  1130  0116                     _BORCON	set	278
  1131  011E                     _APFCON1	set	286
  1132  011D                     _APFCON0	set	285
  1133  010D                     _LATB	set	269
  1134  010C                     _LATA	set	268
  1135  018C                     _ANSELA	set	396
  1136  018D                     _ANSELB	set	397
  1137  0214                     _SSP1STATbits	set	532
  1138  0216                     _SSP1CON2bits	set	534
  1139  0211                     _SSP1BUF	set	529
  1140  0215                     _SSP1CON1bits	set	533
  1141  0212                     _SSP1ADD	set	530
  1142  0216                     _SSP1CON2	set	534
  1143  0215                     _SSP1CON1	set	533
  1144  0214                     _SSP1STAT	set	532
  1145  020C                     _WPUA	set	524
  1146  020D                     _WPUB	set	525
  1147                           
  1148                           	psect	cinit
  1149  07E9                     start_initialization:	
  1150                           ; #config settings
  1151                           
  1152  07E9                     __initialization:
  1153                           
  1154                           ; Initialize objects allocated to BANK0
  1155  07E9  318E  263F  3187   	fcall	__pidataBANK0	;fetch initializer
  1156  07EC  00E2               	movwf	__pdataBANK0& (0+127)
  1157                           
  1158                           ; Clear objects allocated to BANK0
  1159  07ED  3048               	movlw	low __pbssBANK0
  1160  07EE  0084               	movwf	4
  1161  07EF  3000               	movlw	high __pbssBANK0
  1162  07F0  0085               	movwf	5
  1163  07F1  3019               	movlw	25
  1164  07F2  318E  26B1  3187   	fcall	clear_ram0
  1165                           
  1166                           ; Clear objects allocated to BANK1
  1167  07F5  30A0               	movlw	low __pbssBANK1
  1168  07F6  0084               	movwf	4
  1169  07F7  3000               	movlw	high __pbssBANK1
  1170  07F8  0085               	movwf	5
  1171  07F9  301D               	movlw	29
  1172  07FA  318E  26B1  3187   	fcall	clear_ram0
  1173  07FD                     end_of_initialization:	
  1174                           ;End of C runtime variable initialization code
  1175                           
  1176  07FD                     __end_of__initialization:
  1177  07FD  0020               	movlb	0
  1178  07FE  3184  2C67         	ljmp	_main	;jump to C main() function
  1179                           
  1180                           	psect	bssBANK0
  1181  0048                     __pbssBANK0:
  1182  0048                     _risultato1:
  1183  0048                     	ds	2
  1184  004A                     _risultato0:
  1185  004A                     	ds	2
  1186  004C                     _resto1:
  1187  004C                     	ds	2
  1188  004E                     _resto0:
  1189  004E                     	ds	2
  1190  0050                     _c1:
  1191  0050                     	ds	2
  1192  0052                     _c0:
  1193  0052                     	ds	2
  1194  0054                     _b1:
  1195  0054                     	ds	2
  1196  0056                     _b0:
  1197  0056                     	ds	2
  1198  0058                     _a1:
  1199  0058                     	ds	2
  1200  005A                     _a0:
  1201  005A                     	ds	2
  1202  005C                     _x:
  1203  005C                     	ds	2
  1204  005E                     _ADC_InterruptHandler:
  1205  005E                     	ds	2
  1206  0060                     _RS:
  1207  0060                     	ds	1
  1208                           
  1209                           	psect	dataBANK0
  1210  0062                     __pdataBANK0:
  1211  0062                     _BackLight_State:
  1212  0062                     	ds	1
  1213                           
  1214                           	psect	bssBANK1
  1215  00A0                     __pbssBANK1:
  1216  00A0                     _I2C1_Status:
  1217  00A0                     	ds	29
  1218                           
  1219                           	psect	clrtext
  1220  0EB1                     clear_ram0:	
  1221                           ;	Called with FSR0 containing the base address, and
  1222                           ;	WREG with the size to clear
  1223                           
  1224  0EB1  0064               	clrwdt	;clear the watchdog before getting into this loop
  1225  0EB2                     clrloop0:
  1226  0EB2  0180               	clrf	0	;clear RAM location pointed to by FSR
  1227  0EB3  3101               	addfsr 0,1
  1228  0EB4  0B89               	decfsz	9,f	;Have we reached the end of clearing yet?
  1229  0EB5  2EB2               	goto	clrloop0	;have we reached the end yet?
  1230  0EB6  3400               	retlw	0	;all done for this memory range, return
  1231                           
  1232                           	psect	cstackCOMMON
  1233  0070                     __pcstackCOMMON:
  1234  0070                     ?_I2C1_Open:
  1235  0070                     ??_I2C1_Open:	
  1236                           ; 1 bytes @ 0x0
  1237                           
  1238  0070                     ?_I2C1_SetBuffer:	
  1239                           ; 1 bytes @ 0x0
  1240                           
  1241  0070                     ?_I2C1_MasterWrite:	
  1242                           ; 1 bytes @ 0x0
  1243                           
  1244  0070                     ?_I2C1_Close:	
  1245                           ; 1 bytes @ 0x0
  1246                           
  1247  0070                     ??_I2C1_Close:	
  1248                           ; 1 bytes @ 0x0
  1249                           
  1250  0070                     ?_I2C1_Initialize:	
  1251                           ; 1 bytes @ 0x0
  1252                           
  1253  0070                     ??_I2C1_Initialize:	
  1254                           ; 1 bytes @ 0x0
  1255                           
  1256  0070                     ?_OSCILLATOR_Initialize:	
  1257                           ; 1 bytes @ 0x0
  1258                           
  1259  0070                     ??_OSCILLATOR_Initialize:	
  1260                           ; 1 bytes @ 0x0
  1261                           
  1262  0070                     ?_WDT_Initialize:	
  1263                           ; 1 bytes @ 0x0
  1264                           
  1265  0070                     ??_WDT_Initialize:	
  1266                           ; 1 bytes @ 0x0
  1267                           
  1268  0070                     ?_ADC_Initialize:	
  1269                           ; 1 bytes @ 0x0
  1270                           
  1271  0070                     ??_ADC_Initialize:	
  1272                           ; 1 bytes @ 0x0
  1273                           
  1274  0070                     ?_I2C1_DO_IDLE:	
  1275                           ; 1 bytes @ 0x0
  1276                           
  1277  0070                     ??_I2C1_DO_IDLE:	
  1278                           ; 1 bytes @ 0x0
  1279                           
  1280  0070                     ?_I2C1_DO_SEND_ADR_READ:	
  1281                           ; 1 bytes @ 0x0
  1282                           
  1283  0070                     ??_I2C1_DO_SEND_ADR_READ:	
  1284                           ; 1 bytes @ 0x0
  1285                           
  1286  0070                     ?_I2C1_DO_SEND_ADR_WRITE:	
  1287                           ; 1 bytes @ 0x0
  1288                           
  1289  0070                     ?_I2C1_DO_TX:	
  1290                           ; 1 bytes @ 0x0
  1291                           
  1292  0070                     ?_I2C1_DO_RX:	
  1293                           ; 1 bytes @ 0x0
  1294                           
  1295  0070                     ?_I2C1_DO_RCEN:	
  1296                           ; 1 bytes @ 0x0
  1297                           
  1298  0070                     ??_I2C1_DO_RCEN:	
  1299                           ; 1 bytes @ 0x0
  1300                           
  1301  0070                     ?_I2C1_DO_TX_EMPTY:	
  1302                           ; 1 bytes @ 0x0
  1303                           
  1304  0070                     ?_I2C1_DO_SEND_RESTART_READ:	
  1305                           ; 1 bytes @ 0x0
  1306                           
  1307  0070                     ??_I2C1_DO_SEND_RESTART_READ:	
  1308                           ; 1 bytes @ 0x0
  1309                           
  1310  0070                     ?_I2C1_DO_SEND_RESTART_WRITE:	
  1311                           ; 1 bytes @ 0x0
  1312                           
  1313  0070                     ??_I2C1_DO_SEND_RESTART_WRITE:	
  1314                           ; 1 bytes @ 0x0
  1315                           
  1316  0070                     ?_I2C1_DO_SEND_RESTART:	
  1317                           ; 1 bytes @ 0x0
  1318                           
  1319  0070                     ??_I2C1_DO_SEND_RESTART:	
  1320                           ; 1 bytes @ 0x0
  1321                           
  1322  0070                     ?_I2C1_DO_SEND_STOP:	
  1323                           ; 1 bytes @ 0x0
  1324                           
  1325  0070                     ??_I2C1_DO_SEND_STOP:	
  1326                           ; 1 bytes @ 0x0
  1327                           
  1328  0070                     ?_I2C1_DO_RX_ACK:	
  1329                           ; 1 bytes @ 0x0
  1330                           
  1331  0070                     ??_I2C1_DO_RX_ACK:	
  1332                           ; 1 bytes @ 0x0
  1333                           
  1334  0070                     ?_I2C1_DO_RX_NACK_STOP:	
  1335                           ; 1 bytes @ 0x0
  1336                           
  1337  0070                     ??_I2C1_DO_RX_NACK_STOP:	
  1338                           ; 1 bytes @ 0x0
  1339                           
  1340  0070                     ?_I2C1_DO_RX_NACK_RESTART:	
  1341                           ; 1 bytes @ 0x0
  1342                           
  1343  0070                     ??_I2C1_DO_RX_NACK_RESTART:	
  1344                           ; 1 bytes @ 0x0
  1345                           
  1346  0070                     ?_I2C1_DO_RESET:	
  1347                           ; 1 bytes @ 0x0
  1348                           
  1349  0070                     ??_I2C1_DO_RESET:	
  1350                           ; 1 bytes @ 0x0
  1351                           
  1352  0070                     ?_I2C1_DO_ADDRESS_NACK:	
  1353                           ; 1 bytes @ 0x0
  1354                           
  1355  0070                     ?_I2C1_MasterClearIrq:	
  1356                           ; 1 bytes @ 0x0
  1357                           
  1358  0070                     ??_I2C1_MasterClearIrq:	
  1359                           ; 1 bytes @ 0x0
  1360                           
  1361  0070                     ?_I2C1_MasterOpen:	
  1362                           ; 1 bytes @ 0x0
  1363                           
  1364  0070                     ??_I2C1_MasterOpen:	
  1365                           ; 1 bytes @ 0x0
  1366                           
  1367  0070                     ?_I2C1_MasterDisableIrq:	
  1368                           ; 1 bytes @ 0x0
  1369                           
  1370  0070                     ??_I2C1_MasterDisableIrq:	
  1371                           ; 1 bytes @ 0x0
  1372                           
  1373  0070                     ?_I2C1_MasterClose:	
  1374                           ; 1 bytes @ 0x0
  1375                           
  1376  0070                     ??_I2C1_MasterClose:	
  1377                           ; 1 bytes @ 0x0
  1378                           
  1379  0070                     ?_I2C1_MasterStart:	
  1380                           ; 1 bytes @ 0x0
  1381                           
  1382  0070                     ??_I2C1_MasterStart:	
  1383                           ; 1 bytes @ 0x0
  1384                           
  1385  0070                     ?_I2C1_Poller:	
  1386                           ; 1 bytes @ 0x0
  1387                           
  1388  0070                     ?_I2C1_SetCallback:	
  1389                           ; 1 bytes @ 0x0
  1390                           
  1391  0070                     ?_I2C1_MasterWaitForEvent:	
  1392                           ; 1 bytes @ 0x0
  1393                           
  1394  0070                     ??_I2C1_MasterWaitForEvent:	
  1395                           ; 1 bytes @ 0x0
  1396                           
  1397  0070                     ?_I2C1_MasterFsm:	
  1398                           ; 1 bytes @ 0x0
  1399                           
  1400  0070                     ?_I2C1_MasterIsNack:	
  1401                           ; 1 bytes @ 0x0
  1402                           
  1403  0070                     ??_I2C1_MasterIsNack:	
  1404                           ; 1 bytes @ 0x0
  1405                           
  1406  0070                     ?_I2C1_MasterSendTxData:	
  1407                           ; 1 bytes @ 0x0
  1408                           
  1409  0070                     ??_I2C1_MasterSendTxData:	
  1410                           ; 1 bytes @ 0x0
  1411                           
  1412  0070                     ?_I2C1_MasterGetRxData:	
  1413                           ; 1 bytes @ 0x0
  1414                           
  1415  0070                     ??_I2C1_MasterGetRxData:	
  1416                           ; 1 bytes @ 0x0
  1417                           
  1418  0070                     ?_I2C1_MasterSendAck:	
  1419                           ; 1 bytes @ 0x0
  1420                           
  1421  0070                     ??_I2C1_MasterSendAck:	
  1422                           ; 1 bytes @ 0x0
  1423                           
  1424  0070                     ?_I2C1_MasterStartRx:	
  1425                           ; 1 bytes @ 0x0
  1426                           
  1427  0070                     ??_I2C1_MasterStartRx:	
  1428                           ; 1 bytes @ 0x0
  1429                           
  1430  0070                     ?_I2C1_MasterSetIrq:	
  1431                           ; 1 bytes @ 0x0
  1432                           
  1433  0070                     ??_I2C1_MasterSetIrq:	
  1434                           ; 1 bytes @ 0x0
  1435                           
  1436  0070                     ?_I2C1_MasterEnableRestart:	
  1437                           ; 1 bytes @ 0x0
  1438                           
  1439  0070                     ??_I2C1_MasterEnableRestart:	
  1440                           ; 1 bytes @ 0x0
  1441                           
  1442  0070                     ?_I2C1_MasterStop:	
  1443                           ; 1 bytes @ 0x0
  1444                           
  1445  0070                     ??_I2C1_MasterStop:	
  1446                           ; 1 bytes @ 0x0
  1447                           
  1448  0070                     ?_I2C1_MasterSendNack:	
  1449                           ; 1 bytes @ 0x0
  1450                           
  1451  0070                     ??_I2C1_MasterSendNack:	
  1452                           ; 1 bytes @ 0x0
  1453                           
  1454  0070                     ?_IO_Expander_Write:	
  1455                           ; 1 bytes @ 0x0
  1456                           
  1457  0070                     ?_LCD_Write_4Bit:	
  1458                           ; 1 bytes @ 0x0
  1459                           
  1460  0070                     ?_LCD_CMD:	
  1461                           ; 1 bytes @ 0x0
  1462                           
  1463  0070                     ?_PIN_MANAGER_Initialize:	
  1464                           ; 1 bytes @ 0x0
  1465                           
  1466  0070                     ??_PIN_MANAGER_Initialize:	
  1467                           ; 1 bytes @ 0x0
  1468                           
  1469  0070                     ?_SYSTEM_Initialize:	
  1470                           ; 1 bytes @ 0x0
  1471                           
  1472  0070                     ??_SYSTEM_Initialize:	
  1473                           ; 1 bytes @ 0x0
  1474                           
  1475  0070                     ?_ADC_StartConversion:	
  1476                           ; 1 bytes @ 0x0
  1477                           
  1478  0070                     ??_ADC_StartConversion:	
  1479                           ; 1 bytes @ 0x0
  1480                           
  1481  0070                     ?_I2C1_MasterOperation:	
  1482                           ; 1 bytes @ 0x0
  1483                           
  1484  0070                     ?_LCD_Init:	
  1485                           ; 1 bytes @ 0x0
  1486                           
  1487  0070                     ?_IO_pulseEnable:	
  1488                           ; 1 bytes @ 0x0
  1489                           
  1490  0070                     ?_main:	
  1491                           ; 1 bytes @ 0x0
  1492                           
  1493  0070                     ?__Umul8_16:	
  1494                           ; 1 bytes @ 0x0
  1495                           
  1496  0070                     ?___awdiv:	
  1497                           ; 2 bytes @ 0x0
  1498                           
  1499  0070                     ?___awmod:	
  1500                           ; 2 bytes @ 0x0
  1501                           
  1502  0070                     ?___xxtofl:	
  1503                           ; 2 bytes @ 0x0
  1504                           
  1505  0070                     I2C1_MasterSendTxData@data:	
  1506                           ; 4 bytes @ 0x0
  1507                           
  1508  0070                     __Umul8_16@multiplicand:	
  1509                           ; 1 bytes @ 0x0
  1510                           
  1511  0070                     I2C1_SetBuffer@bufferSize:	
  1512                           ; 1 bytes @ 0x0
  1513                           
  1514  0070                     I2C1_SetCallback@cb:	
  1515                           ; 2 bytes @ 0x0
  1516                           
  1517  0070                     ___awdiv@divisor:	
  1518                           ; 2 bytes @ 0x0
  1519                           
  1520  0070                     ___awmod@divisor:	
  1521                           ; 2 bytes @ 0x0
  1522                           
  1523  0070                     ___xxtofl@val:	
  1524                           ; 2 bytes @ 0x0
  1525                           
  1526                           
  1527                           ; 4 bytes @ 0x0
  1528  0070                     	ds	1
  1529  0071                     ??_I2C1_DO_SEND_ADR_WRITE:
  1530  0071                     I2C1_Open@address:	
  1531                           ; 1 bytes @ 0x1
  1532                           
  1533  0071                     I2C1_Close@returnValue:	
  1534                           ; 1 bytes @ 0x1
  1535                           
  1536                           
  1537                           ; 1 bytes @ 0x1
  1538  0071                     	ds	1
  1539  0072                     ??_I2C1_SetBuffer:
  1540  0072                     ??__Umul8_16:	
  1541                           ; 1 bytes @ 0x2
  1542                           
  1543  0072                     I2C1_Open@returnValue:	
  1544                           ; 1 bytes @ 0x2
  1545                           
  1546  0072                     I2C1_SetCallback@ptr:	
  1547                           ; 1 bytes @ 0x2
  1548                           
  1549  0072                     ___awdiv@dividend:	
  1550                           ; 1 bytes @ 0x2
  1551                           
  1552  0072                     ___awmod@dividend:	
  1553                           ; 2 bytes @ 0x2
  1554                           
  1555                           
  1556                           ; 2 bytes @ 0x2
  1557  0072                     	ds	1
  1558  0073                     ??_I2C1_SetCallback:
  1559  0073                     I2C1_SetBuffer@buffer:	
  1560                           ; 1 bytes @ 0x3
  1561                           
  1562                           
  1563                           ; 1 bytes @ 0x3
  1564  0073                     	ds	1
  1565  0074                     ??___awdiv:
  1566  0074                     ??___awmod:	
  1567                           ; 1 bytes @ 0x4
  1568                           
  1569  0074                     ??___xxtofl:	
  1570                           ; 1 bytes @ 0x4
  1571                           
  1572  0074                     I2C1_SetCallback@idx:	
  1573                           ; 1 bytes @ 0x4
  1574                           
  1575  0074                     __Umul8_16@product:	
  1576                           ; 1 bytes @ 0x4
  1577                           
  1578                           
  1579                           ; 2 bytes @ 0x4
  1580  0074                     	ds	1
  1581  0075                     ?_I2C1_SetDataCompleteCallback:
  1582  0075                     ?_I2C1_SetAddressNackCallback:	
  1583                           ; 1 bytes @ 0x5
  1584                           
  1585  0075                     ___awdiv@counter:	
  1586                           ; 1 bytes @ 0x5
  1587                           
  1588  0075                     ___awmod@counter:	
  1589                           ; 1 bytes @ 0x5
  1590                           
  1591  0075                     I2C1_SetDataCompleteCallback@cb:	
  1592                           ; 1 bytes @ 0x5
  1593                           
  1594  0075                     I2C1_SetAddressNackCallback@cb:	
  1595                           ; 2 bytes @ 0x5
  1596                           
  1597                           
  1598                           ; 2 bytes @ 0x5
  1599  0075                     	ds	1
  1600  0076                     ___awdiv@sign:
  1601  0076                     ___awmod@sign:	
  1602                           ; 1 bytes @ 0x6
  1603                           
  1604  0076                     __Umul8_16@word_mpld:	
  1605                           ; 1 bytes @ 0x6
  1606                           
  1607                           
  1608                           ; 2 bytes @ 0x6
  1609  0076                     	ds	1
  1610  0077                     I2C1_SetDataCompleteCallback@ptr:
  1611  0077                     I2C1_SetAddressNackCallback@ptr:	
  1612                           ; 1 bytes @ 0x7
  1613                           
  1614  0077                     ___awdiv@quotient:	
  1615                           ; 1 bytes @ 0x7
  1616                           
  1617                           
  1618                           ; 2 bytes @ 0x7
  1619  0077                     	ds	1
  1620  0078                     ??_I2C1_SetDataCompleteCallback:
  1621  0078                     ??_I2C1_SetAddressNackCallback:	
  1622                           ; 1 bytes @ 0x8
  1623                           
  1624  0078                     __Umul8_16@multiplier:	
  1625                           ; 1 bytes @ 0x8
  1626                           
  1627  0078                     ___xxtofl@sign:	
  1628                           ; 1 bytes @ 0x8
  1629                           
  1630                           
  1631                           ; 1 bytes @ 0x8
  1632  0078                     	ds	1
  1633  0079                     ?_rd1RegCompleteHandler:
  1634  0079                     ?_rd2RegCompleteHandler:	
  1635                           ; 1 bytes @ 0x9
  1636                           
  1637  0079                     ?_wr1RegCompleteHandler:	
  1638                           ; 1 bytes @ 0x9
  1639                           
  1640  0079                     ?_wr2RegCompleteHandler:	
  1641                           ; 1 bytes @ 0x9
  1642                           
  1643  0079                     ?_rdBlkRegCompleteHandler:	
  1644                           ; 1 bytes @ 0x9
  1645                           
  1646  0079                     ?_I2C1_CallbackReturnStop:	
  1647                           ; 1 bytes @ 0x9
  1648                           
  1649  0079                     ?_I2C1_CallbackReturnReset:	
  1650                           ; 1 bytes @ 0x9
  1651                           
  1652  0079                     rd1RegCompleteHandler@ptr:	
  1653                           ; 1 bytes @ 0x9
  1654                           
  1655  0079                     rd2RegCompleteHandler@ptr:	
  1656                           ; 1 bytes @ 0x9
  1657                           
  1658  0079                     wr1RegCompleteHandler@ptr:	
  1659                           ; 1 bytes @ 0x9
  1660                           
  1661  0079                     wr2RegCompleteHandler@ptr:	
  1662                           ; 1 bytes @ 0x9
  1663                           
  1664  0079                     rdBlkRegCompleteHandler@ptr:	
  1665                           ; 1 bytes @ 0x9
  1666                           
  1667  0079                     I2C1_CallbackReturnStop@funPtr:	
  1668                           ; 1 bytes @ 0x9
  1669                           
  1670  0079                     I2C1_CallbackReturnReset@funPtr:	
  1671                           ; 1 bytes @ 0x9
  1672                           
  1673  0079                     ___xxtofl@exp:	
  1674                           ; 1 bytes @ 0x9
  1675                           
  1676                           
  1677                           ; 1 bytes @ 0x9
  1678  0079                     	ds	1
  1679  007A                     ??_rd1RegCompleteHandler:
  1680  007A                     ??_rd2RegCompleteHandler:	
  1681                           ; 1 bytes @ 0xA
  1682                           
  1683  007A                     ??_wr1RegCompleteHandler:	
  1684                           ; 1 bytes @ 0xA
  1685                           
  1686  007A                     ??_wr2RegCompleteHandler:	
  1687                           ; 1 bytes @ 0xA
  1688                           
  1689  007A                     ??_rdBlkRegCompleteHandler:	
  1690                           ; 1 bytes @ 0xA
  1691                           
  1692  007A                     ??_I2C1_DO_TX:	
  1693                           ; 1 bytes @ 0xA
  1694                           
  1695  007A                     ??_I2C1_DO_RX:	
  1696                           ; 1 bytes @ 0xA
  1697                           
  1698  007A                     ??_I2C1_DO_TX_EMPTY:	
  1699                           ; 1 bytes @ 0xA
  1700                           
  1701  007A                     ??_I2C1_DO_ADDRESS_NACK:	
  1702                           ; 1 bytes @ 0xA
  1703                           
  1704  007A                     ??_I2C1_CallbackReturnStop:	
  1705                           ; 1 bytes @ 0xA
  1706                           
  1707  007A                     ??_I2C1_CallbackReturnReset:	
  1708                           ; 1 bytes @ 0xA
  1709                           
  1710  007A                     ___xxtofl@arg:	
  1711                           ; 1 bytes @ 0xA
  1712                           
  1713                           
  1714                           ; 4 bytes @ 0xA
  1715  007A                     	ds	3
  1716  007D                     ??_I2C1_Poller:
  1717  007D                     ??_I2C1_MasterOperation:	
  1718                           ; 1 bytes @ 0xD
  1719                           
  1720                           
  1721                           ; 1 bytes @ 0xD
  1722  007D                     	ds	1
  1723  007E                     ??_I2C1_MasterWrite:
  1724  007E                     ??_I2C1_WriteNBytes:	
  1725                           ; 1 bytes @ 0xE
  1726                           
  1727  007E                     ??_IO_pulseEnable:	
  1728                           ; 1 bytes @ 0xE
  1729                           
  1730                           
  1731                           	psect	cstackBANK0
  1732  0020                     __pcstackBANK0:	
  1733                           ; 1 bytes @ 0xE
  1734                           
  1735  0020                     ??_I2C1_MasterFsm:
  1736  0020                     ?___flmul:	
  1737                           ; 1 bytes @ 0x0
  1738                           
  1739  0020                     ___flmul@b:	
  1740                           ; 4 bytes @ 0x0
  1741                           
  1742                           
  1743                           ; 4 bytes @ 0x0
  1744  0020                     	ds	3
  1745  0023                     I2C1_MasterOperation@read:
  1746                           
  1747                           ; 1 bytes @ 0x3
  1748  0023                     	ds	1
  1749  0024                     I2C1_MasterOperation@returnValue:
  1750  0024                     ___flmul@a:	
  1751                           ; 1 bytes @ 0x4
  1752                           
  1753                           
  1754                           ; 4 bytes @ 0x4
  1755  0024                     	ds	1
  1756  0025                     ?_I2C1_WriteNBytes:
  1757  0025                     I2C1_WriteNBytes@data:	
  1758                           ; 1 bytes @ 0x5
  1759                           
  1760                           
  1761                           ; 1 bytes @ 0x5
  1762  0025                     	ds	1
  1763  0026                     I2C1_WriteNBytes@len:
  1764                           
  1765                           ; 2 bytes @ 0x6
  1766  0026                     	ds	2
  1767  0028                     ??___flmul:
  1768  0028                     I2C1_WriteNBytes@address:	
  1769                           ; 1 bytes @ 0x8
  1770                           
  1771                           
  1772                           ; 1 bytes @ 0x8
  1773  0028                     	ds	1
  1774  0029                     ??_IO_Expander_Write:
  1775                           
  1776                           ; 1 bytes @ 0x9
  1777  0029                     	ds	1
  1778  002A                     IO_Expander_Write@Data:
  1779                           
  1780                           ; 1 bytes @ 0xA
  1781  002A                     	ds	1
  1782  002B                     IO_Expander_Write@dt:
  1783                           
  1784                           ; 1 bytes @ 0xB
  1785  002B                     	ds	1
  1786  002C                     IO_pulseEnable@Data:
  1787                           
  1788                           ; 1 bytes @ 0xC
  1789  002C                     	ds	1
  1790  002D                     ??_LCD_Write_4Bit:
  1791  002D                     ___flmul@sign:	
  1792                           ; 1 bytes @ 0xD
  1793                           
  1794                           
  1795                           ; 1 bytes @ 0xD
  1796  002D                     	ds	1
  1797  002E                     LCD_Write_4Bit@Data:
  1798  002E                     ___flmul@grs:	
  1799                           ; 1 bytes @ 0xE
  1800                           
  1801                           
  1802                           ; 4 bytes @ 0xE
  1803  002E                     	ds	1
  1804  002F                     ??_LCD_CMD:
  1805                           
  1806                           ; 1 bytes @ 0xF
  1807  002F                     	ds	1
  1808  0030                     LCD_CMD@CMD:
  1809                           
  1810                           ; 1 bytes @ 0x10
  1811  0030                     	ds	1
  1812  0031                     ??_LCD_Init:
  1813                           
  1814                           ; 1 bytes @ 0x11
  1815  0031                     	ds	1
  1816  0032                     ___flmul@aexp:
  1817                           
  1818                           ; 1 bytes @ 0x12
  1819  0032                     	ds	1
  1820  0033                     LCD_Init@I2C_Add:
  1821  0033                     ___flmul@bexp:	
  1822                           ; 1 bytes @ 0x13
  1823                           
  1824                           
  1825                           ; 1 bytes @ 0x13
  1826  0033                     	ds	1
  1827  0034                     ___flmul@prod:
  1828                           
  1829                           ; 4 bytes @ 0x14
  1830  0034                     	ds	4
  1831  0038                     ___flmul@temp:
  1832                           
  1833                           ; 2 bytes @ 0x18
  1834  0038                     	ds	2
  1835  003A                     ?___fltol:
  1836  003A                     ___fltol@f1:	
  1837                           ; 4 bytes @ 0x1A
  1838                           
  1839                           
  1840                           ; 4 bytes @ 0x1A
  1841  003A                     	ds	4
  1842  003E                     ??___fltol:
  1843                           
  1844                           ; 1 bytes @ 0x1E
  1845  003E                     	ds	5
  1846  0043                     ___fltol@sign1:
  1847                           
  1848                           ; 1 bytes @ 0x23
  1849  0043                     	ds	1
  1850  0044                     ___fltol@exp1:
  1851                           
  1852                           ; 1 bytes @ 0x24
  1853  0044                     	ds	1
  1854  0045                     ??_main:
  1855                           
  1856                           ; 1 bytes @ 0x25
  1857  0045                     	ds	3
  1858                           
  1859                           	psect	maintext
  1860  0467                     __pmaintext:	
  1861 ;;
  1862 ;;Main: autosize = 0, tempsize = 3, incstack = 0, save=0
  1863 ;;
  1864 ;; *************** function _main *****************
  1865 ;; Defined at:
  1866 ;;		line 50 in file "main.c"
  1867 ;; Parameters:    Size  Location     Type
  1868 ;;		None
  1869 ;; Auto vars:     Size  Location     Type
  1870 ;;		None
  1871 ;; Return value:  Size  Location     Type
  1872 ;;                  1    wreg      void 
  1873 ;; Registers used:
  1874 ;;		wreg, fsr0l, fsr0h, fsr1l, fsr1h, status,2, status,0, pclath, cstack
  1875 ;; Tracked objects:
  1876 ;;		On entry : B1F/0
  1877 ;;		On exit  : 0/0
  1878 ;;		Unchanged: 0/0
  1879 ;; Data sizes:     COMMON   BANK0   BANK1   BANK2   BANK3   BANK4
  1880 ;;      Params:         0       0       0       0       0       0
  1881 ;;      Locals:         0       0       0       0       0       0
  1882 ;;      Temps:          0       3       0       0       0       0
  1883 ;;      Totals:         0       3       0       0       0       0
  1884 ;;Total ram usage:        3 bytes
  1885 ;; Hardware stack levels required when called: 14
  1886 ;; This function calls:
  1887 ;;		_ADC_Initialize
  1888 ;;		_ADC_StartConversion
  1889 ;;		_LCD_Init
  1890 ;;		_SYSTEM_Initialize
  1891 ;;		___awdiv
  1892 ;;		___awmod
  1893 ;;		___flmul
  1894 ;;		___fltol
  1895 ;;		___xxtofl
  1896 ;; This function is called by:
  1897 ;;		Startup code after reset
  1898 ;; This function uses a non-reentrant model
  1899 ;;
  1900                           
  1901  0467                     _main:	
  1902                           ;psect for function _main
  1903                           
  1904  0467                     l3588:	
  1905                           ;incstack = 0
  1906                           ; Regs used in _main: [wreg-fsr1h+status,2+status,0+pclath+cstack]
  1907                           
  1908                           
  1909                           ;main.c: 53:     SYSTEM_Initialize();
  1910  0467  318F  273B  3184   	fcall	_SYSTEM_Initialize
  1911                           
  1912                           ;main.c: 54:     ADC_Initialize();
  1913  046A  318E  26CD  3184   	fcall	_ADC_Initialize
  1914  046D                     l3590:
  1915                           
  1916                           ;main.c: 69:     LCD_Init(0x27);
  1917  046D  3027               	movlw	39
  1918  046E  3183  2332  3184   	fcall	_LCD_Init
  1919  0471                     l3592:
  1920                           
  1921                           ;main.c: 71:     {;main.c: 72:         x++;
  1922  0471  3001               	movlw	1
  1923  0472  0020               	movlb	0	; select bank0
  1924  0473  07DC               	addwf	_x,f
  1925  0474  3000               	movlw	0
  1926  0475  3DDD               	addwfc	_x+1,f
  1927  0476                     l3594:
  1928                           
  1929                           ;main.c: 73:         if(x%2==0){
  1930  0476  185C               	btfsc	_x,0
  1931  0477  2C79               	goto	u2271
  1932  0478  2C7A               	goto	u2270
  1933  0479                     u2271:
  1934  0479  2D04               	goto	l3602
  1935  047A                     u2270:
  1936  047A                     l3596:
  1937                           
  1938                           ;main.c: 74:             ADCON0bits.CHS = channel_AN0;
  1939  047A  3083               	movlw	-125
  1940  047B  0021               	movlb	1	; select bank1
  1941  047C  059D               	andwf	29,f	;volatile
  1942  047D                     l3598:
  1943                           
  1944                           ;main.c: 75:             ADC_StartConversion();
  1945  047D  318E  2644  3184   	fcall	_ADC_StartConversion
  1946  0480                     l665:	
  1947                           ;main.c: 78:             }
  1948                           
  1949                           
  1950                           ;main.c: 76:             while(ADCON0bits.GO_nDONE == 1){
  1951  0480  0021               	movlb	1	; select bank1
  1952  0481  189D               	btfsc	29,1	;volatile
  1953  0482  2C84               	goto	u2281
  1954  0483  2C85               	goto	u2280
  1955  0484                     u2281:
  1956  0484  2C80               	goto	l665
  1957  0485                     u2280:
  1958  0485                     l3600:
  1959                           
  1960                           ;main.c: 79:             risultato0 = 0.0046 * (ADRESL + (256 * ADRESH));
  1961  0485  081C               	movf	28,w	;volatile
  1962  0486  0020               	movlb	0	; select bank0
  1963  0487  00C5               	movwf	??_main
  1964  0488  01C6               	clrf	??_main+1
  1965  0489  0845               	movf	??_main,w
  1966  048A  00C6               	movwf	??_main+1
  1967  048B  01C5               	clrf	??_main
  1968  048C  0021               	movlb	1	; select bank1
  1969  048D  081B               	movf	27,w	;volatile
  1970  048E  0020               	movlb	0	; select bank0
  1971  048F  0745               	addwf	??_main,w
  1972  0490  00F0               	movwf	___xxtofl@val
  1973  0491  0846               	movf	??_main+1,w
  1974  0492  1803               	skipnc
  1975  0493  0A46               	incf	??_main+1,w
  1976  0494  00F1               	movwf	___xxtofl@val+1
  1977  0495  01F2               	clrf	___xxtofl@val+2
  1978  0496  1BF1               	btfsc	___xxtofl@val+1,7
  1979  0497  03F2               	decf	___xxtofl@val+2,f
  1980  0498  0872               	movf	___xxtofl@val+2,w
  1981  0499  00F3               	movwf	___xxtofl@val+3
  1982  049A  3001               	movlw	1
  1983  049B  3183  23BB  3184   	fcall	___xxtofl
  1984  049E  0873               	movf	?___xxtofl+3,w
  1985  049F  0020               	movlb	0	; select bank0
  1986  04A0  00A7               	movwf	___flmul@a+3
  1987  04A1  0872               	movf	?___xxtofl+2,w
  1988  04A2  00A6               	movwf	___flmul@a+2
  1989  04A3  0871               	movf	?___xxtofl+1,w
  1990  04A4  00A5               	movwf	___flmul@a+1
  1991  04A5  0870               	movf	?___xxtofl,w
  1992  04A6  00A4               	movwf	___flmul@a
  1993  04A7  303B               	movlw	59
  1994  04A8  00A3               	movwf	___flmul@b+3
  1995  04A9  3096               	movlw	150
  1996  04AA  00A2               	movwf	___flmul@b+2
  1997  04AB  30BB               	movlw	187
  1998  04AC  00A1               	movwf	___flmul@b+1
  1999  04AD  3099               	movlw	153
  2000  04AE  00A0               	movwf	___flmul@b
  2001  04AF  3185  2592  3184   	fcall	___flmul
  2002  04B2  0020               	movlb	0	; select bank0
  2003  04B3  0823               	movf	?___flmul+3,w
  2004  04B4  00BD               	movwf	___fltol@f1+3
  2005  04B5  0822               	movf	?___flmul+2,w
  2006  04B6  00BC               	movwf	___fltol@f1+2
  2007  04B7  0821               	movf	?___flmul+1,w
  2008  04B8  00BB               	movwf	___fltol@f1+1
  2009  04B9  0820               	movf	?___flmul,w
  2010  04BA  00BA               	movwf	___fltol@f1
  2011  04BB  3182  22BD  3184   	fcall	___fltol
  2012  04BE  0020               	movlb	0	; select bank0
  2013  04BF  083B               	movf	?___fltol+1,w
  2014  04C0  00CB               	movwf	_risultato0+1
  2015  04C1  083A               	movf	?___fltol,w
  2016  04C2  00CA               	movwf	_risultato0
  2017                           
  2018                           ;main.c: 80:             a0= risultato0/100;
  2019  04C3  3064               	movlw	100
  2020  04C4  00F0               	movwf	___awdiv@divisor
  2021  04C5  3000               	movlw	0
  2022  04C6  00F1               	movwf	___awdiv@divisor+1
  2023  04C7  084B               	movf	_risultato0+1,w
  2024  04C8  00F3               	movwf	___awdiv@dividend+1
  2025  04C9  084A               	movf	_risultato0,w
  2026  04CA  00F2               	movwf	___awdiv@dividend
  2027  04CB  3182  225E  3184   	fcall	___awdiv
  2028  04CE  0871               	movf	?___awdiv+1,w
  2029  04CF  0020               	movlb	0	; select bank0
  2030  04D0  00DB               	movwf	_a0+1
  2031  04D1  0870               	movf	?___awdiv,w
  2032  04D2  00DA               	movwf	_a0
  2033                           
  2034                           ;main.c: 81:             resto0= risultato0%100;
  2035  04D3  3064               	movlw	100
  2036  04D4  00F0               	movwf	___awmod@divisor
  2037  04D5  3000               	movlw	0
  2038  04D6  00F1               	movwf	___awmod@divisor+1
  2039  04D7  084B               	movf	_risultato0+1,w
  2040  04D8  00F3               	movwf	___awmod@dividend+1
  2041  04D9  084A               	movf	_risultato0,w
  2042  04DA  00F2               	movwf	___awmod@dividend
  2043  04DB  3181  21B6  3184   	fcall	___awmod
  2044  04DE  0871               	movf	?___awmod+1,w
  2045  04DF  0020               	movlb	0	; select bank0
  2046  04E0  00CF               	movwf	_resto0+1
  2047  04E1  0870               	movf	?___awmod,w
  2048  04E2  00CE               	movwf	_resto0
  2049                           
  2050                           ;main.c: 82:             b0= resto0/10;
  2051  04E3  300A               	movlw	10
  2052  04E4  00F0               	movwf	___awdiv@divisor
  2053  04E5  3000               	movlw	0
  2054  04E6  00F1               	movwf	___awdiv@divisor+1
  2055  04E7  084F               	movf	_resto0+1,w
  2056  04E8  00F3               	movwf	___awdiv@dividend+1
  2057  04E9  084E               	movf	_resto0,w
  2058  04EA  00F2               	movwf	___awdiv@dividend
  2059  04EB  3182  225E  3184   	fcall	___awdiv
  2060  04EE  0871               	movf	?___awdiv+1,w
  2061  04EF  0020               	movlb	0	; select bank0
  2062  04F0  00D7               	movwf	_b0+1
  2063  04F1  0870               	movf	?___awdiv,w
  2064  04F2  00D6               	movwf	_b0
  2065                           
  2066                           ;main.c: 83:             c0= resto0%10;
  2067  04F3  300A               	movlw	10
  2068  04F4  00F0               	movwf	___awmod@divisor
  2069  04F5  3000               	movlw	0
  2070  04F6  00F1               	movwf	___awmod@divisor+1
  2071  04F7  084F               	movf	_resto0+1,w
  2072  04F8  00F3               	movwf	___awmod@dividend+1
  2073  04F9  084E               	movf	_resto0,w
  2074  04FA  00F2               	movwf	___awmod@dividend
  2075  04FB  3181  21B6  3184   	fcall	___awmod
  2076  04FE  0871               	movf	?___awmod+1,w
  2077  04FF  0020               	movlb	0	; select bank0
  2078  0500  00D3               	movwf	_c0+1
  2079  0501  0870               	movf	?___awmod,w
  2080  0502  00D2               	movwf	_c0
  2081                           
  2082                           ;main.c: 84:         }else{
  2083  0503  2C71               	goto	l3592
  2084  0504                     l3602:
  2085                           
  2086                           ;main.c: 85:             ADCON0bits.CHS = channel_AN1;
  2087  0504  0021               	movlb	1	; select bank1
  2088  0505  081D               	movf	29,w	;volatile
  2089  0506  3983               	andlw	-125
  2090  0507  3804               	iorlw	4
  2091  0508  009D               	movwf	29	;volatile
  2092  0509                     l3604:
  2093                           
  2094                           ;main.c: 86:             ADC_StartConversion();
  2095  0509  318E  2644  3184   	fcall	_ADC_StartConversion
  2096  050C                     l669:	
  2097                           ;main.c: 89:             }
  2098                           
  2099                           
  2100                           ;main.c: 87:             while(ADCON0bits.GO_nDONE == 1){
  2101  050C  0021               	movlb	1	; select bank1
  2102  050D  189D               	btfsc	29,1	;volatile
  2103  050E  2D10               	goto	u2291
  2104  050F  2D11               	goto	u2290
  2105  0510                     u2291:
  2106  0510  2D0C               	goto	l669
  2107  0511                     u2290:
  2108  0511                     l3606:
  2109                           
  2110                           ;main.c: 90:             risultato1 = 0.0046 * (ADRESL + (256 * ADRESH));
  2111  0511  081C               	movf	28,w	;volatile
  2112  0512  0020               	movlb	0	; select bank0
  2113  0513  00C5               	movwf	??_main
  2114  0514  01C6               	clrf	??_main+1
  2115  0515  0845               	movf	??_main,w
  2116  0516  00C6               	movwf	??_main+1
  2117  0517  01C5               	clrf	??_main
  2118  0518  0021               	movlb	1	; select bank1
  2119  0519  081B               	movf	27,w	;volatile
  2120  051A  0020               	movlb	0	; select bank0
  2121  051B  0745               	addwf	??_main,w
  2122  051C  00F0               	movwf	___xxtofl@val
  2123  051D  0846               	movf	??_main+1,w
  2124  051E  1803               	skipnc
  2125  051F  0A46               	incf	??_main+1,w
  2126  0520  00F1               	movwf	___xxtofl@val+1
  2127  0521  01F2               	clrf	___xxtofl@val+2
  2128  0522  1BF1               	btfsc	___xxtofl@val+1,7
  2129  0523  03F2               	decf	___xxtofl@val+2,f
  2130  0524  0872               	movf	___xxtofl@val+2,w
  2131  0525  00F3               	movwf	___xxtofl@val+3
  2132  0526  3001               	movlw	1
  2133  0527  3183  23BB  3184   	fcall	___xxtofl
  2134  052A  0873               	movf	?___xxtofl+3,w
  2135  052B  0020               	movlb	0	; select bank0
  2136  052C  00A7               	movwf	___flmul@a+3
  2137  052D  0872               	movf	?___xxtofl+2,w
  2138  052E  00A6               	movwf	___flmul@a+2
  2139  052F  0871               	movf	?___xxtofl+1,w
  2140  0530  00A5               	movwf	___flmul@a+1
  2141  0531  0870               	movf	?___xxtofl,w
  2142  0532  00A4               	movwf	___flmul@a
  2143  0533  303B               	movlw	59
  2144  0534  00A3               	movwf	___flmul@b+3
  2145  0535  3096               	movlw	150
  2146  0536  00A2               	movwf	___flmul@b+2
  2147  0537  30BB               	movlw	187
  2148  0538  00A1               	movwf	___flmul@b+1
  2149  0539  3099               	movlw	153
  2150  053A  00A0               	movwf	___flmul@b
  2151  053B  3185  2592  3184   	fcall	___flmul
  2152  053E  0020               	movlb	0	; select bank0
  2153  053F  0823               	movf	?___flmul+3,w
  2154  0540  00BD               	movwf	___fltol@f1+3
  2155  0541  0822               	movf	?___flmul+2,w
  2156  0542  00BC               	movwf	___fltol@f1+2
  2157  0543  0821               	movf	?___flmul+1,w
  2158  0544  00BB               	movwf	___fltol@f1+1
  2159  0545  0820               	movf	?___flmul,w
  2160  0546  00BA               	movwf	___fltol@f1
  2161  0547  3182  22BD  3184   	fcall	___fltol
  2162  054A  0020               	movlb	0	; select bank0
  2163  054B  083B               	movf	?___fltol+1,w
  2164  054C  00C9               	movwf	_risultato1+1
  2165  054D  083A               	movf	?___fltol,w
  2166  054E  00C8               	movwf	_risultato1
  2167                           
  2168                           ;main.c: 91:             a1= risultato1/100;
  2169  054F  3064               	movlw	100
  2170  0550  00F0               	movwf	___awdiv@divisor
  2171  0551  3000               	movlw	0
  2172  0552  00F1               	movwf	___awdiv@divisor+1
  2173  0553  0849               	movf	_risultato1+1,w
  2174  0554  00F3               	movwf	___awdiv@dividend+1
  2175  0555  0848               	movf	_risultato1,w
  2176  0556  00F2               	movwf	___awdiv@dividend
  2177  0557  3182  225E  3184   	fcall	___awdiv
  2178  055A  0871               	movf	?___awdiv+1,w
  2179  055B  0020               	movlb	0	; select bank0
  2180  055C  00D9               	movwf	_a1+1
  2181  055D  0870               	movf	?___awdiv,w
  2182  055E  00D8               	movwf	_a1
  2183                           
  2184                           ;main.c: 92:             resto1= risultato1%100;
  2185  055F  3064               	movlw	100
  2186  0560  00F0               	movwf	___awmod@divisor
  2187  0561  3000               	movlw	0
  2188  0562  00F1               	movwf	___awmod@divisor+1
  2189  0563  0849               	movf	_risultato1+1,w
  2190  0564  00F3               	movwf	___awmod@dividend+1
  2191  0565  0848               	movf	_risultato1,w
  2192  0566  00F2               	movwf	___awmod@dividend
  2193  0567  3181  21B6  3184   	fcall	___awmod
  2194  056A  0871               	movf	?___awmod+1,w
  2195  056B  0020               	movlb	0	; select bank0
  2196  056C  00CD               	movwf	_resto1+1
  2197  056D  0870               	movf	?___awmod,w
  2198  056E  00CC               	movwf	_resto1
  2199                           
  2200                           ;main.c: 93:             b1= resto1/10;
  2201  056F  300A               	movlw	10
  2202  0570  00F0               	movwf	___awdiv@divisor
  2203  0571  3000               	movlw	0
  2204  0572  00F1               	movwf	___awdiv@divisor+1
  2205  0573  084D               	movf	_resto1+1,w
  2206  0574  00F3               	movwf	___awdiv@dividend+1
  2207  0575  084C               	movf	_resto1,w
  2208  0576  00F2               	movwf	___awdiv@dividend
  2209  0577  3182  225E  3184   	fcall	___awdiv
  2210  057A  0871               	movf	?___awdiv+1,w
  2211  057B  0020               	movlb	0	; select bank0
  2212  057C  00D5               	movwf	_b1+1
  2213  057D  0870               	movf	?___awdiv,w
  2214  057E  00D4               	movwf	_b1
  2215                           
  2216                           ;main.c: 94:             c1= resto1%10;
  2217  057F  300A               	movlw	10
  2218  0580  00F0               	movwf	___awmod@divisor
  2219  0581  3000               	movlw	0
  2220  0582  00F1               	movwf	___awmod@divisor+1
  2221  0583  084D               	movf	_resto1+1,w
  2222  0584  00F3               	movwf	___awmod@dividend+1
  2223  0585  084C               	movf	_resto1,w
  2224  0586  00F2               	movwf	___awmod@dividend
  2225  0587  3181  21B6  3184   	fcall	___awmod
  2226  058A  0871               	movf	?___awmod+1,w
  2227  058B  0020               	movlb	0	; select bank0
  2228  058C  00D1               	movwf	_c1+1
  2229  058D  0870               	movf	?___awmod,w
  2230  058E  00D0               	movwf	_c1
  2231  058F  2C71               	goto	l3592
  2232  0590  3180  2802         	ljmp	start
  2233  0592                     __end_of_main:
  2234                           
  2235                           	psect	text1
  2236  03BB                     __ptext1:	
  2237 ;; *************** function ___xxtofl *****************
  2238 ;; Defined at:
  2239 ;;		line 10 in file "C:\Program Files\Microchip\xc8\v2.35\pic\sources\c99\common\xxtofl.c"
  2240 ;; Parameters:    Size  Location     Type
  2241 ;;  sign            1    wreg     unsigned char 
  2242 ;;  val             4    0[COMMON] long 
  2243 ;; Auto vars:     Size  Location     Type
  2244 ;;  sign            1    8[COMMON] unsigned char 
  2245 ;;  arg             4   10[COMMON] unsigned long 
  2246 ;;  exp             1    9[COMMON] unsigned char 
  2247 ;; Return value:  Size  Location     Type
  2248 ;;                  4    0[COMMON] unsigned char 
  2249 ;; Registers used:
  2250 ;;		wreg, status,2, status,0
  2251 ;; Tracked objects:
  2252 ;;		On entry : 0/0
  2253 ;;		On exit  : 0/0
  2254 ;;		Unchanged: 0/0
  2255 ;; Data sizes:     COMMON   BANK0   BANK1   BANK2   BANK3   BANK4
  2256 ;;      Params:         4       0       0       0       0       0
  2257 ;;      Locals:         6       0       0       0       0       0
  2258 ;;      Temps:          4       0       0       0       0       0
  2259 ;;      Totals:        14       0       0       0       0       0
  2260 ;;Total ram usage:       14 bytes
  2261 ;; Hardware stack levels used: 1
  2262 ;; This function calls:
  2263 ;;		Nothing
  2264 ;; This function is called by:
  2265 ;;		_main
  2266 ;; This function uses a non-reentrant model
  2267 ;;
  2268                           
  2269  03BB                     ___xxtofl:	
  2270                           ;psect for function ___xxtofl
  2271                           
  2272                           
  2273                           ;incstack = 0
  2274                           ; Regs used in ___xxtofl: [wreg+status,2+status,0]
  2275                           ;___xxtofl@sign stored from wreg
  2276  03BB  00F8               	movwf	___xxtofl@sign
  2277  03BC                     l3316:
  2278  03BC  0878               	movf	___xxtofl@sign,w
  2279  03BD  1903               	btfsc	3,2
  2280  03BE  2BC0               	goto	u1931
  2281  03BF  2BC1               	goto	u1930
  2282  03C0                     u1931:
  2283  03C0  2BD5               	goto	l3322
  2284  03C1                     u1930:
  2285  03C1                     l3318:
  2286  03C1  1FF3               	btfss	___xxtofl@val+3,7
  2287  03C2  2BC4               	goto	u1941
  2288  03C3  2BC5               	goto	u1940
  2289  03C4                     u1941:
  2290  03C4  2BD5               	goto	l3322
  2291  03C5                     u1940:
  2292  03C5                     l3320:
  2293  03C5  0970               	comf	___xxtofl@val,w
  2294  03C6  00FA               	movwf	___xxtofl@arg
  2295  03C7  0971               	comf	___xxtofl@val+1,w
  2296  03C8  00FB               	movwf	___xxtofl@arg+1
  2297  03C9  0972               	comf	___xxtofl@val+2,w
  2298  03CA  00FC               	movwf	___xxtofl@arg+2
  2299  03CB  0973               	comf	___xxtofl@val+3,w
  2300  03CC  00FD               	movwf	___xxtofl@arg+3
  2301  03CD  0AFA               	incf	___xxtofl@arg,f
  2302  03CE  1903               	skipnz
  2303  03CF  0AFB               	incf	___xxtofl@arg+1,f
  2304  03D0  1903               	skipnz
  2305  03D1  0AFC               	incf	___xxtofl@arg+2,f
  2306  03D2  1903               	skipnz
  2307  03D3  0AFD               	incf	___xxtofl@arg+3,f
  2308  03D4  2BDD               	goto	l1265
  2309  03D5                     l3322:
  2310  03D5  0873               	movf	___xxtofl@val+3,w
  2311  03D6  00FD               	movwf	___xxtofl@arg+3
  2312  03D7  0872               	movf	___xxtofl@val+2,w
  2313  03D8  00FC               	movwf	___xxtofl@arg+2
  2314  03D9  0871               	movf	___xxtofl@val+1,w
  2315  03DA  00FB               	movwf	___xxtofl@arg+1
  2316  03DB  0870               	movf	___xxtofl@val,w
  2317  03DC  00FA               	movwf	___xxtofl@arg
  2318  03DD                     l1265:
  2319  03DD  0873               	movf	___xxtofl@val+3,w
  2320  03DE  0472               	iorwf	___xxtofl@val+2,w
  2321  03DF  0471               	iorwf	___xxtofl@val+1,w
  2322  03E0  0470               	iorwf	___xxtofl@val,w
  2323  03E1  1D03               	skipz
  2324  03E2  2BE4               	goto	u1951
  2325  03E3  2BE5               	goto	u1950
  2326  03E4                     u1951:
  2327  03E4  2BEE               	goto	l3328
  2328  03E5                     u1950:
  2329  03E5                     l3324:
  2330  03E5  3000               	movlw	0
  2331  03E6  00F3               	movwf	?___xxtofl+3
  2332  03E7  3000               	movlw	0
  2333  03E8  00F2               	movwf	?___xxtofl+2
  2334  03E9  3000               	movlw	0
  2335  03EA  00F1               	movwf	?___xxtofl+1
  2336  03EB  3000               	movlw	0
  2337  03EC  00F0               	movwf	?___xxtofl
  2338  03ED  2C66               	goto	l1267
  2339  03EE                     l3328:
  2340  03EE  3096               	movlw	150
  2341  03EF  00F4               	movwf	??___xxtofl
  2342  03F0  0874               	movf	??___xxtofl,w
  2343  03F1  00F9               	movwf	___xxtofl@exp
  2344  03F2  2BFE               	goto	l3332
  2345  03F3                     l3330:
  2346  03F3  3001               	movlw	1
  2347  03F4  00F4               	movwf	??___xxtofl
  2348  03F5  0874               	movf	??___xxtofl,w
  2349  03F6  07F9               	addwf	___xxtofl@exp,f
  2350  03F7  3001               	movlw	1
  2351  03F8                     u1965:
  2352  03F8  36FD               	lsrf	___xxtofl@arg+3,f
  2353  03F9  0CFC               	rrf	___xxtofl@arg+2,f
  2354  03FA  0CFB               	rrf	___xxtofl@arg+1,f
  2355  03FB  0CFA               	rrf	___xxtofl@arg,f
  2356  03FC  0B89               	decfsz	9,f
  2357  03FD  2BF8               	goto	u1965
  2358  03FE                     l3332:
  2359  03FE  30FE               	movlw	254
  2360  03FF  057D               	andwf	___xxtofl@arg+3,w
  2361  0400  1D03               	btfss	3,2
  2362  0401  2C03               	goto	u1971
  2363  0402  2C04               	goto	u1970
  2364  0403                     u1971:
  2365  0403  2BF3               	goto	l3330
  2366  0404                     u1970:
  2367  0404  2C18               	goto	l1271
  2368  0405                     l3334:
  2369  0405  3001               	movlw	1
  2370  0406  00F4               	movwf	??___xxtofl
  2371  0407  0874               	movf	??___xxtofl,w
  2372  0408  07F9               	addwf	___xxtofl@exp,f
  2373  0409                     l3336:
  2374  0409  3001               	movlw	1
  2375  040A  07FA               	addwf	___xxtofl@arg,f
  2376  040B  3000               	movlw	0
  2377  040C  3DFB               	addwfc	___xxtofl@arg+1,f
  2378  040D  3000               	movlw	0
  2379  040E  3DFC               	addwfc	___xxtofl@arg+2,f
  2380  040F  3000               	movlw	0
  2381  0410  3DFD               	addwfc	___xxtofl@arg+3,f
  2382  0411                     l3338:
  2383  0411  3001               	movlw	1
  2384  0412                     u1985:
  2385  0412  36FD               	lsrf	___xxtofl@arg+3,f
  2386  0413  0CFC               	rrf	___xxtofl@arg+2,f
  2387  0414  0CFB               	rrf	___xxtofl@arg+1,f
  2388  0415  0CFA               	rrf	___xxtofl@arg,f
  2389  0416  0B89               	decfsz	9,f
  2390  0417  2C12               	goto	u1985
  2391  0418                     l1271:
  2392  0418  30FF               	movlw	255
  2393  0419  057D               	andwf	___xxtofl@arg+3,w
  2394  041A  1D03               	btfss	3,2
  2395  041B  2C1D               	goto	u1991
  2396  041C  2C1E               	goto	u1990
  2397  041D                     u1991:
  2398  041D  2C05               	goto	l3334
  2399  041E                     u1990:
  2400  041E  2C28               	goto	l3342
  2401  041F                     l3340:
  2402  041F  3001               	movlw	1
  2403  0420  02F9               	subwf	___xxtofl@exp,f
  2404  0421  3001               	movlw	1
  2405  0422                     u2005:
  2406  0422  35FA               	lslf	___xxtofl@arg,f
  2407  0423  0DFB               	rlf	___xxtofl@arg+1,f
  2408  0424  0DFC               	rlf	___xxtofl@arg+2,f
  2409  0425  0DFD               	rlf	___xxtofl@arg+3,f
  2410  0426  0B89               	decfsz	9,f
  2411  0427  2C22               	goto	u2005
  2412  0428                     l3342:
  2413  0428  1BFC               	btfsc	___xxtofl@arg+2,7
  2414  0429  2C2B               	goto	u2011
  2415  042A  2C2C               	goto	u2010
  2416  042B                     u2011:
  2417  042B  2C32               	goto	l1278
  2418  042C                     u2010:
  2419  042C                     l3344:
  2420  042C  3002               	movlw	2
  2421  042D  0279               	subwf	___xxtofl@exp,w
  2422  042E  1803               	skipnc
  2423  042F  2C31               	goto	u2021
  2424  0430  2C32               	goto	u2020
  2425  0431                     u2021:
  2426  0431  2C1F               	goto	l3340
  2427  0432                     u2020:
  2428  0432                     l1278:
  2429  0432  1879               	btfsc	___xxtofl@exp,0
  2430  0433  2C35               	goto	u2031
  2431  0434  2C36               	goto	u2030
  2432  0435                     u2031:
  2433  0435  2C3E               	goto	l1279
  2434  0436                     u2030:
  2435  0436                     l3346:
  2436  0436  30FF               	movlw	255
  2437  0437  05FA               	andwf	___xxtofl@arg,f
  2438  0438  30FF               	movlw	255
  2439  0439  05FB               	andwf	___xxtofl@arg+1,f
  2440  043A  307F               	movlw	127
  2441  043B  05FC               	andwf	___xxtofl@arg+2,f
  2442  043C  30FF               	movlw	255
  2443  043D  05FD               	andwf	___xxtofl@arg+3,f
  2444  043E                     l1279:
  2445  043E  1003               	clrc
  2446  043F  0CF9               	rrf	___xxtofl@exp,f
  2447  0440                     l3348:
  2448  0440  0879               	movf	___xxtofl@exp,w
  2449  0441  00F4               	movwf	??___xxtofl
  2450  0442  01F5               	clrf	??___xxtofl+1
  2451  0443  01F6               	clrf	??___xxtofl+2
  2452  0444  01F7               	clrf	??___xxtofl+3
  2453  0445  3018               	movlw	24
  2454  0446                     u2045:
  2455  0446  35F4               	lslf	??___xxtofl,f
  2456  0447  0DF5               	rlf	??___xxtofl+1,f
  2457  0448  0DF6               	rlf	??___xxtofl+2,f
  2458  0449  0DF7               	rlf	??___xxtofl+3,f
  2459  044A                     u2040:
  2460  044A  0B89               	decfsz	9,f
  2461  044B  2C46               	goto	u2045
  2462  044C  0874               	movf	??___xxtofl,w
  2463  044D  04FA               	iorwf	___xxtofl@arg,f
  2464  044E  0875               	movf	??___xxtofl+1,w
  2465  044F  04FB               	iorwf	___xxtofl@arg+1,f
  2466  0450  0876               	movf	??___xxtofl+2,w
  2467  0451  04FC               	iorwf	___xxtofl@arg+2,f
  2468  0452  0877               	movf	??___xxtofl+3,w
  2469  0453  04FD               	iorwf	___xxtofl@arg+3,f
  2470  0454                     l3350:
  2471  0454  0878               	movf	___xxtofl@sign,w
  2472  0455  1903               	btfsc	3,2
  2473  0456  2C58               	goto	u2051
  2474  0457  2C59               	goto	u2050
  2475  0458                     u2051:
  2476  0458  2C5E               	goto	l3356
  2477  0459                     u2050:
  2478  0459                     l3352:
  2479  0459  1FF3               	btfss	___xxtofl@val+3,7
  2480  045A  2C5C               	goto	u2061
  2481  045B  2C5D               	goto	u2060
  2482  045C                     u2061:
  2483  045C  2C5E               	goto	l3356
  2484  045D                     u2060:
  2485  045D                     l3354:
  2486  045D  17FD               	bsf	___xxtofl@arg+3,7
  2487  045E                     l3356:
  2488  045E  087D               	movf	___xxtofl@arg+3,w
  2489  045F  00F3               	movwf	?___xxtofl+3
  2490  0460  087C               	movf	___xxtofl@arg+2,w
  2491  0461  00F2               	movwf	?___xxtofl+2
  2492  0462  087B               	movf	___xxtofl@arg+1,w
  2493  0463  00F1               	movwf	?___xxtofl+1
  2494  0464  087A               	movf	___xxtofl@arg,w
  2495  0465  00F0               	movwf	?___xxtofl
  2496  0466                     l1267:
  2497  0466  0008               	return
  2498  0467                     __end_of___xxtofl:
  2499                           
  2500                           	psect	text2
  2501  02BD                     __ptext2:	
  2502 ;; *************** function ___fltol *****************
  2503 ;; Defined at:
  2504 ;;		line 43 in file "C:\Program Files\Microchip\xc8\v2.35\pic\sources\c99\common\fltol.c"
  2505 ;; Parameters:    Size  Location     Type
  2506 ;;  f1              4   26[BANK0 ] unsigned char 
  2507 ;; Auto vars:     Size  Location     Type
  2508 ;;  exp1            1   36[BANK0 ] unsigned char 
  2509 ;;  sign1           1   35[BANK0 ] unsigned char 
  2510 ;; Return value:  Size  Location     Type
  2511 ;;                  4   26[BANK0 ] long 
  2512 ;; Registers used:
  2513 ;;		wreg, status,2, status,0
  2514 ;; Tracked objects:
  2515 ;;		On entry : 0/0
  2516 ;;		On exit  : 0/0
  2517 ;;		Unchanged: 0/0
  2518 ;; Data sizes:     COMMON   BANK0   BANK1   BANK2   BANK3   BANK4
  2519 ;;      Params:         0       4       0       0       0       0
  2520 ;;      Locals:         0       2       0       0       0       0
  2521 ;;      Temps:          0       5       0       0       0       0
  2522 ;;      Totals:         0      11       0       0       0       0
  2523 ;;Total ram usage:       11 bytes
  2524 ;; Hardware stack levels used: 1
  2525 ;; This function calls:
  2526 ;;		Nothing
  2527 ;; This function is called by:
  2528 ;;		_main
  2529 ;; This function uses a non-reentrant model
  2530 ;;
  2531                           
  2532  02BD                     ___fltol:	
  2533                           ;psect for function ___fltol
  2534                           
  2535  02BD                     l3140:	
  2536                           ;incstack = 0
  2537                           ; Regs used in ___fltol: [wreg+status,2+status,0]
  2538                           
  2539  02BD  1003               	clrc
  2540  02BE  0020               	movlb	0	; select bank0
  2541  02BF  0D3C               	rlf	___fltol@f1+2,w
  2542  02C0  0D3D               	rlf	___fltol@f1+3,w
  2543  02C1  00BE               	movwf	??___fltol
  2544  02C2  083E               	movf	??___fltol,w
  2545  02C3  00C4               	movwf	___fltol@exp1
  2546  02C4  0844               	movf	___fltol@exp1,w
  2547  02C5  1D03               	btfss	3,2
  2548  02C6  2AC8               	goto	u1571
  2549  02C7  2AC9               	goto	u1570
  2550  02C8                     u1571:
  2551  02C8  2AD2               	goto	l3146
  2552  02C9                     u1570:
  2553  02C9                     l3142:
  2554  02C9  3000               	movlw	0
  2555  02CA  00BD               	movwf	?___fltol+3
  2556  02CB  3000               	movlw	0
  2557  02CC  00BC               	movwf	?___fltol+2
  2558  02CD  3000               	movlw	0
  2559  02CE  00BB               	movwf	?___fltol+1
  2560  02CF  3000               	movlw	0
  2561  02D0  00BA               	movwf	?___fltol
  2562  02D1  2B31               	goto	l1018
  2563  02D2                     l3146:
  2564  02D2  083A               	movf	___fltol@f1,w
  2565  02D3  00BE               	movwf	??___fltol
  2566  02D4  083B               	movf	___fltol@f1+1,w
  2567  02D5  00BF               	movwf	??___fltol+1
  2568  02D6  083C               	movf	___fltol@f1+2,w
  2569  02D7  00C0               	movwf	??___fltol+2
  2570  02D8  083D               	movf	___fltol@f1+3,w
  2571  02D9  00C1               	movwf	??___fltol+3
  2572  02DA  301F               	movlw	31
  2573  02DB                     u1585:
  2574  02DB  36C1               	lsrf	??___fltol+3,f
  2575  02DC  0CC0               	rrf	??___fltol+2,f
  2576  02DD  0CBF               	rrf	??___fltol+1,f
  2577  02DE  0CBE               	rrf	??___fltol,f
  2578  02DF                     u1580:
  2579  02DF  0B89               	decfsz	9,f
  2580  02E0  2ADB               	goto	u1585
  2581  02E1  083E               	movf	??___fltol,w
  2582  02E2  00C2               	movwf	??___fltol+4
  2583  02E3  0842               	movf	??___fltol+4,w
  2584  02E4  00C3               	movwf	___fltol@sign1
  2585  02E5                     l3148:
  2586  02E5  17BC               	bsf	___fltol@f1+2,7
  2587  02E6                     l3150:
  2588  02E6  30FF               	movlw	255
  2589  02E7  05BA               	andwf	___fltol@f1,f
  2590  02E8  30FF               	movlw	255
  2591  02E9  05BB               	andwf	___fltol@f1+1,f
  2592  02EA  30FF               	movlw	255
  2593  02EB  05BC               	andwf	___fltol@f1+2,f
  2594  02EC  3000               	movlw	0
  2595  02ED  05BD               	andwf	___fltol@f1+3,f
  2596  02EE                     l3152:
  2597  02EE  3096               	movlw	150
  2598  02EF  02C4               	subwf	___fltol@exp1,f
  2599  02F0                     l3154:
  2600  02F0  1FC4               	btfss	___fltol@exp1,7
  2601  02F1  2AF3               	goto	u1591
  2602  02F2  2AF4               	goto	u1590
  2603  02F3                     u1591:
  2604  02F3  2B0C               	goto	l3164
  2605  02F4                     u1590:
  2606  02F4                     l3156:
  2607  02F4  0844               	movf	___fltol@exp1,w
  2608  02F5  3A80               	xorlw	128
  2609  02F6  3E97               	addlw	151
  2610  02F7  1803               	skipnc
  2611  02F8  2AFA               	goto	u1601
  2612  02F9  2AFB               	goto	u1600
  2613  02FA                     u1601:
  2614  02FA  2AFC               	goto	l3162
  2615  02FB                     u1600:
  2616  02FB  2AC9               	goto	l3142
  2617  02FC                     l3162:
  2618  02FC  3001               	movlw	1
  2619  02FD                     u1615:
  2620  02FD  36BD               	lsrf	___fltol@f1+3,f
  2621  02FE  0CBC               	rrf	___fltol@f1+2,f
  2622  02FF  0CBB               	rrf	___fltol@f1+1,f
  2623  0300  0CBA               	rrf	___fltol@f1,f
  2624  0301  0B89               	decfsz	9,f
  2625  0302  2AFD               	goto	u1615
  2626  0303  3001               	movlw	1
  2627  0304  00BE               	movwf	??___fltol
  2628  0305  083E               	movf	??___fltol,w
  2629  0306  07C4               	addwf	___fltol@exp1,f
  2630  0307  1D03               	btfss	3,2
  2631  0308  2B0A               	goto	u1621
  2632  0309  2B0B               	goto	u1620
  2633  030A                     u1621:
  2634  030A  2AFC               	goto	l3162
  2635  030B                     u1620:
  2636  030B  2B21               	goto	l3172
  2637  030C                     l3164:
  2638  030C  3020               	movlw	32
  2639  030D  0244               	subwf	___fltol@exp1,w
  2640  030E  1C03               	skipc
  2641  030F  2B11               	goto	u1631
  2642  0310  2B12               	goto	u1630
  2643  0311                     u1631:
  2644  0311  2B1C               	goto	l1025
  2645  0312                     u1630:
  2646  0312  2AC9               	goto	l3142
  2647  0313                     l3170:
  2648  0313  3001               	movlw	1
  2649  0314                     u1645:
  2650  0314  35BA               	lslf	___fltol@f1,f
  2651  0315  0DBB               	rlf	___fltol@f1+1,f
  2652  0316  0DBC               	rlf	___fltol@f1+2,f
  2653  0317  0DBD               	rlf	___fltol@f1+3,f
  2654  0318  0B89               	decfsz	9,f
  2655  0319  2B14               	goto	u1645
  2656  031A  3001               	movlw	1
  2657  031B  02C4               	subwf	___fltol@exp1,f
  2658  031C                     l1025:
  2659  031C  0844               	movf	___fltol@exp1,w
  2660  031D  1D03               	btfss	3,2
  2661  031E  2B20               	goto	u1651
  2662  031F  2B21               	goto	u1650
  2663  0320                     u1651:
  2664  0320  2B13               	goto	l3170
  2665  0321                     u1650:
  2666  0321                     l3172:
  2667  0321  0843               	movf	___fltol@sign1,w
  2668  0322  1903               	btfsc	3,2
  2669  0323  2B25               	goto	u1661
  2670  0324  2B26               	goto	u1660
  2671  0325                     u1661:
  2672  0325  2B31               	goto	l1028
  2673  0326                     u1660:
  2674  0326                     l3174:
  2675  0326  09BA               	comf	___fltol@f1,f
  2676  0327  09BB               	comf	___fltol@f1+1,f
  2677  0328  09BC               	comf	___fltol@f1+2,f
  2678  0329  09BD               	comf	___fltol@f1+3,f
  2679  032A  0ABA               	incf	___fltol@f1,f
  2680  032B  1903               	skipnz
  2681  032C  0ABB               	incf	___fltol@f1+1,f
  2682  032D  1903               	skipnz
  2683  032E  0ABC               	incf	___fltol@f1+2,f
  2684  032F  1903               	skipnz
  2685  0330  0ABD               	incf	___fltol@f1+3,f
  2686  0331                     l1028:
  2687  0331                     l1018:
  2688  0331  0008               	return
  2689  0332                     __end_of___fltol:
  2690                           
  2691                           	psect	text3
  2692  0592                     __ptext3:	
  2693 ;; *************** function ___flmul *****************
  2694 ;; Defined at:
  2695 ;;		line 8 in file "C:\Program Files\Microchip\xc8\v2.35\pic\sources\c99\common\sprcmul.c"
  2696 ;; Parameters:    Size  Location     Type
  2697 ;;  b               4    0[BANK0 ] long 
  2698 ;;  a               4    4[BANK0 ] long 
  2699 ;; Auto vars:     Size  Location     Type
  2700 ;;  prod            4   20[BANK0 ] struct .
  2701 ;;  grs             4   14[BANK0 ] unsigned long 
  2702 ;;  temp            2   24[BANK0 ] struct .
  2703 ;;  bexp            1   19[BANK0 ] unsigned char 
  2704 ;;  aexp            1   18[BANK0 ] unsigned char 
  2705 ;;  sign            1   13[BANK0 ] unsigned char 
  2706 ;; Return value:  Size  Location     Type
  2707 ;;                  4    0[BANK0 ] unsigned char 
  2708 ;; Registers used:
  2709 ;;		wreg, status,2, status,0, pclath, cstack
  2710 ;; Tracked objects:
  2711 ;;		On entry : 0/0
  2712 ;;		On exit  : 0/0
  2713 ;;		Unchanged: 0/0
  2714 ;; Data sizes:     COMMON   BANK0   BANK1   BANK2   BANK3   BANK4
  2715 ;;      Params:         0       8       0       0       0       0
  2716 ;;      Locals:         0      13       0       0       0       0
  2717 ;;      Temps:          0       5       0       0       0       0
  2718 ;;      Totals:         0      26       0       0       0       0
  2719 ;;Total ram usage:       26 bytes
  2720 ;; Hardware stack levels used: 1
  2721 ;; Hardware stack levels required when called: 1
  2722 ;; This function calls:
  2723 ;;		__Umul8_16
  2724 ;; This function is called by:
  2725 ;;		_main
  2726 ;; This function uses a non-reentrant model
  2727 ;;
  2728                           
  2729  0592                     ___flmul:	
  2730                           ;psect for function ___flmul
  2731                           
  2732  0592                     l3176:	
  2733                           ;incstack = 0
  2734                           ; Regs used in ___flmul: [wreg+status,2+status,0+pclath+cstack]
  2735                           
  2736  0592  0020               	movlb	0	; select bank0
  2737  0593  0823               	movf	___flmul@b+3,w
  2738  0594  3980               	andlw	128
  2739  0595  00A8               	movwf	??___flmul
  2740  0596  0828               	movf	??___flmul,w
  2741  0597  00AD               	movwf	___flmul@sign
  2742  0598                     l3178:
  2743  0598  3523               	lslf	___flmul@b+3,w
  2744  0599  00A8               	movwf	??___flmul
  2745  059A  0828               	movf	??___flmul,w
  2746  059B  00B3               	movwf	___flmul@bexp
  2747  059C                     l3180:
  2748  059C  1FA2               	btfss	___flmul@b+2,7
  2749  059D  2D9F               	goto	u1671
  2750  059E  2DA0               	goto	u1670
  2751  059F                     u1671:
  2752  059F  2DA1               	goto	l3184
  2753  05A0                     u1670:
  2754  05A0                     l3182:
  2755  05A0  1433               	bsf	___flmul@bexp,0
  2756  05A1                     l3184:
  2757  05A1  0833               	movf	___flmul@bexp,w
  2758  05A2  1903               	btfsc	3,2
  2759  05A3  2DA5               	goto	u1681
  2760  05A4  2DA6               	goto	u1680
  2761  05A5                     u1681:
  2762  05A5  2DB5               	goto	l3192
  2763  05A6                     u1680:
  2764  05A6                     l3186:
  2765  05A6  0A33               	incf	___flmul@bexp,w
  2766  05A7  1D03               	btfss	3,2
  2767  05A8  2DAA               	goto	u1691
  2768  05A9  2DAB               	goto	u1690
  2769  05AA                     u1691:
  2770  05AA  2DB3               	goto	l3190
  2771  05AB                     u1690:
  2772  05AB                     l3188:
  2773  05AB  3000               	movlw	0
  2774  05AC  00A3               	movwf	___flmul@b+3
  2775  05AD  3000               	movlw	0
  2776  05AE  00A2               	movwf	___flmul@b+2
  2777  05AF  3000               	movlw	0
  2778  05B0  00A1               	movwf	___flmul@b+1
  2779  05B1  3000               	movlw	0
  2780  05B2  00A0               	movwf	___flmul@b
  2781  05B3                     l3190:
  2782  05B3  17A2               	bsf	___flmul@b+2,7
  2783  05B4  2DBD               	goto	l3194
  2784  05B5                     l3192:
  2785  05B5  3000               	movlw	0
  2786  05B6  00A3               	movwf	___flmul@b+3
  2787  05B7  3000               	movlw	0
  2788  05B8  00A2               	movwf	___flmul@b+2
  2789  05B9  3000               	movlw	0
  2790  05BA  00A1               	movwf	___flmul@b+1
  2791  05BB  3000               	movlw	0
  2792  05BC  00A0               	movwf	___flmul@b
  2793  05BD                     l3194:
  2794  05BD  0827               	movf	___flmul@a+3,w
  2795  05BE  3980               	andlw	128
  2796  05BF  00A8               	movwf	??___flmul
  2797  05C0  0828               	movf	??___flmul,w
  2798  05C1  06AD               	xorwf	___flmul@sign,f
  2799  05C2                     l3196:
  2800  05C2  3527               	lslf	___flmul@a+3,w
  2801  05C3  00A8               	movwf	??___flmul
  2802  05C4  0828               	movf	??___flmul,w
  2803  05C5  00B2               	movwf	___flmul@aexp
  2804  05C6                     l3198:
  2805  05C6  1FA6               	btfss	___flmul@a+2,7
  2806  05C7  2DC9               	goto	u1701
  2807  05C8  2DCA               	goto	u1700
  2808  05C9                     u1701:
  2809  05C9  2DCB               	goto	l3202
  2810  05CA                     u1700:
  2811  05CA                     l3200:
  2812  05CA  1432               	bsf	___flmul@aexp,0
  2813  05CB                     l3202:
  2814  05CB  0832               	movf	___flmul@aexp,w
  2815  05CC  1903               	btfsc	3,2
  2816  05CD  2DCF               	goto	u1711
  2817  05CE  2DD0               	goto	u1710
  2818  05CF                     u1711:
  2819  05CF  2DDF               	goto	l3210
  2820  05D0                     u1710:
  2821  05D0                     l3204:
  2822  05D0  0A32               	incf	___flmul@aexp,w
  2823  05D1  1D03               	btfss	3,2
  2824  05D2  2DD4               	goto	u1721
  2825  05D3  2DD5               	goto	u1720
  2826  05D4                     u1721:
  2827  05D4  2DDD               	goto	l3208
  2828  05D5                     u1720:
  2829  05D5                     l3206:
  2830  05D5  3000               	movlw	0
  2831  05D6  00A7               	movwf	___flmul@a+3
  2832  05D7  3000               	movlw	0
  2833  05D8  00A6               	movwf	___flmul@a+2
  2834  05D9  3000               	movlw	0
  2835  05DA  00A5               	movwf	___flmul@a+1
  2836  05DB  3000               	movlw	0
  2837  05DC  00A4               	movwf	___flmul@a
  2838  05DD                     l3208:
  2839  05DD  17A6               	bsf	___flmul@a+2,7
  2840  05DE  2DE7               	goto	l3212
  2841  05DF                     l3210:
  2842  05DF  3000               	movlw	0
  2843  05E0  00A7               	movwf	___flmul@a+3
  2844  05E1  3000               	movlw	0
  2845  05E2  00A6               	movwf	___flmul@a+2
  2846  05E3  3000               	movlw	0
  2847  05E4  00A5               	movwf	___flmul@a+1
  2848  05E5  3000               	movlw	0
  2849  05E6  00A4               	movwf	___flmul@a
  2850  05E7                     l3212:
  2851  05E7  0832               	movf	___flmul@aexp,w
  2852  05E8  1903               	btfsc	3,2
  2853  05E9  2DEB               	goto	u1731
  2854  05EA  2DEC               	goto	u1730
  2855  05EB                     u1731:
  2856  05EB  2DF1               	goto	l3216
  2857  05EC                     u1730:
  2858  05EC                     l3214:
  2859  05EC  0833               	movf	___flmul@bexp,w
  2860  05ED  1D03               	btfss	3,2
  2861  05EE  2DF0               	goto	u1741
  2862  05EF  2DF1               	goto	u1740
  2863  05F0                     u1741:
  2864  05F0  2DFA               	goto	l3220
  2865  05F1                     u1740:
  2866  05F1                     l3216:
  2867  05F1  3000               	movlw	0
  2868  05F2  00A3               	movwf	?___flmul+3
  2869  05F3  3000               	movlw	0
  2870  05F4  00A2               	movwf	?___flmul+2
  2871  05F5  3000               	movlw	0
  2872  05F6  00A1               	movwf	?___flmul+1
  2873  05F7  3000               	movlw	0
  2874  05F8  00A0               	movwf	?___flmul
  2875  05F9  2FE8               	goto	l1221
  2876  05FA                     l3220:
  2877  05FA  0820               	movf	___flmul@b,w
  2878  05FB  00A8               	movwf	??___flmul
  2879  05FC  0828               	movf	??___flmul,w
  2880  05FD  00F0               	movwf	__Umul8_16@multiplicand
  2881  05FE  0826               	movf	___flmul@a+2,w
  2882  05FF  3180  203C  3185   	fcall	__Umul8_16
  2883  0602  0871               	movf	?__Umul8_16+1,w
  2884  0603  0020               	movlb	0	; select bank0
  2885  0604  00B9               	movwf	___flmul@temp+1
  2886  0605  0870               	movf	?__Umul8_16,w
  2887  0606  00B8               	movwf	___flmul@temp
  2888  0607                     l3222:
  2889  0607  0838               	movf	___flmul@temp,w
  2890  0608  00A8               	movwf	??___flmul
  2891  0609  01A9               	clrf	??___flmul+1
  2892  060A  01AA               	clrf	??___flmul+2
  2893  060B  01AB               	clrf	??___flmul+3
  2894  060C  082B               	movf	??___flmul+3,w
  2895  060D  00B1               	movwf	___flmul@grs+3
  2896  060E  082A               	movf	??___flmul+2,w
  2897  060F  00B0               	movwf	___flmul@grs+2
  2898  0610  0829               	movf	??___flmul+1,w
  2899  0611  00AF               	movwf	___flmul@grs+1
  2900  0612  0828               	movf	??___flmul,w
  2901  0613  00AE               	movwf	___flmul@grs
  2902  0614                     l3224:
  2903  0614  0839               	movf	___flmul@temp+1,w
  2904  0615  00A8               	movwf	??___flmul
  2905  0616  01A9               	clrf	??___flmul+1
  2906  0617  01AA               	clrf	??___flmul+2
  2907  0618  01AB               	clrf	??___flmul+3
  2908  0619  082B               	movf	??___flmul+3,w
  2909  061A  00B7               	movwf	___flmul@prod+3
  2910  061B  082A               	movf	??___flmul+2,w
  2911  061C  00B6               	movwf	___flmul@prod+2
  2912  061D  0829               	movf	??___flmul+1,w
  2913  061E  00B5               	movwf	___flmul@prod+1
  2914  061F  0828               	movf	??___flmul,w
  2915  0620  00B4               	movwf	___flmul@prod
  2916  0621  0821               	movf	___flmul@b+1,w
  2917  0622  00A8               	movwf	??___flmul
  2918  0623  0828               	movf	??___flmul,w
  2919  0624  00F0               	movwf	__Umul8_16@multiplicand
  2920  0625  0825               	movf	___flmul@a+1,w
  2921  0626  3180  203C  3185   	fcall	__Umul8_16
  2922  0629  0871               	movf	?__Umul8_16+1,w
  2923  062A  0020               	movlb	0	; select bank0
  2924  062B  00B9               	movwf	___flmul@temp+1
  2925  062C  0870               	movf	?__Umul8_16,w
  2926  062D  00B8               	movwf	___flmul@temp
  2927  062E                     l3226:
  2928  062E  0838               	movf	___flmul@temp,w
  2929  062F  00A8               	movwf	??___flmul
  2930  0630  01A9               	clrf	??___flmul+1
  2931  0631  01AA               	clrf	??___flmul+2
  2932  0632  01AB               	clrf	??___flmul+3
  2933  0633  0828               	movf	??___flmul,w
  2934  0634  07AE               	addwf	___flmul@grs,f
  2935  0635  0829               	movf	??___flmul+1,w
  2936  0636  3DAF               	addwfc	___flmul@grs+1,f
  2937  0637  082A               	movf	??___flmul+2,w
  2938  0638  3DB0               	addwfc	___flmul@grs+2,f
  2939  0639  082B               	movf	??___flmul+3,w
  2940  063A  3DB1               	addwfc	___flmul@grs+3,f
  2941  063B                     l3228:
  2942  063B  0839               	movf	___flmul@temp+1,w
  2943  063C  00A8               	movwf	??___flmul
  2944  063D  01A9               	clrf	??___flmul+1
  2945  063E  01AA               	clrf	??___flmul+2
  2946  063F  01AB               	clrf	??___flmul+3
  2947  0640  0828               	movf	??___flmul,w
  2948  0641  07B4               	addwf	___flmul@prod,f
  2949  0642  0829               	movf	??___flmul+1,w
  2950  0643  3DB5               	addwfc	___flmul@prod+1,f
  2951  0644  082A               	movf	??___flmul+2,w
  2952  0645  3DB6               	addwfc	___flmul@prod+2,f
  2953  0646  082B               	movf	??___flmul+3,w
  2954  0647  3DB7               	addwfc	___flmul@prod+3,f
  2955  0648  0822               	movf	___flmul@b+2,w
  2956  0649  00A8               	movwf	??___flmul
  2957  064A  0828               	movf	??___flmul,w
  2958  064B  00F0               	movwf	__Umul8_16@multiplicand
  2959  064C  0824               	movf	___flmul@a,w
  2960  064D  3180  203C  3185   	fcall	__Umul8_16
  2961  0650  0871               	movf	?__Umul8_16+1,w
  2962  0651  0020               	movlb	0	; select bank0
  2963  0652  00B9               	movwf	___flmul@temp+1
  2964  0653  0870               	movf	?__Umul8_16,w
  2965  0654  00B8               	movwf	___flmul@temp
  2966  0655                     l3230:
  2967  0655  0838               	movf	___flmul@temp,w
  2968  0656  00A8               	movwf	??___flmul
  2969  0657  01A9               	clrf	??___flmul+1
  2970  0658  01AA               	clrf	??___flmul+2
  2971  0659  01AB               	clrf	??___flmul+3
  2972  065A  0828               	movf	??___flmul,w
  2973  065B  07AE               	addwf	___flmul@grs,f
  2974  065C  0829               	movf	??___flmul+1,w
  2975  065D  3DAF               	addwfc	___flmul@grs+1,f
  2976  065E  082A               	movf	??___flmul+2,w
  2977  065F  3DB0               	addwfc	___flmul@grs+2,f
  2978  0660  082B               	movf	??___flmul+3,w
  2979  0661  3DB1               	addwfc	___flmul@grs+3,f
  2980  0662                     l3232:
  2981  0662  0839               	movf	___flmul@temp+1,w
  2982  0663  00A8               	movwf	??___flmul
  2983  0664  01A9               	clrf	??___flmul+1
  2984  0665  01AA               	clrf	??___flmul+2
  2985  0666  01AB               	clrf	??___flmul+3
  2986  0667  0828               	movf	??___flmul,w
  2987  0668  07B4               	addwf	___flmul@prod,f
  2988  0669  0829               	movf	??___flmul+1,w
  2989  066A  3DB5               	addwfc	___flmul@prod+1,f
  2990  066B  082A               	movf	??___flmul+2,w
  2991  066C  3DB6               	addwfc	___flmul@prod+2,f
  2992  066D  082B               	movf	??___flmul+3,w
  2993  066E  3DB7               	addwfc	___flmul@prod+3,f
  2994  066F                     l3234:
  2995  066F  3008               	movlw	8
  2996  0670                     u1755:
  2997  0670  35AE               	lslf	___flmul@grs,f
  2998  0671  0DAF               	rlf	___flmul@grs+1,f
  2999  0672  0DB0               	rlf	___flmul@grs+2,f
  3000  0673  0DB1               	rlf	___flmul@grs+3,f
  3001  0674  0B89               	decfsz	9,f
  3002  0675  2E70               	goto	u1755
  3003  0676                     l3236:
  3004  0676  0821               	movf	___flmul@b+1,w
  3005  0677  00A8               	movwf	??___flmul
  3006  0678  0828               	movf	??___flmul,w
  3007  0679  00F0               	movwf	__Umul8_16@multiplicand
  3008  067A  0824               	movf	___flmul@a,w
  3009  067B  3180  203C  3185   	fcall	__Umul8_16
  3010  067E  0871               	movf	?__Umul8_16+1,w
  3011  067F  0020               	movlb	0	; select bank0
  3012  0680  00B9               	movwf	___flmul@temp+1
  3013  0681  0870               	movf	?__Umul8_16,w
  3014  0682  00B8               	movwf	___flmul@temp
  3015  0683                     l3238:
  3016  0683  0838               	movf	___flmul@temp,w
  3017  0684  07AE               	addwf	___flmul@grs,f
  3018  0685  0839               	movf	___flmul@temp+1,w
  3019  0686  3DAF               	addwfc	___flmul@grs+1,f
  3020  0687  3000               	movlw	0
  3021  0688  3DB0               	addwfc	___flmul@grs+2,f
  3022  0689  3DB1               	addwfc	___flmul@grs+3,f
  3023  068A                     l3240:
  3024  068A  0820               	movf	___flmul@b,w
  3025  068B  00A8               	movwf	??___flmul
  3026  068C  0828               	movf	??___flmul,w
  3027  068D  00F0               	movwf	__Umul8_16@multiplicand
  3028  068E  0825               	movf	___flmul@a+1,w
  3029  068F  3180  203C  3185   	fcall	__Umul8_16
  3030  0692  0871               	movf	?__Umul8_16+1,w
  3031  0693  0020               	movlb	0	; select bank0
  3032  0694  00B9               	movwf	___flmul@temp+1
  3033  0695  0870               	movf	?__Umul8_16,w
  3034  0696  00B8               	movwf	___flmul@temp
  3035  0697                     l3242:
  3036  0697  0838               	movf	___flmul@temp,w
  3037  0698  07AE               	addwf	___flmul@grs,f
  3038  0699  0839               	movf	___flmul@temp+1,w
  3039  069A  3DAF               	addwfc	___flmul@grs+1,f
  3040  069B  3000               	movlw	0
  3041  069C  3DB0               	addwfc	___flmul@grs+2,f
  3042  069D  3DB1               	addwfc	___flmul@grs+3,f
  3043  069E                     l3244:
  3044  069E  3008               	movlw	8
  3045  069F                     u1765:
  3046  069F  35AE               	lslf	___flmul@grs,f
  3047  06A0  0DAF               	rlf	___flmul@grs+1,f
  3048  06A1  0DB0               	rlf	___flmul@grs+2,f
  3049  06A2  0DB1               	rlf	___flmul@grs+3,f
  3050  06A3  0B89               	decfsz	9,f
  3051  06A4  2E9F               	goto	u1765
  3052  06A5  0820               	movf	___flmul@b,w
  3053  06A6  00A8               	movwf	??___flmul
  3054  06A7  0828               	movf	??___flmul,w
  3055  06A8  00F0               	movwf	__Umul8_16@multiplicand
  3056  06A9  0824               	movf	___flmul@a,w
  3057  06AA  3180  203C  3185   	fcall	__Umul8_16
  3058  06AD  0871               	movf	?__Umul8_16+1,w
  3059  06AE  0020               	movlb	0	; select bank0
  3060  06AF  00B9               	movwf	___flmul@temp+1
  3061  06B0  0870               	movf	?__Umul8_16,w
  3062  06B1  00B8               	movwf	___flmul@temp
  3063  06B2                     l3246:
  3064  06B2  0838               	movf	___flmul@temp,w
  3065  06B3  07AE               	addwf	___flmul@grs,f
  3066  06B4  0839               	movf	___flmul@temp+1,w
  3067  06B5  3DAF               	addwfc	___flmul@grs+1,f
  3068  06B6  3000               	movlw	0
  3069  06B7  3DB0               	addwfc	___flmul@grs+2,f
  3070  06B8  3DB1               	addwfc	___flmul@grs+3,f
  3071  06B9                     l3248:
  3072  06B9  0821               	movf	___flmul@b+1,w
  3073  06BA  00A8               	movwf	??___flmul
  3074  06BB  0828               	movf	??___flmul,w
  3075  06BC  00F0               	movwf	__Umul8_16@multiplicand
  3076  06BD  0826               	movf	___flmul@a+2,w
  3077  06BE  3180  203C  3185   	fcall	__Umul8_16
  3078  06C1  0871               	movf	?__Umul8_16+1,w
  3079  06C2  0020               	movlb	0	; select bank0
  3080  06C3  00B9               	movwf	___flmul@temp+1
  3081  06C4  0870               	movf	?__Umul8_16,w
  3082  06C5  00B8               	movwf	___flmul@temp
  3083  06C6  0838               	movf	___flmul@temp,w
  3084  06C7  07B4               	addwf	___flmul@prod,f
  3085  06C8  0839               	movf	___flmul@temp+1,w
  3086  06C9  3DB5               	addwfc	___flmul@prod+1,f
  3087  06CA  3000               	movlw	0
  3088  06CB  3DB6               	addwfc	___flmul@prod+2,f
  3089  06CC  3DB7               	addwfc	___flmul@prod+3,f
  3090  06CD                     l3250:
  3091  06CD  0822               	movf	___flmul@b+2,w
  3092  06CE  00A8               	movwf	??___flmul
  3093  06CF  0828               	movf	??___flmul,w
  3094  06D0  00F0               	movwf	__Umul8_16@multiplicand
  3095  06D1  0825               	movf	___flmul@a+1,w
  3096  06D2  3180  203C  3185   	fcall	__Umul8_16
  3097  06D5  0871               	movf	?__Umul8_16+1,w
  3098  06D6  0020               	movlb	0	; select bank0
  3099  06D7  00B9               	movwf	___flmul@temp+1
  3100  06D8  0870               	movf	?__Umul8_16,w
  3101  06D9  00B8               	movwf	___flmul@temp
  3102  06DA                     l3252:
  3103  06DA  0838               	movf	___flmul@temp,w
  3104  06DB  07B4               	addwf	___flmul@prod,f
  3105  06DC  0839               	movf	___flmul@temp+1,w
  3106  06DD  3DB5               	addwfc	___flmul@prod+1,f
  3107  06DE  3000               	movlw	0
  3108  06DF  3DB6               	addwfc	___flmul@prod+2,f
  3109  06E0  3DB7               	addwfc	___flmul@prod+3,f
  3110  06E1  0822               	movf	___flmul@b+2,w
  3111  06E2  00A8               	movwf	??___flmul
  3112  06E3  0828               	movf	??___flmul,w
  3113  06E4  00F0               	movwf	__Umul8_16@multiplicand
  3114  06E5  0826               	movf	___flmul@a+2,w
  3115  06E6  3180  203C  3185   	fcall	__Umul8_16
  3116  06E9  0871               	movf	?__Umul8_16+1,w
  3117  06EA  0020               	movlb	0	; select bank0
  3118  06EB  00B9               	movwf	___flmul@temp+1
  3119  06EC  0870               	movf	?__Umul8_16,w
  3120  06ED  00B8               	movwf	___flmul@temp
  3121  06EE                     l3254:
  3122  06EE  0838               	movf	___flmul@temp,w
  3123  06EF  00A8               	movwf	??___flmul
  3124  06F0  0839               	movf	___flmul@temp+1,w
  3125  06F1  00A9               	movwf	??___flmul+1
  3126  06F2  01AA               	clrf	??___flmul+2
  3127  06F3  01AB               	clrf	??___flmul+3
  3128  06F4  3008               	movlw	8
  3129  06F5                     u1775:
  3130  06F5  35A8               	lslf	??___flmul,f
  3131  06F6  0DA9               	rlf	??___flmul+1,f
  3132  06F7  0DAA               	rlf	??___flmul+2,f
  3133  06F8  0DAB               	rlf	??___flmul+3,f
  3134  06F9                     u1770:
  3135  06F9  0B89               	decfsz	9,f
  3136  06FA  2EF5               	goto	u1775
  3137  06FB  0828               	movf	??___flmul,w
  3138  06FC  07B4               	addwf	___flmul@prod,f
  3139  06FD  0829               	movf	??___flmul+1,w
  3140  06FE  3DB5               	addwfc	___flmul@prod+1,f
  3141  06FF  082A               	movf	??___flmul+2,w
  3142  0700  3DB6               	addwfc	___flmul@prod+2,f
  3143  0701  082B               	movf	??___flmul+3,w
  3144  0702  3DB7               	addwfc	___flmul@prod+3,f
  3145  0703                     l3256:
  3146  0703  082E               	movf	___flmul@grs,w
  3147  0704  00A8               	movwf	??___flmul
  3148  0705  082F               	movf	___flmul@grs+1,w
  3149  0706  00A9               	movwf	??___flmul+1
  3150  0707  0830               	movf	___flmul@grs+2,w
  3151  0708  00AA               	movwf	??___flmul+2
  3152  0709  0831               	movf	___flmul@grs+3,w
  3153  070A  00AB               	movwf	??___flmul+3
  3154  070B  3018               	movlw	24
  3155  070C                     u1785:
  3156  070C  36AB               	lsrf	??___flmul+3,f
  3157  070D  0CAA               	rrf	??___flmul+2,f
  3158  070E  0CA9               	rrf	??___flmul+1,f
  3159  070F  0CA8               	rrf	??___flmul,f
  3160  0710                     u1780:
  3161  0710  0B89               	decfsz	9,f
  3162  0711  2F0C               	goto	u1785
  3163  0712  0828               	movf	??___flmul,w
  3164  0713  07B4               	addwf	___flmul@prod,f
  3165  0714  0829               	movf	??___flmul+1,w
  3166  0715  3DB5               	addwfc	___flmul@prod+1,f
  3167  0716  082A               	movf	??___flmul+2,w
  3168  0717  3DB6               	addwfc	___flmul@prod+2,f
  3169  0718  082B               	movf	??___flmul+3,w
  3170  0719  3DB7               	addwfc	___flmul@prod+3,f
  3171  071A                     l3258:
  3172  071A  3008               	movlw	8
  3173  071B                     u1795:
  3174  071B  35AE               	lslf	___flmul@grs,f
  3175  071C  0DAF               	rlf	___flmul@grs+1,f
  3176  071D  0DB0               	rlf	___flmul@grs+2,f
  3177  071E  0DB1               	rlf	___flmul@grs+3,f
  3178  071F  0B89               	decfsz	9,f
  3179  0720  2F1B               	goto	u1795
  3180  0721                     l3260:
  3181  0721  0833               	movf	___flmul@bexp,w
  3182  0722  0732               	addwf	___flmul@aexp,w
  3183  0723  00A8               	movwf	??___flmul
  3184  0724  01A9               	clrf	??___flmul+1
  3185  0725  0DA9               	rlf	??___flmul+1,f
  3186  0726  0828               	movf	??___flmul,w
  3187  0727  3E82               	addlw	130
  3188  0728  00B8               	movwf	___flmul@temp
  3189  0729  30FF               	movlw	255
  3190  072A  3D29               	addwfc	??___flmul+1,w
  3191  072B  00B9               	movwf	___flmul@temp+1
  3192  072C  2F44               	goto	l3272
  3193  072D                     l3262:
  3194  072D  3001               	movlw	1
  3195  072E                     u1805:
  3196  072E  35B4               	lslf	___flmul@prod,f
  3197  072F  0DB5               	rlf	___flmul@prod+1,f
  3198  0730  0DB6               	rlf	___flmul@prod+2,f
  3199  0731  0DB7               	rlf	___flmul@prod+3,f
  3200  0732  0B89               	decfsz	9,f
  3201  0733  2F2E               	goto	u1805
  3202  0734                     l3264:
  3203  0734  1FB1               	btfss	___flmul@grs+3,7
  3204  0735  2F37               	goto	u1811
  3205  0736  2F38               	goto	u1810
  3206  0737                     u1811:
  3207  0737  2F39               	goto	l3268
  3208  0738                     u1810:
  3209  0738                     l3266:
  3210  0738  1434               	bsf	___flmul@prod,0
  3211  0739                     l3268:
  3212  0739  3001               	movlw	1
  3213  073A                     u1825:
  3214  073A  35AE               	lslf	___flmul@grs,f
  3215  073B  0DAF               	rlf	___flmul@grs+1,f
  3216  073C  0DB0               	rlf	___flmul@grs+2,f
  3217  073D  0DB1               	rlf	___flmul@grs+3,f
  3218  073E  0B89               	decfsz	9,f
  3219  073F  2F3A               	goto	u1825
  3220  0740                     l3270:
  3221  0740  30FF               	movlw	255
  3222  0741  07B8               	addwf	___flmul@temp,f
  3223  0742  30FF               	movlw	255
  3224  0743  3DB9               	addwfc	___flmul@temp+1,f
  3225  0744                     l3272:
  3226  0744  1FB6               	btfss	___flmul@prod+2,7
  3227  0745  2F47               	goto	u1831
  3228  0746  2F48               	goto	u1830
  3229  0747                     u1831:
  3230  0747  2F2D               	goto	l3262
  3231  0748                     u1830:
  3232  0748                     l3274:
  3233  0748  01B2               	clrf	___flmul@aexp
  3234  0749                     l3276:
  3235  0749  1FB1               	btfss	___flmul@grs+3,7
  3236  074A  2F4C               	goto	u1841
  3237  074B  2F4D               	goto	u1840
  3238  074C                     u1841:
  3239  074C  2F69               	goto	l3284
  3240  074D                     u1840:
  3241  074D                     l3278:
  3242  074D  30FF               	movlw	255
  3243  074E  052E               	andwf	___flmul@grs,w
  3244  074F  00A8               	movwf	??___flmul
  3245  0750  30FF               	movlw	255
  3246  0751  052F               	andwf	___flmul@grs+1,w
  3247  0752  00A9               	movwf	??___flmul+1
  3248  0753  30FF               	movlw	255
  3249  0754  0530               	andwf	___flmul@grs+2,w
  3250  0755  00AA               	movwf	??___flmul+2
  3251  0756  307F               	movlw	127
  3252  0757  0531               	andwf	___flmul@grs+3,w
  3253  0758  00AB               	movwf	??___flmul+3
  3254  0759  082B               	movf	??___flmul+3,w
  3255  075A  042A               	iorwf	??___flmul+2,w
  3256  075B  0429               	iorwf	??___flmul+1,w
  3257  075C  0428               	iorwf	??___flmul,w
  3258  075D  1903               	skipnz
  3259  075E  2F60               	goto	u1851
  3260  075F  2F61               	goto	u1850
  3261  0760                     u1851:
  3262  0760  2F64               	goto	l1227
  3263  0761                     u1850:
  3264  0761                     l3280:
  3265  0761  01B2               	clrf	___flmul@aexp
  3266  0762  0AB2               	incf	___flmul@aexp,f
  3267  0763  2F69               	goto	l3284
  3268  0764                     l1227:
  3269  0764  1C34               	btfss	___flmul@prod,0
  3270  0765  2F67               	goto	u1861
  3271  0766  2F68               	goto	u1860
  3272  0767                     u1861:
  3273  0767  2F69               	goto	l3284
  3274  0768                     u1860:
  3275  0768  2F61               	goto	l3280
  3276  0769                     l3284:
  3277  0769  0832               	movf	___flmul@aexp,w
  3278  076A  1903               	btfsc	3,2
  3279  076B  2F6D               	goto	u1871
  3280  076C  2F6E               	goto	u1870
  3281  076D                     u1871:
  3282  076D  2F96               	goto	l3294
  3283  076E                     u1870:
  3284  076E                     l3286:
  3285  076E  3001               	movlw	1
  3286  076F  07B4               	addwf	___flmul@prod,f
  3287  0770  3000               	movlw	0
  3288  0771  3DB5               	addwfc	___flmul@prod+1,f
  3289  0772  3000               	movlw	0
  3290  0773  3DB6               	addwfc	___flmul@prod+2,f
  3291  0774  3000               	movlw	0
  3292  0775  3DB7               	addwfc	___flmul@prod+3,f
  3293  0776                     l3288:
  3294  0776  1C37               	btfss	___flmul@prod+3,0
  3295  0777  2F79               	goto	u1881
  3296  0778  2F7A               	goto	u1880
  3297  0779                     u1881:
  3298  0779  2F96               	goto	l3294
  3299  077A                     u1880:
  3300  077A                     l3290:
  3301  077A  0834               	movf	___flmul@prod,w
  3302  077B  00A8               	movwf	??___flmul
  3303  077C  0835               	movf	___flmul@prod+1,w
  3304  077D  00A9               	movwf	??___flmul+1
  3305  077E  0836               	movf	___flmul@prod+2,w
  3306  077F  00AA               	movwf	??___flmul+2
  3307  0780  0837               	movf	___flmul@prod+3,w
  3308  0781  00AB               	movwf	??___flmul+3
  3309  0782  3001               	movlw	1
  3310  0783  00AC               	movwf	??___flmul+4
  3311  0784                     u1895:
  3312  0784  37AB               	asrf	??___flmul+3,f
  3313  0785  0CAA               	rrf	??___flmul+2,f
  3314  0786  0CA9               	rrf	??___flmul+1,f
  3315  0787  0CA8               	rrf	??___flmul,f
  3316  0788                     u1890:
  3317  0788  0BAC               	decfsz	??___flmul+4,f
  3318  0789  2F84               	goto	u1895
  3319  078A  082B               	movf	??___flmul+3,w
  3320  078B  00B7               	movwf	___flmul@prod+3
  3321  078C  082A               	movf	??___flmul+2,w
  3322  078D  00B6               	movwf	___flmul@prod+2
  3323  078E  0829               	movf	??___flmul+1,w
  3324  078F  00B5               	movwf	___flmul@prod+1
  3325  0790  0828               	movf	??___flmul,w
  3326  0791  00B4               	movwf	___flmul@prod
  3327  0792                     l3292:
  3328  0792  3001               	movlw	1
  3329  0793  07B8               	addwf	___flmul@temp,f
  3330  0794  3000               	movlw	0
  3331  0795  3DB9               	addwfc	___flmul@temp+1,f
  3332  0796                     l3294:
  3333  0796  0839               	movf	___flmul@temp+1,w
  3334  0797  3A80               	xorlw	128
  3335  0798  00A8               	movwf	??___flmul
  3336  0799  3080               	movlw	128
  3337  079A  0228               	subwf	??___flmul,w
  3338  079B  1D03               	skipz
  3339  079C  2F9F               	goto	u1905
  3340  079D  30FF               	movlw	255
  3341  079E  0238               	subwf	___flmul@temp,w
  3342  079F                     u1905:
  3343  079F  1C03               	skipc
  3344  07A0  2FA2               	goto	u1901
  3345  07A1  2FA3               	goto	u1900
  3346  07A2                     u1901:
  3347  07A2  2FAD               	goto	l3298
  3348  07A3                     u1900:
  3349  07A3                     l3296:
  3350  07A3  307F               	movlw	127
  3351  07A4  0020               	movlb	0	; select bank0
  3352  07A5  00B7               	movwf	___flmul@prod+3
  3353  07A6  3080               	movlw	128
  3354  07A7  00B6               	movwf	___flmul@prod+2
  3355  07A8  3000               	movlw	0
  3356  07A9  00B5               	movwf	___flmul@prod+1
  3357  07AA  3000               	movlw	0
  3358  07AB  00B4               	movwf	___flmul@prod
  3359  07AC  2FDC               	goto	l1233
  3360  07AD                     l3298:
  3361  07AD  0020               	movlb	0	; select bank0
  3362  07AE  0839               	movf	___flmul@temp+1,w
  3363  07AF  3A80               	xorlw	128
  3364  07B0  00A8               	movwf	??___flmul
  3365  07B1  3080               	movlw	128
  3366  07B2  0228               	subwf	??___flmul,w
  3367  07B3  1D03               	skipz
  3368  07B4  2FB7               	goto	u1915
  3369  07B5  3001               	movlw	1
  3370  07B6  0238               	subwf	___flmul@temp,w
  3371  07B7                     u1915:
  3372  07B7  1803               	skipnc
  3373  07B8  2FBA               	goto	u1911
  3374  07B9  2FBB               	goto	u1910
  3375  07BA                     u1911:
  3376  07BA  2FC6               	goto	l3304
  3377  07BB                     u1910:
  3378  07BB                     l3300:
  3379  07BB  3000               	movlw	0
  3380  07BC  0020               	movlb	0	; select bank0
  3381  07BD  00B7               	movwf	___flmul@prod+3
  3382  07BE  3000               	movlw	0
  3383  07BF  00B6               	movwf	___flmul@prod+2
  3384  07C0  3000               	movlw	0
  3385  07C1  00B5               	movwf	___flmul@prod+1
  3386  07C2  3000               	movlw	0
  3387  07C3  00B4               	movwf	___flmul@prod
  3388  07C4                     l3302:
  3389  07C4  01AD               	clrf	___flmul@sign
  3390  07C5  2FDC               	goto	l1233
  3391  07C6                     l3304:
  3392  07C6  0020               	movlb	0	; select bank0
  3393  07C7  0838               	movf	___flmul@temp,w
  3394  07C8  00A8               	movwf	??___flmul
  3395  07C9  0828               	movf	??___flmul,w
  3396  07CA  00B3               	movwf	___flmul@bexp
  3397  07CB  30FF               	movlw	255
  3398  07CC  05B4               	andwf	___flmul@prod,f
  3399  07CD  30FF               	movlw	255
  3400  07CE  05B5               	andwf	___flmul@prod+1,f
  3401  07CF  307F               	movlw	127
  3402  07D0  05B6               	andwf	___flmul@prod+2,f
  3403  07D1  3000               	movlw	0
  3404  07D2  05B7               	andwf	___flmul@prod+3,f
  3405  07D3                     l3306:
  3406  07D3  1C33               	btfss	___flmul@bexp,0
  3407  07D4  2FD6               	goto	u1921
  3408  07D5  2FD7               	goto	u1920
  3409  07D6                     u1921:
  3410  07D6  2FD8               	goto	l3310
  3411  07D7                     u1920:
  3412  07D7                     l3308:
  3413  07D7  17B6               	bsf	___flmul@prod+2,7
  3414  07D8                     l3310:
  3415  07D8  3633               	lsrf	___flmul@bexp,w
  3416  07D9  00A8               	movwf	??___flmul
  3417  07DA  0828               	movf	??___flmul,w
  3418  07DB  00B7               	movwf	___flmul@prod+3
  3419  07DC                     l1233:
  3420  07DC  082D               	movf	___flmul@sign,w
  3421  07DD  00A8               	movwf	??___flmul
  3422  07DE  0828               	movf	??___flmul,w
  3423  07DF  04B7               	iorwf	___flmul@prod+3,f
  3424  07E0                     l3312:
  3425  07E0  0837               	movf	___flmul@prod+3,w
  3426  07E1  00A3               	movwf	?___flmul+3
  3427  07E2  0836               	movf	___flmul@prod+2,w
  3428  07E3  00A2               	movwf	?___flmul+2
  3429  07E4  0835               	movf	___flmul@prod+1,w
  3430  07E5  00A1               	movwf	?___flmul+1
  3431  07E6  0834               	movf	___flmul@prod,w
  3432  07E7  00A0               	movwf	?___flmul
  3433  07E8                     l1221:
  3434  07E8  0008               	return
  3435  07E9                     __end_of___flmul:
  3436                           
  3437                           	psect	text4
  3438  003C                     __ptext4:	
  3439 ;; *************** function __Umul8_16 *****************
  3440 ;; Defined at:
  3441 ;;		line 4 in file "C:\Program Files\Microchip\xc8\v2.35\pic\sources\c99\common\Umul8_16.c"
  3442 ;; Parameters:    Size  Location     Type
  3443 ;;  multiplier      1    wreg     unsigned char 
  3444 ;;  multiplicand    1    0[COMMON] unsigned char 
  3445 ;; Auto vars:     Size  Location     Type
  3446 ;;  multiplier      1    8[COMMON] unsigned char 
  3447 ;;  word_mpld       2    6[COMMON] unsigned int 
  3448 ;;  product         2    4[COMMON] unsigned int 
  3449 ;; Return value:  Size  Location     Type
  3450 ;;                  2    0[COMMON] unsigned int 
  3451 ;; Registers used:
  3452 ;;		wreg, status,2, status,0
  3453 ;; Tracked objects:
  3454 ;;		On entry : 0/0
  3455 ;;		On exit  : 0/0
  3456 ;;		Unchanged: 0/0
  3457 ;; Data sizes:     COMMON   BANK0   BANK1   BANK2   BANK3   BANK4
  3458 ;;      Params:         2       0       0       0       0       0
  3459 ;;      Locals:         5       0       0       0       0       0
  3460 ;;      Temps:          2       0       0       0       0       0
  3461 ;;      Totals:         9       0       0       0       0       0
  3462 ;;Total ram usage:        9 bytes
  3463 ;; Hardware stack levels used: 1
  3464 ;; This function calls:
  3465 ;;		Nothing
  3466 ;; This function is called by:
  3467 ;;		___flmul
  3468 ;; This function uses a non-reentrant model
  3469 ;;
  3470                           
  3471  003C                     __Umul8_16:	
  3472                           ;psect for function __Umul8_16
  3473                           
  3474                           
  3475                           ;incstack = 0
  3476                           ; Regs used in __Umul8_16: [wreg+status,2+status,0]
  3477                           ;__Umul8_16@multiplier stored from wreg
  3478  003C  00F8               	movwf	__Umul8_16@multiplier
  3479  003D                     l2972:
  3480  003D  01F4               	clrf	__Umul8_16@product
  3481  003E  01F5               	clrf	__Umul8_16@product+1
  3482  003F                     l2974:
  3483  003F  0870               	movf	__Umul8_16@multiplicand,w
  3484  0040  00F2               	movwf	??__Umul8_16
  3485  0041  01F3               	clrf	??__Umul8_16+1
  3486  0042  0872               	movf	??__Umul8_16,w
  3487  0043  00F6               	movwf	__Umul8_16@word_mpld
  3488  0044  0873               	movf	??__Umul8_16+1,w
  3489  0045  00F7               	movwf	__Umul8_16@word_mpld+1
  3490  0046                     l2976:
  3491  0046  1C78               	btfss	__Umul8_16@multiplier,0
  3492  0047  2849               	goto	u1341
  3493  0048  284A               	goto	u1340
  3494  0049                     u1341:
  3495  0049  284E               	goto	l1240
  3496  004A                     u1340:
  3497  004A                     l2978:
  3498  004A  0876               	movf	__Umul8_16@word_mpld,w
  3499  004B  07F4               	addwf	__Umul8_16@product,f
  3500  004C  0877               	movf	__Umul8_16@word_mpld+1,w
  3501  004D  3DF5               	addwfc	__Umul8_16@product+1,f
  3502  004E                     l1240:
  3503  004E  3001               	movlw	1
  3504  004F                     u1355:
  3505  004F  35F6               	lslf	__Umul8_16@word_mpld,f
  3506  0050  0DF7               	rlf	__Umul8_16@word_mpld+1,f
  3507  0051  0B89               	decfsz	9,f
  3508  0052  284F               	goto	u1355
  3509  0053  1003               	clrc
  3510  0054  0CF8               	rrf	__Umul8_16@multiplier,f
  3511  0055                     l2980:
  3512  0055  0878               	movf	__Umul8_16@multiplier,w
  3513  0056  1D03               	btfss	3,2
  3514  0057  2859               	goto	u1361
  3515  0058  285A               	goto	u1360
  3516  0059                     u1361:
  3517  0059  2846               	goto	l2976
  3518  005A                     u1360:
  3519  005A                     l2982:
  3520  005A  0875               	movf	__Umul8_16@product+1,w
  3521  005B  00F1               	movwf	?__Umul8_16+1
  3522  005C  0874               	movf	__Umul8_16@product,w
  3523  005D  00F0               	movwf	?__Umul8_16
  3524  005E                     l1242:
  3525  005E  0008               	return
  3526  005F                     __end_of__Umul8_16:
  3527                           
  3528                           	psect	text5
  3529  01B6                     __ptext5:	
  3530 ;; *************** function ___awmod *****************
  3531 ;; Defined at:
  3532 ;;		line 5 in file "C:\Program Files\Microchip\xc8\v2.35\pic\sources\c99\common\awmod.c"
  3533 ;; Parameters:    Size  Location     Type
  3534 ;;  divisor         2    0[COMMON] int 
  3535 ;;  dividend        2    2[COMMON] int 
  3536 ;; Auto vars:     Size  Location     Type
  3537 ;;  sign            1    6[COMMON] unsigned char 
  3538 ;;  counter         1    5[COMMON] unsigned char 
  3539 ;; Return value:  Size  Location     Type
  3540 ;;                  2    0[COMMON] int 
  3541 ;; Registers used:
  3542 ;;		wreg, status,2, status,0
  3543 ;; Tracked objects:
  3544 ;;		On entry : 0/0
  3545 ;;		On exit  : 0/0
  3546 ;;		Unchanged: 0/0
  3547 ;; Data sizes:     COMMON   BANK0   BANK1   BANK2   BANK3   BANK4
  3548 ;;      Params:         4       0       0       0       0       0
  3549 ;;      Locals:         2       0       0       0       0       0
  3550 ;;      Temps:          1       0       0       0       0       0
  3551 ;;      Totals:         7       0       0       0       0       0
  3552 ;;Total ram usage:        7 bytes
  3553 ;; Hardware stack levels used: 1
  3554 ;; This function calls:
  3555 ;;		Nothing
  3556 ;; This function is called by:
  3557 ;;		_main
  3558 ;; This function uses a non-reentrant model
  3559 ;;
  3560                           
  3561  01B6                     ___awmod:	
  3562                           ;psect for function ___awmod
  3563                           
  3564  01B6                     l3102:	
  3565                           ;incstack = 0
  3566                           ; Regs used in ___awmod: [wreg+status,2+status,0]
  3567                           
  3568  01B6  01F6               	clrf	___awmod@sign
  3569  01B7                     l3104:
  3570  01B7  1FF3               	btfss	___awmod@dividend+1,7
  3571  01B8  29BA               	goto	u1481
  3572  01B9  29BB               	goto	u1480
  3573  01BA                     u1481:
  3574  01BA  29C2               	goto	l3110
  3575  01BB                     u1480:
  3576  01BB                     l3106:
  3577  01BB  09F2               	comf	___awmod@dividend,f
  3578  01BC  09F3               	comf	___awmod@dividend+1,f
  3579  01BD  0AF2               	incf	___awmod@dividend,f
  3580  01BE  1903               	skipnz
  3581  01BF  0AF3               	incf	___awmod@dividend+1,f
  3582  01C0                     l3108:
  3583  01C0  01F6               	clrf	___awmod@sign
  3584  01C1  0AF6               	incf	___awmod@sign,f
  3585  01C2                     l3110:
  3586  01C2  1FF1               	btfss	___awmod@divisor+1,7
  3587  01C3  29C5               	goto	u1491
  3588  01C4  29C6               	goto	u1490
  3589  01C5                     u1491:
  3590  01C5  29CB               	goto	l3114
  3591  01C6                     u1490:
  3592  01C6                     l3112:
  3593  01C6  09F0               	comf	___awmod@divisor,f
  3594  01C7  09F1               	comf	___awmod@divisor+1,f
  3595  01C8  0AF0               	incf	___awmod@divisor,f
  3596  01C9  1903               	skipnz
  3597  01CA  0AF1               	incf	___awmod@divisor+1,f
  3598  01CB                     l3114:
  3599  01CB  0870               	movf	___awmod@divisor,w
  3600  01CC  0471               	iorwf	___awmod@divisor+1,w
  3601  01CD  1903               	btfsc	3,2
  3602  01CE  29D0               	goto	u1501
  3603  01CF  29D1               	goto	u1500
  3604  01D0                     u1501:
  3605  01D0  29FA               	goto	l3132
  3606  01D1                     u1500:
  3607  01D1                     l3116:
  3608  01D1  01F5               	clrf	___awmod@counter
  3609  01D2  0AF5               	incf	___awmod@counter,f
  3610  01D3  29DD               	goto	l3122
  3611  01D4                     l3118:
  3612  01D4  3001               	movlw	1
  3613  01D5                     u1515:
  3614  01D5  35F0               	lslf	___awmod@divisor,f
  3615  01D6  0DF1               	rlf	___awmod@divisor+1,f
  3616  01D7  0B89               	decfsz	9,f
  3617  01D8  29D5               	goto	u1515
  3618  01D9                     l3120:
  3619  01D9  3001               	movlw	1
  3620  01DA  00F4               	movwf	??___awmod
  3621  01DB  0874               	movf	??___awmod,w
  3622  01DC  07F5               	addwf	___awmod@counter,f
  3623  01DD                     l3122:
  3624  01DD  1FF1               	btfss	___awmod@divisor+1,7
  3625  01DE  29E0               	goto	u1521
  3626  01DF  29E1               	goto	u1520
  3627  01E0                     u1521:
  3628  01E0  29D4               	goto	l3118
  3629  01E1                     u1520:
  3630  01E1                     l3124:
  3631  01E1  0871               	movf	___awmod@divisor+1,w
  3632  01E2  0273               	subwf	___awmod@dividend+1,w
  3633  01E3  1D03               	skipz
  3634  01E4  29E7               	goto	u1535
  3635  01E5  0870               	movf	___awmod@divisor,w
  3636  01E6  0272               	subwf	___awmod@dividend,w
  3637  01E7                     u1535:
  3638  01E7  1C03               	skipc
  3639  01E8  29EA               	goto	u1531
  3640  01E9  29EB               	goto	u1530
  3641  01EA                     u1531:
  3642  01EA  29EF               	goto	l3128
  3643  01EB                     u1530:
  3644  01EB                     l3126:
  3645  01EB  0870               	movf	___awmod@divisor,w
  3646  01EC  02F2               	subwf	___awmod@dividend,f
  3647  01ED  0871               	movf	___awmod@divisor+1,w
  3648  01EE  3BF3               	subwfb	___awmod@dividend+1,f
  3649  01EF                     l3128:
  3650  01EF  3001               	movlw	1
  3651  01F0                     u1545:
  3652  01F0  36F1               	lsrf	___awmod@divisor+1,f
  3653  01F1  0CF0               	rrf	___awmod@divisor,f
  3654  01F2  0B89               	decfsz	9,f
  3655  01F3  29F0               	goto	u1545
  3656  01F4                     l3130:
  3657  01F4  3001               	movlw	1
  3658  01F5  02F5               	subwf	___awmod@counter,f
  3659  01F6  1D03               	btfss	3,2
  3660  01F7  29F9               	goto	u1551
  3661  01F8  29FA               	goto	u1550
  3662  01F9                     u1551:
  3663  01F9  29E1               	goto	l3124
  3664  01FA                     u1550:
  3665  01FA                     l3132:
  3666  01FA  0876               	movf	___awmod@sign,w
  3667  01FB  1903               	btfsc	3,2
  3668  01FC  29FE               	goto	u1561
  3669  01FD  29FF               	goto	u1560
  3670  01FE                     u1561:
  3671  01FE  2A04               	goto	l3136
  3672  01FF                     u1560:
  3673  01FF                     l3134:
  3674  01FF  09F2               	comf	___awmod@dividend,f
  3675  0200  09F3               	comf	___awmod@dividend+1,f
  3676  0201  0AF2               	incf	___awmod@dividend,f
  3677  0202  1903               	skipnz
  3678  0203  0AF3               	incf	___awmod@dividend+1,f
  3679  0204                     l3136:
  3680  0204  0873               	movf	___awmod@dividend+1,w
  3681  0205  00F1               	movwf	?___awmod+1
  3682  0206  0872               	movf	___awmod@dividend,w
  3683  0207  00F0               	movwf	?___awmod
  3684  0208                     l990:
  3685  0208  0008               	return
  3686  0209                     __end_of___awmod:
  3687                           
  3688                           	psect	text6
  3689  025E                     __ptext6:	
  3690 ;; *************** function ___awdiv *****************
  3691 ;; Defined at:
  3692 ;;		line 5 in file "C:\Program Files\Microchip\xc8\v2.35\pic\sources\c99\common\awdiv.c"
  3693 ;; Parameters:    Size  Location     Type
  3694 ;;  divisor         2    0[COMMON] int 
  3695 ;;  dividend        2    2[COMMON] int 
  3696 ;; Auto vars:     Size  Location     Type
  3697 ;;  quotient        2    7[COMMON] int 
  3698 ;;  sign            1    6[COMMON] unsigned char 
  3699 ;;  counter         1    5[COMMON] unsigned char 
  3700 ;; Return value:  Size  Location     Type
  3701 ;;                  2    0[COMMON] int 
  3702 ;; Registers used:
  3703 ;;		wreg, status,2, status,0
  3704 ;; Tracked objects:
  3705 ;;		On entry : 0/0
  3706 ;;		On exit  : 0/0
  3707 ;;		Unchanged: 0/0
  3708 ;; Data sizes:     COMMON   BANK0   BANK1   BANK2   BANK3   BANK4
  3709 ;;      Params:         4       0       0       0       0       0
  3710 ;;      Locals:         4       0       0       0       0       0
  3711 ;;      Temps:          1       0       0       0       0       0
  3712 ;;      Totals:         9       0       0       0       0       0
  3713 ;;Total ram usage:        9 bytes
  3714 ;; Hardware stack levels used: 1
  3715 ;; This function calls:
  3716 ;;		Nothing
  3717 ;; This function is called by:
  3718 ;;		_main
  3719 ;; This function uses a non-reentrant model
  3720 ;;
  3721                           
  3722  025E                     ___awdiv:	
  3723                           ;psect for function ___awdiv
  3724                           
  3725  025E                     l3058:	
  3726                           ;incstack = 0
  3727                           ; Regs used in ___awdiv: [wreg+status,2+status,0]
  3728                           
  3729  025E  01F6               	clrf	___awdiv@sign
  3730  025F                     l3060:
  3731  025F  1FF1               	btfss	___awdiv@divisor+1,7
  3732  0260  2A62               	goto	u1381
  3733  0261  2A63               	goto	u1380
  3734  0262                     u1381:
  3735  0262  2A6A               	goto	l3066
  3736  0263                     u1380:
  3737  0263                     l3062:
  3738  0263  09F0               	comf	___awdiv@divisor,f
  3739  0264  09F1               	comf	___awdiv@divisor+1,f
  3740  0265  0AF0               	incf	___awdiv@divisor,f
  3741  0266  1903               	skipnz
  3742  0267  0AF1               	incf	___awdiv@divisor+1,f
  3743  0268                     l3064:
  3744  0268  01F6               	clrf	___awdiv@sign
  3745  0269  0AF6               	incf	___awdiv@sign,f
  3746  026A                     l3066:
  3747  026A  1FF3               	btfss	___awdiv@dividend+1,7
  3748  026B  2A6D               	goto	u1391
  3749  026C  2A6E               	goto	u1390
  3750  026D                     u1391:
  3751  026D  2A77               	goto	l3072
  3752  026E                     u1390:
  3753  026E                     l3068:
  3754  026E  09F2               	comf	___awdiv@dividend,f
  3755  026F  09F3               	comf	___awdiv@dividend+1,f
  3756  0270  0AF2               	incf	___awdiv@dividend,f
  3757  0271  1903               	skipnz
  3758  0272  0AF3               	incf	___awdiv@dividend+1,f
  3759  0273                     l3070:
  3760  0273  3001               	movlw	1
  3761  0274  00F4               	movwf	??___awdiv
  3762  0275  0874               	movf	??___awdiv,w
  3763  0276  06F6               	xorwf	___awdiv@sign,f
  3764  0277                     l3072:
  3765  0277  01F7               	clrf	___awdiv@quotient
  3766  0278  01F8               	clrf	___awdiv@quotient+1
  3767  0279                     l3074:
  3768  0279  0870               	movf	___awdiv@divisor,w
  3769  027A  0471               	iorwf	___awdiv@divisor+1,w
  3770  027B  1903               	btfsc	3,2
  3771  027C  2A7E               	goto	u1401
  3772  027D  2A7F               	goto	u1400
  3773  027E                     u1401:
  3774  027E  2AAE               	goto	l3094
  3775  027F                     u1400:
  3776  027F                     l3076:
  3777  027F  01F5               	clrf	___awdiv@counter
  3778  0280  0AF5               	incf	___awdiv@counter,f
  3779  0281  2A8B               	goto	l3082
  3780  0282                     l3078:
  3781  0282  3001               	movlw	1
  3782  0283                     u1415:
  3783  0283  35F0               	lslf	___awdiv@divisor,f
  3784  0284  0DF1               	rlf	___awdiv@divisor+1,f
  3785  0285  0B89               	decfsz	9,f
  3786  0286  2A83               	goto	u1415
  3787  0287                     l3080:
  3788  0287  3001               	movlw	1
  3789  0288  00F4               	movwf	??___awdiv
  3790  0289  0874               	movf	??___awdiv,w
  3791  028A  07F5               	addwf	___awdiv@counter,f
  3792  028B                     l3082:
  3793  028B  1FF1               	btfss	___awdiv@divisor+1,7
  3794  028C  2A8E               	goto	u1421
  3795  028D  2A8F               	goto	u1420
  3796  028E                     u1421:
  3797  028E  2A82               	goto	l3078
  3798  028F                     u1420:
  3799  028F                     l3084:
  3800  028F  3001               	movlw	1
  3801  0290                     u1435:
  3802  0290  35F7               	lslf	___awdiv@quotient,f
  3803  0291  0DF8               	rlf	___awdiv@quotient+1,f
  3804  0292  0B89               	decfsz	9,f
  3805  0293  2A90               	goto	u1435
  3806  0294  0871               	movf	___awdiv@divisor+1,w
  3807  0295  0273               	subwf	___awdiv@dividend+1,w
  3808  0296  1D03               	skipz
  3809  0297  2A9A               	goto	u1445
  3810  0298  0870               	movf	___awdiv@divisor,w
  3811  0299  0272               	subwf	___awdiv@dividend,w
  3812  029A                     u1445:
  3813  029A  1C03               	skipc
  3814  029B  2A9D               	goto	u1441
  3815  029C  2A9E               	goto	u1440
  3816  029D                     u1441:
  3817  029D  2AA3               	goto	l3090
  3818  029E                     u1440:
  3819  029E                     l3086:
  3820  029E  0870               	movf	___awdiv@divisor,w
  3821  029F  02F2               	subwf	___awdiv@dividend,f
  3822  02A0  0871               	movf	___awdiv@divisor+1,w
  3823  02A1  3BF3               	subwfb	___awdiv@dividend+1,f
  3824  02A2                     l3088:
  3825  02A2  1477               	bsf	___awdiv@quotient,0
  3826  02A3                     l3090:
  3827  02A3  3001               	movlw	1
  3828  02A4                     u1455:
  3829  02A4  36F1               	lsrf	___awdiv@divisor+1,f
  3830  02A5  0CF0               	rrf	___awdiv@divisor,f
  3831  02A6  0B89               	decfsz	9,f
  3832  02A7  2AA4               	goto	u1455
  3833  02A8                     l3092:
  3834  02A8  3001               	movlw	1
  3835  02A9  02F5               	subwf	___awdiv@counter,f
  3836  02AA  1D03               	btfss	3,2
  3837  02AB  2AAD               	goto	u1461
  3838  02AC  2AAE               	goto	u1460
  3839  02AD                     u1461:
  3840  02AD  2A8F               	goto	l3084
  3841  02AE                     u1460:
  3842  02AE                     l3094:
  3843  02AE  0876               	movf	___awdiv@sign,w
  3844  02AF  1903               	btfsc	3,2
  3845  02B0  2AB2               	goto	u1471
  3846  02B1  2AB3               	goto	u1470
  3847  02B2                     u1471:
  3848  02B2  2AB8               	goto	l3098
  3849  02B3                     u1470:
  3850  02B3                     l3096:
  3851  02B3  09F7               	comf	___awdiv@quotient,f
  3852  02B4  09F8               	comf	___awdiv@quotient+1,f
  3853  02B5  0AF7               	incf	___awdiv@quotient,f
  3854  02B6  1903               	skipnz
  3855  02B7  0AF8               	incf	___awdiv@quotient+1,f
  3856  02B8                     l3098:
  3857  02B8  0878               	movf	___awdiv@quotient+1,w
  3858  02B9  00F1               	movwf	?___awdiv+1
  3859  02BA  0877               	movf	___awdiv@quotient,w
  3860  02BB  00F0               	movwf	?___awdiv
  3861  02BC                     l977:
  3862  02BC  0008               	return
  3863  02BD                     __end_of___awdiv:
  3864                           
  3865                           	psect	text7
  3866  0F3B                     __ptext7:	
  3867 ;; *************** function _SYSTEM_Initialize *****************
  3868 ;; Defined at:
  3869 ;;		line 50 in file "mcc_generated_files/mcc.c"
  3870 ;; Parameters:    Size  Location     Type
  3871 ;;		None
  3872 ;; Auto vars:     Size  Location     Type
  3873 ;;		None
  3874 ;; Return value:  Size  Location     Type
  3875 ;;                  1    wreg      void 
  3876 ;; Registers used:
  3877 ;;		wreg, status,2, status,0, pclath, cstack
  3878 ;; Tracked objects:
  3879 ;;		On entry : 0/0
  3880 ;;		On exit  : 0/0
  3881 ;;		Unchanged: 0/0
  3882 ;; Data sizes:     COMMON   BANK0   BANK1   BANK2   BANK3   BANK4
  3883 ;;      Params:         0       0       0       0       0       0
  3884 ;;      Locals:         0       0       0       0       0       0
  3885 ;;      Temps:          0       0       0       0       0       0
  3886 ;;      Totals:         0       0       0       0       0       0
  3887 ;;Total ram usage:        0 bytes
  3888 ;; Hardware stack levels used: 1
  3889 ;; Hardware stack levels required when called: 1
  3890 ;; This function calls:
  3891 ;;		_ADC_Initialize
  3892 ;;		_I2C1_Initialize
  3893 ;;		_OSCILLATOR_Initialize
  3894 ;;		_PIN_MANAGER_Initialize
  3895 ;;		_WDT_Initialize
  3896 ;; This function is called by:
  3897 ;;		_main
  3898 ;; This function uses a non-reentrant model
  3899 ;;
  3900                           
  3901  0F3B                     _SYSTEM_Initialize:	
  3902                           ;psect for function _SYSTEM_Initialize
  3903                           
  3904  0F3B                     l2986:	
  3905                           ;incstack = 0
  3906                           ; Regs used in _SYSTEM_Initialize: [wreg+status,2+status,0+pclath+cstack]
  3907                           
  3908                           
  3909                           ;mcc_generated_files/mcc.c: 53:     I2C1_Initialize();
  3910  0F3B  318E  26DE  318F   	fcall	_I2C1_Initialize
  3911                           
  3912                           ;mcc_generated_files/mcc.c: 54:     PIN_MANAGER_Initialize();
  3913  0F3E  3180  2004  318F   	fcall	_PIN_MANAGER_Initialize
  3914                           
  3915                           ;mcc_generated_files/mcc.c: 55:     OSCILLATOR_Initialize();
  3916  0F41  318E  26BE  318F   	fcall	_OSCILLATOR_Initialize
  3917                           
  3918                           ;mcc_generated_files/mcc.c: 56:     WDT_Initialize();
  3919  0F44  318E  266A  318F   	fcall	_WDT_Initialize
  3920                           
  3921                           ;mcc_generated_files/mcc.c: 57:     ADC_Initialize();
  3922  0F47  318E  26CD  318F   	fcall	_ADC_Initialize
  3923  0F4A                     l151:
  3924  0F4A  0008               	return
  3925  0F4B                     __end_of_SYSTEM_Initialize:
  3926                           
  3927                           	psect	text8
  3928  0E6A                     __ptext8:	
  3929 ;; *************** function _WDT_Initialize *****************
  3930 ;; Defined at:
  3931 ;;		line 70 in file "mcc_generated_files/mcc.c"
  3932 ;; Parameters:    Size  Location     Type
  3933 ;;		None
  3934 ;; Auto vars:     Size  Location     Type
  3935 ;;		None
  3936 ;; Return value:  Size  Location     Type
  3937 ;;                  1    wreg      void 
  3938 ;; Registers used:
  3939 ;;		wreg
  3940 ;; Tracked objects:
  3941 ;;		On entry : 0/0
  3942 ;;		On exit  : 0/0
  3943 ;;		Unchanged: 0/0
  3944 ;; Data sizes:     COMMON   BANK0   BANK1   BANK2   BANK3   BANK4
  3945 ;;      Params:         0       0       0       0       0       0
  3946 ;;      Locals:         0       0       0       0       0       0
  3947 ;;      Temps:          0       0       0       0       0       0
  3948 ;;      Totals:         0       0       0       0       0       0
  3949 ;;Total ram usage:        0 bytes
  3950 ;; Hardware stack levels used: 1
  3951 ;; This function calls:
  3952 ;;		Nothing
  3953 ;; This function is called by:
  3954 ;;		_SYSTEM_Initialize
  3955 ;; This function uses a non-reentrant model
  3956 ;;
  3957                           
  3958  0E6A                     _WDT_Initialize:	
  3959                           ;psect for function _WDT_Initialize
  3960                           
  3961  0E6A                     l2954:	
  3962                           ;incstack = 0
  3963                           ; Regs used in _WDT_Initialize: [wreg]
  3964                           
  3965                           
  3966                           ;mcc_generated_files/mcc.c: 73:     WDTCON = 0x16;
  3967  0E6A  3016               	movlw	22
  3968  0E6B  0021               	movlb	1	; select bank1
  3969  0E6C  0097               	movwf	23	;volatile
  3970  0E6D                     l157:
  3971  0E6D  0008               	return
  3972  0E6E                     __end_of_WDT_Initialize:
  3973                           
  3974                           	psect	text9
  3975  0004                     __ptext9:	
  3976 ;; *************** function _PIN_MANAGER_Initialize *****************
  3977 ;; Defined at:
  3978 ;;		line 55 in file "mcc_generated_files/pin_manager.c"
  3979 ;; Parameters:    Size  Location     Type
  3980 ;;		None
  3981 ;; Auto vars:     Size  Location     Type
  3982 ;;		None
  3983 ;; Return value:  Size  Location     Type
  3984 ;;                  1    wreg      void 
  3985 ;; Registers used:
  3986 ;;		wreg, status,2
  3987 ;; Tracked objects:
  3988 ;;		On entry : 0/0
  3989 ;;		On exit  : 0/0
  3990 ;;		Unchanged: 0/0
  3991 ;; Data sizes:     COMMON   BANK0   BANK1   BANK2   BANK3   BANK4
  3992 ;;      Params:         0       0       0       0       0       0
  3993 ;;      Locals:         0       0       0       0       0       0
  3994 ;;      Temps:          0       0       0       0       0       0
  3995 ;;      Totals:         0       0       0       0       0       0
  3996 ;;Total ram usage:        0 bytes
  3997 ;; Hardware stack levels used: 1
  3998 ;; This function calls:
  3999 ;;		Nothing
  4000 ;; This function is called by:
  4001 ;;		_SYSTEM_Initialize
  4002 ;; This function uses a non-reentrant model
  4003 ;;
  4004                           
  4005  0004                     _PIN_MANAGER_Initialize:	
  4006                           ;psect for function _PIN_MANAGER_Initialize
  4007                           
  4008  0004                     l2922:	
  4009                           ;incstack = 0
  4010                           ; Regs used in _PIN_MANAGER_Initialize: [wreg+status,2]
  4011                           
  4012                           
  4013                           ;mcc_generated_files/pin_manager.c: 60:     LATA = 0x00;
  4014  0004  0022               	movlb	2	; select bank2
  4015  0005  018C               	clrf	12	;volatile
  4016                           
  4017                           ;mcc_generated_files/pin_manager.c: 61:     LATB = 0x00;
  4018  0006  018D               	clrf	13	;volatile
  4019  0007                     l2924:
  4020                           
  4021                           ;mcc_generated_files/pin_manager.c: 66:     TRISA = 0xFF;
  4022  0007  30FF               	movlw	255
  4023  0008  0021               	movlb	1	; select bank1
  4024  0009  008C               	movwf	12	;volatile
  4025  000A                     l2926:
  4026                           
  4027                           ;mcc_generated_files/pin_manager.c: 67:     TRISB = 0x13;
  4028  000A  3013               	movlw	19
  4029  000B  008D               	movwf	13	;volatile
  4030                           
  4031                           ;mcc_generated_files/pin_manager.c: 72:     ANSELB = 0x00;
  4032  000C  0023               	movlb	3	; select bank3
  4033  000D  018D               	clrf	13	;volatile
  4034  000E                     l2928:
  4035                           
  4036                           ;mcc_generated_files/pin_manager.c: 73:     ANSELA = 0x1F;
  4037  000E  301F               	movlw	31
  4038  000F  008C               	movwf	12	;volatile
  4039  0010                     l2930:
  4040                           
  4041                           ;mcc_generated_files/pin_manager.c: 78:     WPUB = 0x00;
  4042  0010  0024               	movlb	4	; select bank4
  4043  0011  018D               	clrf	13	;volatile
  4044  0012                     l2932:
  4045                           
  4046                           ;mcc_generated_files/pin_manager.c: 79:     WPUA = 0x00;
  4047  0012  018C               	clrf	12	;volatile
  4048  0013                     l2934:
  4049                           
  4050                           ;mcc_generated_files/pin_manager.c: 80:     OPTION_REGbits.nWPUEN = 1;
  4051  0013  0021               	movlb	1	; select bank1
  4052  0014  1795               	bsf	21,7	;volatile
  4053  0015                     l2936:
  4054                           
  4055                           ;mcc_generated_files/pin_manager.c: 86:     APFCON0 = 0x00;
  4056  0015  0022               	movlb	2	; select bank2
  4057  0016  019D               	clrf	29	;volatile
  4058  0017                     l2938:
  4059                           
  4060                           ;mcc_generated_files/pin_manager.c: 87:     APFCON1 = 0x00;
  4061  0017  019E               	clrf	30	;volatile
  4062  0018                     l127:
  4063  0018  0008               	return
  4064  0019                     __end_of_PIN_MANAGER_Initialize:
  4065                           
  4066                           	psect	text10
  4067  0EBE                     __ptext10:	
  4068 ;; *************** function _OSCILLATOR_Initialize *****************
  4069 ;; Defined at:
  4070 ;;		line 60 in file "mcc_generated_files/mcc.c"
  4071 ;; Parameters:    Size  Location     Type
  4072 ;;		None
  4073 ;; Auto vars:     Size  Location     Type
  4074 ;;		None
  4075 ;; Return value:  Size  Location     Type
  4076 ;;                  1    wreg      void 
  4077 ;; Registers used:
  4078 ;;		wreg, status,2
  4079 ;; Tracked objects:
  4080 ;;		On entry : 0/0
  4081 ;;		On exit  : 0/0
  4082 ;;		Unchanged: 0/0
  4083 ;; Data sizes:     COMMON   BANK0   BANK1   BANK2   BANK3   BANK4
  4084 ;;      Params:         0       0       0       0       0       0
  4085 ;;      Locals:         0       0       0       0       0       0
  4086 ;;      Temps:          0       0       0       0       0       0
  4087 ;;      Totals:         0       0       0       0       0       0
  4088 ;;Total ram usage:        0 bytes
  4089 ;; Hardware stack levels used: 1
  4090 ;; This function calls:
  4091 ;;		Nothing
  4092 ;; This function is called by:
  4093 ;;		_SYSTEM_Initialize
  4094 ;; This function uses a non-reentrant model
  4095 ;;
  4096                           
  4097  0EBE                     _OSCILLATOR_Initialize:	
  4098                           ;psect for function _OSCILLATOR_Initialize
  4099                           
  4100  0EBE                     l2948:	
  4101                           ;incstack = 0
  4102                           ; Regs used in _OSCILLATOR_Initialize: [wreg+status,2]
  4103                           
  4104                           
  4105                           ;mcc_generated_files/mcc.c: 63:     OSCCON = 0x72;
  4106  0EBE  3072               	movlw	114
  4107  0EBF  0021               	movlb	1	; select bank1
  4108  0EC0  0099               	movwf	25	;volatile
  4109  0EC1                     l2950:
  4110                           
  4111                           ;mcc_generated_files/mcc.c: 65:     OSCTUNE = 0x00;
  4112  0EC1  0198               	clrf	24	;volatile
  4113  0EC2                     l2952:
  4114                           
  4115                           ;mcc_generated_files/mcc.c: 67:     BORCON = 0x00;
  4116  0EC2  0022               	movlb	2	; select bank2
  4117  0EC3  0196               	clrf	22	;volatile
  4118  0EC4                     l154:
  4119  0EC4  0008               	return
  4120  0EC5                     __end_of_OSCILLATOR_Initialize:
  4121                           
  4122                           	psect	text11
  4123  0EDE                     __ptext11:	
  4124 ;; *************** function _I2C1_Initialize *****************
  4125 ;; Defined at:
  4126 ;;		line 167 in file "mcc_generated_files/i2c1_master.c"
  4127 ;; Parameters:    Size  Location     Type
  4128 ;;		None
  4129 ;; Auto vars:     Size  Location     Type
  4130 ;;		None
  4131 ;; Return value:  Size  Location     Type
  4132 ;;                  1    wreg      void 
  4133 ;; Registers used:
  4134 ;;		wreg, status,2
  4135 ;; Tracked objects:
  4136 ;;		On entry : 0/0
  4137 ;;		On exit  : 0/0
  4138 ;;		Unchanged: 0/0
  4139 ;; Data sizes:     COMMON   BANK0   BANK1   BANK2   BANK3   BANK4
  4140 ;;      Params:         0       0       0       0       0       0
  4141 ;;      Locals:         0       0       0       0       0       0
  4142 ;;      Temps:          0       0       0       0       0       0
  4143 ;;      Totals:         0       0       0       0       0       0
  4144 ;;Total ram usage:        0 bytes
  4145 ;; Hardware stack levels used: 1
  4146 ;; This function calls:
  4147 ;;		Nothing
  4148 ;; This function is called by:
  4149 ;;		_SYSTEM_Initialize
  4150 ;; This function uses a non-reentrant model
  4151 ;;
  4152                           
  4153  0EDE                     _I2C1_Initialize:	
  4154                           ;psect for function _I2C1_Initialize
  4155                           
  4156  0EDE                     l2940:	
  4157                           ;incstack = 0
  4158                           ; Regs used in _I2C1_Initialize: [wreg+status,2]
  4159                           
  4160                           
  4161                           ;mcc_generated_files/i2c1_master.c: 169:     SSP1STAT = 0x00;
  4162  0EDE  0024               	movlb	4	; select bank4
  4163  0EDF  0194               	clrf	20	;volatile
  4164  0EE0                     l2942:
  4165                           
  4166                           ;mcc_generated_files/i2c1_master.c: 170:     SSP1CON1 = 0x08;
  4167  0EE0  3008               	movlw	8
  4168  0EE1  0095               	movwf	21	;volatile
  4169  0EE2                     l2944:
  4170                           
  4171                           ;mcc_generated_files/i2c1_master.c: 171:     SSP1CON2 = 0x00;
  4172  0EE2  0196               	clrf	22	;volatile
  4173                           
  4174                           ;mcc_generated_files/i2c1_master.c: 172:     SSP1ADD = 0x13;
  4175  0EE3  3013               	movlw	19
  4176  0EE4  0092               	movwf	18	;volatile
  4177  0EE5                     l2946:
  4178                           
  4179                           ;mcc_generated_files/i2c1_master.c: 173:     SSP1CON1bits.SSPEN = 0;
  4180  0EE5  1295               	bcf	21,5	;volatile
  4181  0EE6                     l302:
  4182  0EE6  0008               	return
  4183  0EE7                     __end_of_I2C1_Initialize:
  4184                           
  4185                           	psect	text12
  4186  0ECD                     __ptext12:	
  4187 ;; *************** function _ADC_Initialize *****************
  4188 ;; Defined at:
  4189 ;;		line 67 in file "mcc_generated_files/adc.c"
  4190 ;; Parameters:    Size  Location     Type
  4191 ;;		None
  4192 ;; Auto vars:     Size  Location     Type
  4193 ;;		None
  4194 ;; Return value:  Size  Location     Type
  4195 ;;                  1    wreg      void 
  4196 ;; Registers used:
  4197 ;;		wreg, status,2
  4198 ;; Tracked objects:
  4199 ;;		On entry : 0/0
  4200 ;;		On exit  : 0/0
  4201 ;;		Unchanged: 0/0
  4202 ;; Data sizes:     COMMON   BANK0   BANK1   BANK2   BANK3   BANK4
  4203 ;;      Params:         0       0       0       0       0       0
  4204 ;;      Locals:         0       0       0       0       0       0
  4205 ;;      Temps:          0       0       0       0       0       0
  4206 ;;      Totals:         0       0       0       0       0       0
  4207 ;;Total ram usage:        0 bytes
  4208 ;; Hardware stack levels used: 1
  4209 ;; This function calls:
  4210 ;;		Nothing
  4211 ;; This function is called by:
  4212 ;;		_SYSTEM_Initialize
  4213 ;;		_main
  4214 ;; This function uses a non-reentrant model
  4215 ;;
  4216                           
  4217  0ECD                     _ADC_Initialize:	
  4218                           ;psect for function _ADC_Initialize
  4219                           
  4220  0ECD                     l2956:	
  4221                           ;incstack = 0
  4222                           ; Regs used in _ADC_Initialize: [wreg+status,2]
  4223                           
  4224                           
  4225                           ;mcc_generated_files/adc.c: 72:     ADCON1 = 0x10;
  4226  0ECD  3010               	movlw	16
  4227  0ECE  0021               	movlb	1	; select bank1
  4228  0ECF  009E               	movwf	30	;volatile
  4229  0ED0                     l2958:
  4230                           
  4231                           ;mcc_generated_files/adc.c: 75:     ADRESL = 0x00;
  4232  0ED0  019B               	clrf	27	;volatile
  4233  0ED1                     l2960:
  4234                           
  4235                           ;mcc_generated_files/adc.c: 78:     ADRESH = 0x00;
  4236  0ED1  019C               	clrf	28	;volatile
  4237                           
  4238                           ;mcc_generated_files/adc.c: 81:     ADCON0 = 0x01;
  4239  0ED2  3001               	movlw	1
  4240  0ED3  009D               	movwf	29	;volatile
  4241  0ED4                     l174:
  4242  0ED4  0008               	return
  4243  0ED5                     __end_of_ADC_Initialize:
  4244                           
  4245                           	psect	text13
  4246  0332                     __ptext13:	
  4247 ;; *************** function _LCD_Init *****************
  4248 ;; Defined at:
  4249 ;;		line 14 in file "./LCD2004a.c"
  4250 ;; Parameters:    Size  Location     Type
  4251 ;;  I2C_Add         1    wreg     unsigned char 
  4252 ;; Auto vars:     Size  Location     Type
  4253 ;;  I2C_Add         1   19[BANK0 ] unsigned char 
  4254 ;; Return value:  Size  Location     Type
  4255 ;;                  1    wreg      void 
  4256 ;; Registers used:
  4257 ;;		wreg, fsr0l, fsr0h, fsr1l, fsr1h, status,2, status,0, pclath, cstack
  4258 ;; Tracked objects:
  4259 ;;		On entry : 0/0
  4260 ;;		On exit  : 0/0
  4261 ;;		Unchanged: 0/0
  4262 ;; Data sizes:     COMMON   BANK0   BANK1   BANK2   BANK3   BANK4
  4263 ;;      Params:         0       0       0       0       0       0
  4264 ;;      Locals:         0       1       0       0       0       0
  4265 ;;      Temps:          0       2       0       0       0       0
  4266 ;;      Totals:         0       3       0       0       0       0
  4267 ;;Total ram usage:        3 bytes
  4268 ;; Hardware stack levels used: 1
  4269 ;; Hardware stack levels required when called: 13
  4270 ;; This function calls:
  4271 ;;		_IO_Expander_Write
  4272 ;;		_LCD_CMD
  4273 ;;		_LCD_Write_4Bit
  4274 ;; This function is called by:
  4275 ;;		_main
  4276 ;; This function uses a non-reentrant model
  4277 ;;
  4278                           
  4279  0332                     _LCD_Init:	
  4280                           ;psect for function _LCD_Init
  4281                           
  4282                           
  4283                           ;incstack = 0
  4284                           ; Regs used in _LCD_Init: [wreg-fsr1h+status,2+status,0+pclath+cstack]
  4285                           ;LCD_Init@I2C_Add stored from wreg
  4286  0332  0020               	movlb	0	; select bank0
  4287  0333  00B3               	movwf	LCD_Init@I2C_Add
  4288  0334                     l2990:
  4289                           
  4290                           ;./LCD2004a.c: 14: void LCD_Init(unsigned char I2C_Add);./LCD2004a.c: 15: {;./LCD2004a.c
      +                          : 16:   i2c_add = I2C_Add;
  4291  0334  0833               	movf	LCD_Init@I2C_Add,w
  4292  0335  00B1               	movwf	??_LCD_Init
  4293  0336  0831               	movf	??_LCD_Init,w
  4294  0337  00E1               	movwf	_i2c_add
  4295                           
  4296                           ;./LCD2004a.c: 17:   _delay((unsigned long)((50)*(8000000/4000.0)));
  4297  0338  3082               	movlw	130
  4298  0339  0020               	movlb	0	; select bank0
  4299  033A  00B1               	movwf	??_LCD_Init
  4300  033B  30DD               	movlw	221
  4301  033C                     u2307:
  4302  033C  0B89               	decfsz	9,f
  4303  033D  2B3C               	goto	u2307
  4304  033E  0BB1               	decfsz	??_LCD_Init,f
  4305  033F  2B3C               	goto	u2307
  4306  0340  3200               	nop2
  4307  0341                     l2992:
  4308                           
  4309                           ;./LCD2004a.c: 18:   IO_Expander_Write(0x00);
  4310  0341  3000               	movlw	0
  4311  0342  318F  27A2  3183   	fcall	_IO_Expander_Write
  4312  0345                     l2994:
  4313                           
  4314                           ;./LCD2004a.c: 19:   _delay((unsigned long)((99)*(8000000/4000.0)));
  4315  0345  3002               	movlw	2
  4316  0346  0020               	movlb	0	; select bank0
  4317  0347  00B2               	movwf	??_LCD_Init+1
  4318  0348  3002               	movlw	2
  4319  0349  00B1               	movwf	??_LCD_Init
  4320  034A  3021               	movlw	33
  4321  034B                     u2317:
  4322  034B  0B89               	decfsz	9,f
  4323  034C  2B4B               	goto	u2317
  4324  034D  0BB1               	decfsz	??_LCD_Init,f
  4325  034E  2B4B               	goto	u2317
  4326  034F  0BB2               	decfsz	??_LCD_Init+1,f
  4327  0350  2B4B               	goto	u2317
  4328  0351                     l2996:
  4329                           
  4330                           ;./LCD2004a.c: 21:   RS = 0;
  4331  0351  0020               	movlb	0	; select bank0
  4332  0352  01E0               	clrf	_RS
  4333  0353                     l2998:
  4334                           
  4335                           ;./LCD2004a.c: 22:   LCD_Write_4Bit(0x03 << 4);
  4336  0353  3030               	movlw	48
  4337  0354  318F  272B  3183   	fcall	_LCD_Write_4Bit
  4338  0357                     l3000:
  4339                           
  4340                           ;./LCD2004a.c: 23:   _delay((unsigned long)((4500)*(8000000/4000000.0)));
  4341  0357  300C               	movlw	12
  4342  0358  0020               	movlb	0	; select bank0
  4343  0359  00B1               	movwf	??_LCD_Init
  4344  035A  30AF               	movlw	175
  4345  035B                     u2327:
  4346  035B  0B89               	decfsz	9,f
  4347  035C  2B5B               	goto	u2327
  4348  035D  0BB1               	decfsz	??_LCD_Init,f
  4349  035E  2B5B               	goto	u2327
  4350  035F                     l3002:
  4351                           
  4352                           ;./LCD2004a.c: 25:    LCD_Write_4Bit(0x03 << 4);
  4353  035F  3030               	movlw	48
  4354  0360  318F  272B  3183   	fcall	_LCD_Write_4Bit
  4355  0363                     l3004:
  4356                           
  4357                           ;./LCD2004a.c: 26:   _delay((unsigned long)((4500)*(8000000/4000000.0)));
  4358  0363  300C               	movlw	12
  4359  0364  0020               	movlb	0	; select bank0
  4360  0365  00B1               	movwf	??_LCD_Init
  4361  0366  30AF               	movlw	175
  4362  0367                     u2337:
  4363  0367  0B89               	decfsz	9,f
  4364  0368  2B67               	goto	u2337
  4365  0369  0BB1               	decfsz	??_LCD_Init,f
  4366  036A  2B67               	goto	u2337
  4367  036B                     l3006:
  4368                           
  4369                           ;./LCD2004a.c: 28:    LCD_Write_4Bit(0x03 << 4);
  4370  036B  3030               	movlw	48
  4371  036C  318F  272B  3183   	fcall	_LCD_Write_4Bit
  4372  036F                     l3008:
  4373                           
  4374                           ;./LCD2004a.c: 29:   _delay((unsigned long)((150)*(8000000/4000000.0)));
  4375  036F  3064               	movlw	100
  4376  0370                     u2347:
  4377  0370  0B89               	decfsz	9,f
  4378  0371  2B70               	goto	u2347
  4379  0372                     l3010:
  4380                           
  4381                           ;./LCD2004a.c: 31:    LCD_Write_4Bit(0x02 << 4);
  4382  0372  3020               	movlw	32
  4383  0373  318F  272B  3183   	fcall	_LCD_Write_4Bit
  4384  0376                     l3012:
  4385                           
  4386                           ;./LCD2004a.c: 32:   _delay((unsigned long)((150)*(8000000/4000000.0)));
  4387  0376  3064               	movlw	100
  4388  0377                     u2357:
  4389  0377  0B89               	decfsz	9,f
  4390  0378  2B77               	goto	u2357
  4391  0379                     l3014:
  4392                           
  4393                           ;./LCD2004a.c: 34:   LCD_CMD(0x02);
  4394  0379  3002               	movlw	2
  4395  037A  318F  27B6  3183   	fcall	_LCD_CMD
  4396  037D                     l3016:
  4397                           
  4398                           ;./LCD2004a.c: 35:   _delay((unsigned long)((5)*(8000000/4000.0)));
  4399  037D  300D               	movlw	13
  4400  037E  0020               	movlb	0	; select bank0
  4401  037F  00B1               	movwf	??_LCD_Init
  4402  0380  30FB               	movlw	251
  4403  0381                     u2367:
  4404  0381  0B89               	decfsz	9,f
  4405  0382  2B81               	goto	u2367
  4406  0383  0BB1               	decfsz	??_LCD_Init,f
  4407  0384  2B81               	goto	u2367
  4408  0385  3200               	nop2
  4409  0386                     l3018:
  4410                           
  4411                           ;./LCD2004a.c: 36:   LCD_CMD(0x20 | (2 << 2));
  4412  0386  3028               	movlw	40
  4413  0387  318F  27B6  3183   	fcall	_LCD_CMD
  4414  038A                     l3020:
  4415                           
  4416                           ;./LCD2004a.c: 37:   _delay((unsigned long)((50)*(8000000/4000.0)));
  4417  038A  3082               	movlw	130
  4418  038B  0020               	movlb	0	; select bank0
  4419  038C  00B1               	movwf	??_LCD_Init
  4420  038D  30DD               	movlw	221
  4421  038E                     u2377:
  4422  038E  0B89               	decfsz	9,f
  4423  038F  2B8E               	goto	u2377
  4424  0390  0BB1               	decfsz	??_LCD_Init,f
  4425  0391  2B8E               	goto	u2377
  4426  0392  3200               	nop2
  4427  0393                     l3022:
  4428                           
  4429                           ;./LCD2004a.c: 38:   LCD_CMD(0x0C);
  4430  0393  300C               	movlw	12
  4431  0394  318F  27B6  3183   	fcall	_LCD_CMD
  4432  0397                     l3024:
  4433                           
  4434                           ;./LCD2004a.c: 39:   _delay((unsigned long)((50)*(8000000/4000.0)));
  4435  0397  3082               	movlw	130
  4436  0398  0020               	movlb	0	; select bank0
  4437  0399  00B1               	movwf	??_LCD_Init
  4438  039A  30DD               	movlw	221
  4439  039B                     u2387:
  4440  039B  0B89               	decfsz	9,f
  4441  039C  2B9B               	goto	u2387
  4442  039D  0BB1               	decfsz	??_LCD_Init,f
  4443  039E  2B9B               	goto	u2387
  4444  039F  3200               	nop2
  4445  03A0                     l3026:
  4446                           
  4447                           ;./LCD2004a.c: 40:   LCD_CMD(0x01);
  4448  03A0  3001               	movlw	1
  4449  03A1  318F  27B6  3183   	fcall	_LCD_CMD
  4450  03A4                     l3028:
  4451                           
  4452                           ;./LCD2004a.c: 41:   _delay((unsigned long)((50)*(8000000/4000.0)));
  4453  03A4  3082               	movlw	130
  4454  03A5  0020               	movlb	0	; select bank0
  4455  03A6  00B1               	movwf	??_LCD_Init
  4456  03A7  30DD               	movlw	221
  4457  03A8                     u2397:
  4458  03A8  0B89               	decfsz	9,f
  4459  03A9  2BA8               	goto	u2397
  4460  03AA  0BB1               	decfsz	??_LCD_Init,f
  4461  03AB  2BA8               	goto	u2397
  4462  03AC  3200               	nop2
  4463  03AD                     l3030:
  4464                           
  4465                           ;./LCD2004a.c: 42:   LCD_CMD(0x04 | 0x02);
  4466  03AD  3006               	movlw	6
  4467  03AE  318F  27B6  3183   	fcall	_LCD_CMD
  4468  03B1                     l3032:
  4469                           
  4470                           ;./LCD2004a.c: 43:   _delay((unsigned long)((50)*(8000000/4000.0)));
  4471  03B1  3082               	movlw	130
  4472  03B2  0020               	movlb	0	; select bank0
  4473  03B3  00B1               	movwf	??_LCD_Init
  4474  03B4  30DD               	movlw	221
  4475  03B5                     u2407:
  4476  03B5  0B89               	decfsz	9,f
  4477  03B6  2BB5               	goto	u2407
  4478  03B7  0BB1               	decfsz	??_LCD_Init,f
  4479  03B8  2BB5               	goto	u2407
  4480  03B9  3200               	nop2
  4481  03BA                     l563:
  4482  03BA  0008               	return
  4483  03BB                     __end_of_LCD_Init:
  4484                           
  4485                           	psect	text14
  4486  0FB6                     __ptext14:	
  4487 ;; *************** function _LCD_CMD *****************
  4488 ;; Defined at:
  4489 ;;		line 68 in file "./LCD2004a.c"
  4490 ;; Parameters:    Size  Location     Type
  4491 ;;  CMD             1    wreg     unsigned char 
  4492 ;; Auto vars:     Size  Location     Type
  4493 ;;  CMD             1   16[BANK0 ] unsigned char 
  4494 ;; Return value:  Size  Location     Type
  4495 ;;                  1    wreg      void 
  4496 ;; Registers used:
  4497 ;;		wreg, fsr0l, fsr0h, fsr1l, fsr1h, status,2, status,0, pclath, cstack
  4498 ;; Tracked objects:
  4499 ;;		On entry : 0/0
  4500 ;;		On exit  : 0/0
  4501 ;;		Unchanged: 0/0
  4502 ;; Data sizes:     COMMON   BANK0   BANK1   BANK2   BANK3   BANK4
  4503 ;;      Params:         0       0       0       0       0       0
  4504 ;;      Locals:         0       1       0       0       0       0
  4505 ;;      Temps:          0       1       0       0       0       0
  4506 ;;      Totals:         0       2       0       0       0       0
  4507 ;;Total ram usage:        2 bytes
  4508 ;; Hardware stack levels used: 1
  4509 ;; Hardware stack levels required when called: 12
  4510 ;; This function calls:
  4511 ;;		_LCD_Write_4Bit
  4512 ;; This function is called by:
  4513 ;;		_LCD_Init
  4514 ;;		_LCD_Set_Cursor
  4515 ;;		_LCD_SL
  4516 ;;		_LCD_SR
  4517 ;;		_LCD_Clear
  4518 ;; This function uses a non-reentrant model
  4519 ;;
  4520                           
  4521  0FB6                     _LCD_CMD:	
  4522                           ;psect for function _LCD_CMD
  4523                           
  4524                           
  4525                           ;incstack = 0
  4526                           ; Regs used in _LCD_CMD: [wreg-fsr1h+status,2+status,0+pclath+cstack]
  4527                           ;LCD_CMD@CMD stored from wreg
  4528  0FB6  0020               	movlb	0	; select bank0
  4529  0FB7  00B0               	movwf	LCD_CMD@CMD
  4530  0FB8                     l2962:
  4531                           
  4532                           ;./LCD2004a.c: 68: void LCD_CMD(unsigned char CMD);./LCD2004a.c: 69: {;./LCD2004a.c: 70:
      +                             RS = 0;
  4533  0FB8  01E0               	clrf	_RS
  4534  0FB9                     l2964:
  4535                           
  4536                           ;./LCD2004a.c: 71:   LCD_Write_4Bit(CMD & 0xF0);
  4537  0FB9  0830               	movf	LCD_CMD@CMD,w
  4538  0FBA  39F0               	andlw	240
  4539  0FBB  318F  272B  318F   	fcall	_LCD_Write_4Bit
  4540  0FBE                     l2966:
  4541                           
  4542                           ;./LCD2004a.c: 72:   LCD_Write_4Bit((CMD << 4) & 0xF0);
  4543  0FBE  0020               	movlb	0	; select bank0
  4544  0FBF  0830               	movf	LCD_CMD@CMD,w
  4545  0FC0  00AF               	movwf	??_LCD_CMD
  4546  0FC1  3003               	movlw	3
  4547  0FC2                     u1325:
  4548  0FC2  35AF               	lslf	??_LCD_CMD,f
  4549  0FC3  3EFF               	addlw	-1
  4550  0FC4  1D03               	skipz
  4551  0FC5  2FC2               	goto	u1325
  4552  0FC6  352F               	lslf	??_LCD_CMD,w
  4553  0FC7  39F0               	andlw	240
  4554  0FC8  318F  272B  318F   	fcall	_LCD_Write_4Bit
  4555  0FCB                     l575:
  4556  0FCB  0008               	return
  4557  0FCC                     __end_of_LCD_CMD:
  4558                           
  4559                           	psect	text15
  4560  0F2B                     __ptext15:	
  4561 ;; *************** function _LCD_Write_4Bit *****************
  4562 ;; Defined at:
  4563 ;;		line 61 in file "./LCD2004a.c"
  4564 ;; Parameters:    Size  Location     Type
  4565 ;;  Data            1    wreg     unsigned char 
  4566 ;; Auto vars:     Size  Location     Type
  4567 ;;  Data            1   14[BANK0 ] unsigned char 
  4568 ;; Return value:  Size  Location     Type
  4569 ;;                  1    wreg      void 
  4570 ;; Registers used:
  4571 ;;		wreg, fsr0l, fsr0h, fsr1l, fsr1h, status,2, status,0, pclath, cstack
  4572 ;; Tracked objects:
  4573 ;;		On entry : 0/0
  4574 ;;		On exit  : 0/0
  4575 ;;		Unchanged: 0/0
  4576 ;; Data sizes:     COMMON   BANK0   BANK1   BANK2   BANK3   BANK4
  4577 ;;      Params:         0       0       0       0       0       0
  4578 ;;      Locals:         0       1       0       0       0       0
  4579 ;;      Temps:          0       1       0       0       0       0
  4580 ;;      Totals:         0       2       0       0       0       0
  4581 ;;Total ram usage:        2 bytes
  4582 ;; Hardware stack levels used: 1
  4583 ;; Hardware stack levels required when called: 11
  4584 ;; This function calls:
  4585 ;;		_IO_Expander_Write
  4586 ;;		_IO_pulseEnable
  4587 ;; This function is called by:
  4588 ;;		_LCD_Init
  4589 ;;		_LCD_CMD
  4590 ;;		_LCD_Write_Char
  4591 ;; This function uses a non-reentrant model
  4592 ;;
  4593                           
  4594  0F2B                     _LCD_Write_4Bit:	
  4595                           ;psect for function _LCD_Write_4Bit
  4596                           
  4597                           
  4598                           ;incstack = 0
  4599                           ; Regs used in _LCD_Write_4Bit: [wreg-fsr1h+status,2+status,0+pclath+cstack]
  4600                           ;LCD_Write_4Bit@Data stored from wreg
  4601  0F2B  0020               	movlb	0	; select bank0
  4602  0F2C  00AE               	movwf	LCD_Write_4Bit@Data
  4603  0F2D                     l2916:
  4604                           
  4605                           ;./LCD2004a.c: 61: void LCD_Write_4Bit(unsigned char Data);./LCD2004a.c: 62: {;./LCD2004
      +                          a.c: 64:   Data |= RS;
  4606  0F2D  0860               	movf	_RS,w
  4607  0F2E  00AD               	movwf	??_LCD_Write_4Bit
  4608  0F2F  082D               	movf	??_LCD_Write_4Bit,w
  4609  0F30  04AE               	iorwf	LCD_Write_4Bit@Data,f
  4610  0F31                     l2918:
  4611                           
  4612                           ;./LCD2004a.c: 65:   IO_Expander_Write(Data);
  4613  0F31  082E               	movf	LCD_Write_4Bit@Data,w
  4614  0F32  318F  27A2  318F   	fcall	_IO_Expander_Write
  4615  0F35                     l2920:
  4616                           
  4617                           ;./LCD2004a.c: 66:   IO_pulseEnable(Data);
  4618  0F35  0020               	movlb	0	; select bank0
  4619  0F36  082E               	movf	LCD_Write_4Bit@Data,w
  4620  0F37  318F  278F  318F   	fcall	_IO_pulseEnable
  4621  0F3A                     l572:
  4622  0F3A  0008               	return
  4623  0F3B                     __end_of_LCD_Write_4Bit:
  4624                           
  4625                           	psect	text16
  4626  0F8F                     __ptext16:	
  4627 ;; *************** function _IO_pulseEnable *****************
  4628 ;; Defined at:
  4629 ;;		line 54 in file "./LCD2004a.c"
  4630 ;; Parameters:    Size  Location     Type
  4631 ;;  Data            1    wreg     unsigned char 
  4632 ;; Auto vars:     Size  Location     Type
  4633 ;;  Data            1   12[BANK0 ] unsigned char 
  4634 ;; Return value:  Size  Location     Type
  4635 ;;                  1    wreg      void 
  4636 ;; Registers used:
  4637 ;;		wreg, fsr0l, fsr0h, fsr1l, fsr1h, status,2, status,0, pclath, cstack
  4638 ;; Tracked objects:
  4639 ;;		On entry : 0/0
  4640 ;;		On exit  : 0/0
  4641 ;;		Unchanged: 0/0
  4642 ;; Data sizes:     COMMON   BANK0   BANK1   BANK2   BANK3   BANK4
  4643 ;;      Params:         0       0       0       0       0       0
  4644 ;;      Locals:         0       1       0       0       0       0
  4645 ;;      Temps:          0       0       0       0       0       0
  4646 ;;      Totals:         0       1       0       0       0       0
  4647 ;;Total ram usage:        1 bytes
  4648 ;; Hardware stack levels used: 1
  4649 ;; Hardware stack levels required when called: 10
  4650 ;; This function calls:
  4651 ;;		_IO_Expander_Write
  4652 ;; This function is called by:
  4653 ;;		_LCD_Write_4Bit
  4654 ;; This function uses a non-reentrant model
  4655 ;;
  4656                           
  4657  0F8F                     _IO_pulseEnable:	
  4658                           ;psect for function _IO_pulseEnable
  4659                           
  4660                           
  4661                           ;incstack = 0
  4662                           ; Regs used in _IO_pulseEnable: [wreg-fsr1h+status,2+status,0+pclath+cstack]
  4663                           ;IO_pulseEnable@Data stored from wreg
  4664  0F8F  0020               	movlb	0	; select bank0
  4665  0F90  00AC               	movwf	IO_pulseEnable@Data
  4666  0F91                     l2910:
  4667                           
  4668                           ;./LCD2004a.c: 55:  IO_Expander_Write(Data | 0b00000100);
  4669  0F91  082C               	movf	IO_pulseEnable@Data,w
  4670  0F92  3804               	iorlw	4
  4671  0F93  318F  27A2  318F   	fcall	_IO_Expander_Write
  4672  0F96                     l2912:
  4673                           
  4674                           ;./LCD2004a.c: 56:  _delay((unsigned long)((1)*(8000000/4000000.0)));
  4675  0F96  3200               	nop2	;2 cycle nop
  4676                           
  4677                           ;./LCD2004a.c: 57:  IO_Expander_Write(Data | ~0b00000100);
  4678  0F97  0020               	movlb	0	; select bank0
  4679  0F98  082C               	movf	IO_pulseEnable@Data,w
  4680  0F99  38FB               	iorlw	251
  4681  0F9A  318F  27A2  318F   	fcall	_IO_Expander_Write
  4682  0F9D                     l2914:
  4683                           
  4684                           ;./LCD2004a.c: 58:  _delay((unsigned long)((50)*(8000000/4000000.0)));
  4685  0F9D  3021               	movlw	33
  4686  0F9E                     u2417:
  4687  0F9E  0B89               	decfsz	9,f
  4688  0F9F  2F9E               	goto	u2417
  4689  0FA0  0000               	nop
  4690  0FA1                     l569:
  4691  0FA1  0008               	return
  4692  0FA2                     __end_of_IO_pulseEnable:
  4693                           
  4694                           	psect	text17
  4695  0FA2                     __ptext17:	
  4696 ;; *************** function _IO_Expander_Write *****************
  4697 ;; Defined at:
  4698 ;;		line 46 in file "./LCD2004a.c"
  4699 ;; Parameters:    Size  Location     Type
  4700 ;;  Data            1    wreg     unsigned char 
  4701 ;; Auto vars:     Size  Location     Type
  4702 ;;  Data            1   10[BANK0 ] unsigned char 
  4703 ;;  dt              1   11[BANK0 ] unsigned char [1]
  4704 ;; Return value:  Size  Location     Type
  4705 ;;                  1    wreg      void 
  4706 ;; Registers used:
  4707 ;;		wreg, fsr0l, fsr0h, fsr1l, fsr1h, status,2, status,0, pclath, cstack
  4708 ;; Tracked objects:
  4709 ;;		On entry : 0/0
  4710 ;;		On exit  : 0/0
  4711 ;;		Unchanged: 0/0
  4712 ;; Data sizes:     COMMON   BANK0   BANK1   BANK2   BANK3   BANK4
  4713 ;;      Params:         0       0       0       0       0       0
  4714 ;;      Locals:         0       2       0       0       0       0
  4715 ;;      Temps:          0       1       0       0       0       0
  4716 ;;      Totals:         0       3       0       0       0       0
  4717 ;;Total ram usage:        3 bytes
  4718 ;; Hardware stack levels used: 1
  4719 ;; Hardware stack levels required when called: 9
  4720 ;; This function calls:
  4721 ;;		_I2C1_WriteNBytes
  4722 ;; This function is called by:
  4723 ;;		_LCD_Init
  4724 ;;		_IO_pulseEnable
  4725 ;;		_LCD_Write_4Bit
  4726 ;;		_Backlight
  4727 ;;		_noBacklight
  4728 ;; This function uses a non-reentrant model
  4729 ;;
  4730                           
  4731  0FA2                     _IO_Expander_Write:	
  4732                           ;psect for function _IO_Expander_Write
  4733                           
  4734                           
  4735                           ;incstack = 0
  4736                           ; Regs used in _IO_Expander_Write: [wreg-fsr1h+status,2+status,0+pclath+cstack]
  4737                           ;IO_Expander_Write@Data stored from wreg
  4738  0FA2  0020               	movlb	0	; select bank0
  4739  0FA3  00AA               	movwf	IO_Expander_Write@Data
  4740  0FA4                     l2906:
  4741                           
  4742                           ;./LCD2004a.c: 46: void IO_Expander_Write(unsigned char Data);./LCD2004a.c: 47: {;./LCD2
      +                          004a.c: 48:   uint8_t dt[1];;./LCD2004a.c: 49:   dt[0]=Data | BackLight_State;
  4743  0FA4  082A               	movf	IO_Expander_Write@Data,w
  4744  0FA5  0462               	iorwf	_BackLight_State,w
  4745  0FA6  00A9               	movwf	??_IO_Expander_Write
  4746  0FA7  0829               	movf	??_IO_Expander_Write,w
  4747  0FA8  00AB               	movwf	IO_Expander_Write@dt
  4748  0FA9                     l2908:
  4749                           
  4750                           ;./LCD2004a.c: 50:   I2C1_WriteNBytes(i2c_add, &dt, 1);
  4751  0FA9  302B               	movlw	(low (IO_Expander_Write@dt| 0))& (0+255)
  4752  0FAA  00A9               	movwf	??_IO_Expander_Write
  4753  0FAB  0829               	movf	??_IO_Expander_Write,w
  4754  0FAC  00A5               	movwf	I2C1_WriteNBytes@data
  4755  0FAD  3001               	movlw	1
  4756  0FAE  00A6               	movwf	I2C1_WriteNBytes@len
  4757  0FAF  3000               	movlw	0
  4758  0FB0  00A7               	movwf	I2C1_WriteNBytes@len+1
  4759  0FB1  0861               	movf	_i2c_add,w
  4760  0FB2  3180  2085  318F   	fcall	_I2C1_WriteNBytes
  4761  0FB5                     l566:
  4762  0FB5  0008               	return
  4763  0FB6                     __end_of_IO_Expander_Write:
  4764                           
  4765                           	psect	text18
  4766  0085                     __ptext18:	
  4767 ;; *************** function _I2C1_WriteNBytes *****************
  4768 ;; Defined at:
  4769 ;;		line 111 in file "mcc_generated_files/examples/i2c1_master_example.c"
  4770 ;; Parameters:    Size  Location     Type
  4771 ;;  address         1    wreg     unsigned char 
  4772 ;;  data            1    5[BANK0 ] PTR unsigned char 
  4773 ;;		 -> IO_Expander_Write@dt(1), 
  4774 ;;  len             2    6[BANK0 ] unsigned int 
  4775 ;; Auto vars:     Size  Location     Type
  4776 ;;  address         1    8[BANK0 ] unsigned char 
  4777 ;; Return value:  Size  Location     Type
  4778 ;;                  1    wreg      void 
  4779 ;; Registers used:
  4780 ;;		wreg, fsr0l, fsr0h, fsr1l, fsr1h, status,2, status,0, pclath, cstack
  4781 ;; Tracked objects:
  4782 ;;		On entry : 0/0
  4783 ;;		On exit  : 0/0
  4784 ;;		Unchanged: 0/0
  4785 ;; Data sizes:     COMMON   BANK0   BANK1   BANK2   BANK3   BANK4
  4786 ;;      Params:         0       3       0       0       0       0
  4787 ;;      Locals:         0       1       0       0       0       0
  4788 ;;      Temps:          0       0       0       0       0       0
  4789 ;;      Totals:         0       4       0       0       0       0
  4790 ;;Total ram usage:        4 bytes
  4791 ;; Hardware stack levels used: 1
  4792 ;; Hardware stack levels required when called: 8
  4793 ;; This function calls:
  4794 ;;		_I2C1_Close
  4795 ;;		_I2C1_MasterWrite
  4796 ;;		_I2C1_Open
  4797 ;;		_I2C1_SetAddressNackCallback
  4798 ;;		_I2C1_SetBuffer
  4799 ;; This function is called by:
  4800 ;;		_IO_Expander_Write
  4801 ;; This function uses a non-reentrant model
  4802 ;;
  4803                           
  4804  0085                     _I2C1_WriteNBytes:	
  4805                           ;psect for function _I2C1_WriteNBytes
  4806                           
  4807                           
  4808                           ;incstack = 0
  4809                           ; Regs used in _I2C1_WriteNBytes: [wreg-fsr1h+status,2+status,0+pclath+cstack]
  4810                           ;I2C1_WriteNBytes@address stored from wreg
  4811  0085  0020               	movlb	0	; select bank0
  4812  0086  00A8               	movwf	I2C1_WriteNBytes@address
  4813  0087                     l2894:
  4814  0087                     l2896:	
  4815                           ;mcc_generated_files/examples/i2c1_master_example.c: 111: void I2C1_WriteNBytes(i2c1_add
      +                          ress_t address, uint8_t* data, size_t len);mcc_generated_files/examples/i2c1_master_exam
      +                          ple.c: 112: {;mcc_generated_files/examples/i2c1_master_example.c: 113:     while(!I2C1_O
      +                          pen(address));
  4816                           
  4817  0087  0020               	movlb	0	; select bank0
  4818  0088  0828               	movf	I2C1_WriteNBytes@address,w
  4819  0089  3181  2136  3180   	fcall	_I2C1_Open
  4820  008C  3A00               	xorlw	0
  4821  008D  1903               	skipnz
  4822  008E  2890               	goto	u1301
  4823  008F  2891               	goto	u1300
  4824  0090                     u1301:
  4825  0090  2887               	goto	l2896
  4826  0091                     u1300:
  4827  0091                     l2898:
  4828                           
  4829                           ;mcc_generated_files/examples/i2c1_master_example.c: 114:     I2C1_SetBuffer(data,len);
  4830  0091  0020               	movlb	0	; select bank0
  4831  0092  0827               	movf	I2C1_WriteNBytes@len+1,w
  4832  0093  00F1               	movwf	I2C1_SetBuffer@bufferSize+1
  4833  0094  0826               	movf	I2C1_WriteNBytes@len,w
  4834  0095  00F0               	movwf	I2C1_SetBuffer@bufferSize
  4835  0096  0825               	movf	I2C1_WriteNBytes@data,w
  4836  0097  318F  271B  3180   	fcall	_I2C1_SetBuffer
  4837  009A                     l2900:
  4838                           
  4839                           ;mcc_generated_files/examples/i2c1_master_example.c: 115:     I2C1_SetAddressNackCallbac
      +                          k(((void*)0),((void*)0));
  4840  009A  3000               	movlw	0
  4841  009B  00F5               	movwf	I2C1_SetAddressNackCallback@cb
  4842  009C  00F6               	movwf	I2C1_SetAddressNackCallback@cb+1
  4843  009D  01F7               	clrf	I2C1_SetAddressNackCallback@ptr
  4844  009E  318F  270E  3180   	fcall	_I2C1_SetAddressNackCallback
  4845  00A1                     l2902:
  4846                           
  4847                           ;mcc_generated_files/examples/i2c1_master_example.c: 116:     I2C1_MasterWrite();
  4848  00A1  318E  26A0  3180   	fcall	_I2C1_MasterWrite
  4849  00A4                     l2904:	
  4850                           ;mcc_generated_files/examples/i2c1_master_example.c: 117:     while(I2C1_BUSY == I2C1_Cl
      +                          ose());
  4851                           
  4852  00A4  318F  27E4  3180   	fcall	_I2C1_Close
  4853  00A7  3A01               	xorlw	1
  4854  00A8  1903               	skipnz
  4855  00A9  28AB               	goto	u1311
  4856  00AA  28AC               	goto	u1310
  4857  00AB                     u1311:
  4858  00AB  28A4               	goto	l2904
  4859  00AC                     u1310:
  4860  00AC                     l69:
  4861  00AC  0008               	return
  4862  00AD                     __end_of_I2C1_WriteNBytes:
  4863                           
  4864                           	psect	text19
  4865  0F0E                     __ptext19:	
  4866 ;; *************** function _I2C1_SetAddressNackCallback *****************
  4867 ;; Defined at:
  4868 ;;		line 283 in file "mcc_generated_files/i2c1_master.c"
  4869 ;; Parameters:    Size  Location     Type
  4870 ;;  cb              2    5[COMMON] PTR FTN(PTR void ,)enum 
  4871 ;;		 -> Absolute function(1), 
  4872 ;;  ptr             1    7[COMMON] PTR void 
  4873 ;;		 -> NULL(0), 
  4874 ;; Auto vars:     Size  Location     Type
  4875 ;;		None
  4876 ;; Return value:  Size  Location     Type
  4877 ;;                  1    wreg      void 
  4878 ;; Registers used:
  4879 ;;		wreg, fsr1l, fsr1h, status,2, status,0, pclath, cstack
  4880 ;; Tracked objects:
  4881 ;;		On entry : 0/0
  4882 ;;		On exit  : 0/0
  4883 ;;		Unchanged: 0/0
  4884 ;; Data sizes:     COMMON   BANK0   BANK1   BANK2   BANK3   BANK4
  4885 ;;      Params:         3       0       0       0       0       0
  4886 ;;      Locals:         0       0       0       0       0       0
  4887 ;;      Temps:          1       0       0       0       0       0
  4888 ;;      Totals:         4       0       0       0       0       0
  4889 ;;Total ram usage:        4 bytes
  4890 ;; Hardware stack levels used: 1
  4891 ;; Hardware stack levels required when called: 1
  4892 ;; This function calls:
  4893 ;;		_I2C1_SetCallback
  4894 ;; This function is called by:
  4895 ;;		_I2C1_WriteNBytes
  4896 ;;		_I2C1_Read1ByteRegister
  4897 ;;		_I2C1_Read2ByteRegister
  4898 ;;		_I2C1_Write1ByteRegister
  4899 ;;		_I2C1_Write2ByteRegister
  4900 ;;		_I2C1_ReadDataBlock
  4901 ;; This function uses a non-reentrant model
  4902 ;;
  4903                           
  4904  0F0E                     _I2C1_SetAddressNackCallback:	
  4905                           ;psect for function _I2C1_SetAddressNackCallback
  4906                           
  4907  0F0E                     l2870:	
  4908                           ;incstack = 0
  4909                           ; Regs used in _I2C1_SetAddressNackCallback: [wreg+fsr1l+fsr1h+status,2+status,0+pclath+
      +                          cstack]
  4910                           
  4911                           
  4912                           ;mcc_generated_files/i2c1_master.c: 283: void I2C1_SetAddressNackCallback(i2c1_callback_
      +                          t cb, void *ptr);mcc_generated_files/i2c1_master.c: 284: {;mcc_generated_files/i2c1_mast
      +                          er.c: 285:     I2C1_SetCallback(I2C1_ADDR_NACK, cb, ptr);
  4913  0F0E  0876               	movf	I2C1_SetAddressNackCallback@cb+1,w
  4914  0F0F  00F1               	movwf	I2C1_SetCallback@cb+1
  4915  0F10  0875               	movf	I2C1_SetAddressNackCallback@cb,w
  4916  0F11  00F0               	movwf	I2C1_SetCallback@cb
  4917  0F12  0877               	movf	I2C1_SetAddressNackCallback@ptr,w
  4918  0F13  00F8               	movwf	??_I2C1_SetAddressNackCallback
  4919  0F14  0878               	movf	??_I2C1_SetAddressNackCallback,w
  4920  0F15  00F2               	movwf	I2C1_SetCallback@ptr
  4921  0F16  3002               	movlw	2
  4922  0F17  3180  205F  318F   	fcall	_I2C1_SetCallback
  4923  0F1A                     l338:
  4924  0F1A  0008               	return
  4925  0F1B                     __end_of_I2C1_SetAddressNackCallback:
  4926                           
  4927                           	psect	text20
  4928  0136                     __ptext20:	
  4929 ;; *************** function _I2C1_Open *****************
  4930 ;; Defined at:
  4931 ;;		line 176 in file "mcc_generated_files/i2c1_master.c"
  4932 ;; Parameters:    Size  Location     Type
  4933 ;;  address         1    wreg     unsigned char 
  4934 ;; Auto vars:     Size  Location     Type
  4935 ;;  address         1    1[COMMON] unsigned char 
  4936 ;;  returnValue     1    2[COMMON] enum E355
  4937 ;; Return value:  Size  Location     Type
  4938 ;;                  1    wreg      enum E355
  4939 ;; Registers used:
  4940 ;;		wreg, status,2, status,0, pclath, cstack
  4941 ;; Tracked objects:
  4942 ;;		On entry : 0/0
  4943 ;;		On exit  : 0/0
  4944 ;;		Unchanged: 0/0
  4945 ;; Data sizes:     COMMON   BANK0   BANK1   BANK2   BANK3   BANK4
  4946 ;;      Params:         0       0       0       0       0       0
  4947 ;;      Locals:         2       0       0       0       0       0
  4948 ;;      Temps:          1       0       0       0       0       0
  4949 ;;      Totals:         3       0       0       0       0       0
  4950 ;;Total ram usage:        3 bytes
  4951 ;; Hardware stack levels used: 1
  4952 ;; Hardware stack levels required when called: 1
  4953 ;; This function calls:
  4954 ;;		_I2C1_MasterClearIrq
  4955 ;;		_I2C1_MasterOpen
  4956 ;; This function is called by:
  4957 ;;		_I2C1_WriteNBytes
  4958 ;;		_I2C1_Read1ByteRegister
  4959 ;;		_I2C1_Read2ByteRegister
  4960 ;;		_I2C1_Write1ByteRegister
  4961 ;;		_I2C1_Write2ByteRegister
  4962 ;;		_I2C1_ReadNBytes
  4963 ;;		_I2C1_ReadDataBlock
  4964 ;; This function uses a non-reentrant model
  4965 ;;
  4966                           
  4967  0136                     _I2C1_Open:	
  4968                           ;psect for function _I2C1_Open
  4969                           
  4970                           
  4971                           ;incstack = 0
  4972                           ; Regs used in _I2C1_Open: [wreg+status,2+status,0+pclath+cstack]
  4973                           ;I2C1_Open@address stored from wreg
  4974  0136  00F1               	movwf	I2C1_Open@address
  4975  0137                     l2838:
  4976                           
  4977                           ;mcc_generated_files/i2c1_master.c: 176: i2c1_error_t I2C1_Open(i2c1_address_t address);
      +                          mcc_generated_files/i2c1_master.c: 177: {;mcc_generated_files/i2c1_master.c: 178:     i2
      +                          c1_error_t returnValue = I2C1_BUSY;
  4978  0137  01F2               	clrf	I2C1_Open@returnValue
  4979  0138  0AF2               	incf	I2C1_Open@returnValue,f
  4980                           
  4981                           ;mcc_generated_files/i2c1_master.c: 180:     if(!I2C1_Status.inUse)
  4982  0139  0021               	movlb	1	; select bank1
  4983  013A  193C               	btfsc	(_I2C1_Status^(0+128)+28),2
  4984  013B  293D               	goto	u1281
  4985  013C  293E               	goto	u1280
  4986  013D                     u1281:
  4987  013D  296E               	goto	l305
  4988  013E                     u1280:
  4989  013E                     l2840:
  4990                           
  4991                           ;mcc_generated_files/i2c1_master.c: 181:     {;mcc_generated_files/i2c1_master.c: 182:  
      +                                 I2C1_Status.address = address;
  4992  013E  0871               	movf	I2C1_Open@address,w
  4993  013F  00F0               	movwf	??_I2C1_Open
  4994  0140  0870               	movf	??_I2C1_Open,w
  4995  0141  00B6               	movwf	(_I2C1_Status^(0+128)+22)
  4996  0142                     l2842:
  4997                           
  4998                           ;mcc_generated_files/i2c1_master.c: 183:         I2C1_Status.busy = 0;
  4999  0142  10BC               	bcf	(_I2C1_Status^(0+128)+28),1
  5000  0143                     l2844:
  5001                           
  5002                           ;mcc_generated_files/i2c1_master.c: 184:         I2C1_Status.inUse = 1;
  5003  0143  153C               	bsf	(_I2C1_Status^(0+128)+28),2
  5004  0144                     l2846:
  5005                           
  5006                           ;mcc_generated_files/i2c1_master.c: 185:         I2C1_Status.addressNackCheck = 0;
  5007  0144  103C               	bcf	(_I2C1_Status^(0+128)+28),0
  5008                           
  5009                           ;mcc_generated_files/i2c1_master.c: 186:         I2C1_Status.state = I2C1_RESET;
  5010  0145  300E               	movlw	14
  5011  0146  00F0               	movwf	??_I2C1_Open
  5012  0147  0870               	movf	??_I2C1_Open,w
  5013  0148  00BA               	movwf	(_I2C1_Status^(0+128)+26)
  5014                           
  5015                           ;mcc_generated_files/i2c1_master.c: 187:         I2C1_Status.time_out_value = 500;
  5016  0149  30F4               	movlw	244
  5017  014A  00B4               	movwf	(_I2C1_Status^(0+128)+20)
  5018  014B  3001               	movlw	1
  5019  014C  00B5               	movwf	(_I2C1_Status^(0+128)+21)
  5020  014D                     l2848:
  5021                           
  5022                           ;mcc_generated_files/i2c1_master.c: 188:         I2C1_Status.bufferFree = 1;
  5023  014D  15BC               	bsf	(_I2C1_Status^(0+128)+28),3
  5024                           
  5025                           ;mcc_generated_files/i2c1_master.c: 191:         I2C1_Status.callbackTable[I2C1_DATA_COM
      +                          PLETE]=I2C1_CallbackReturnStop;
  5026  014E  3040               	movlw	low _I2C1_CallbackReturnStop
  5027  014F  00A0               	movwf	_I2C1_Status^(0+128)
  5028  0150  300E               	movlw	high _I2C1_CallbackReturnStop
  5029  0151  00A1               	movwf	(_I2C1_Status^(0+128)+1)
  5030  0152                     l2850:
  5031                           
  5032                           ;mcc_generated_files/i2c1_master.c: 192:         I2C1_Status.callbackPayload[I2C1_DATA_C
      +                          OMPLETE] = ((void*)0);
  5033  0152  01AC               	clrf	(low ((_I2C1_Status| 0+12)))^(0+128)
  5034  0153                     l2852:
  5035                           
  5036                           ;mcc_generated_files/i2c1_master.c: 193:         I2C1_Status.callbackTable[I2C1_WRITE_CO
      +                          LLISION]=I2C1_CallbackReturnStop;
  5037  0153  3040               	movlw	low _I2C1_CallbackReturnStop
  5038  0154  00A2               	movwf	(low ((_I2C1_Status| 0+2)))^(0+128)
  5039  0155  300E               	movlw	high _I2C1_CallbackReturnStop
  5040  0156  00A3               	movwf	((low ((_I2C1_Status| 0+2)))^(0+128)+1)
  5041                           
  5042                           ;mcc_generated_files/i2c1_master.c: 194:         I2C1_Status.callbackPayload[I2C1_WRITE_
      +                          COLLISION] = ((void*)0);
  5043  0157  01AD               	clrf	(low ((_I2C1_Status| 0+13)))^(0+128)
  5044  0158                     l2854:
  5045                           
  5046                           ;mcc_generated_files/i2c1_master.c: 195:         I2C1_Status.callbackTable[I2C1_ADDR_NAC
      +                          K]=I2C1_CallbackReturnStop;
  5047  0158  3040               	movlw	low _I2C1_CallbackReturnStop
  5048  0159  00A4               	movwf	(low ((_I2C1_Status| 0+4)))^(0+128)
  5049  015A  300E               	movlw	high _I2C1_CallbackReturnStop
  5050  015B  00A5               	movwf	((low ((_I2C1_Status| 0+4)))^(0+128)+1)
  5051  015C                     l2856:
  5052                           
  5053                           ;mcc_generated_files/i2c1_master.c: 196:         I2C1_Status.callbackPayload[I2C1_ADDR_N
      +                          ACK] = ((void*)0);
  5054  015C  01AE               	clrf	(low ((_I2C1_Status| 0+14)))^(0+128)
  5055                           
  5056                           ;mcc_generated_files/i2c1_master.c: 197:         I2C1_Status.callbackTable[I2C1_DATA_NAC
      +                          K]=I2C1_CallbackReturnStop;
  5057  015D  3040               	movlw	low _I2C1_CallbackReturnStop
  5058  015E  00A6               	movwf	(low ((_I2C1_Status| 0+6)))^(0+128)
  5059  015F  300E               	movlw	high _I2C1_CallbackReturnStop
  5060  0160  00A7               	movwf	((low ((_I2C1_Status| 0+6)))^(0+128)+1)
  5061  0161                     l2858:
  5062                           
  5063                           ;mcc_generated_files/i2c1_master.c: 198:         I2C1_Status.callbackPayload[I2C1_DATA_N
      +                          ACK] = ((void*)0);
  5064  0161  01AF               	clrf	(low ((_I2C1_Status| 0+15)))^(0+128)
  5065  0162                     l2860:
  5066                           
  5067                           ;mcc_generated_files/i2c1_master.c: 199:         I2C1_Status.callbackTable[I2C1_TIMEOUT]
      +                          =I2C1_CallbackReturnReset;
  5068  0162  3042               	movlw	low _I2C1_CallbackReturnReset
  5069  0163  00A8               	movwf	(low ((_I2C1_Status| 0+8)))^(0+128)
  5070  0164  300E               	movlw	high _I2C1_CallbackReturnReset
  5071  0165  00A9               	movwf	((low ((_I2C1_Status| 0+8)))^(0+128)+1)
  5072                           
  5073                           ;mcc_generated_files/i2c1_master.c: 200:         I2C1_Status.callbackPayload[I2C1_TIMEOU
      +                          T] = ((void*)0);
  5074  0166  01B0               	clrf	(low ((_I2C1_Status| 0+16)))^(0+128)
  5075  0167                     l2862:
  5076                           
  5077                           ;mcc_generated_files/i2c1_master.c: 202:         I2C1_MasterClearIrq();
  5078  0167  318E  2647  3181   	fcall	_I2C1_MasterClearIrq
  5079  016A                     l2864:
  5080                           
  5081                           ;mcc_generated_files/i2c1_master.c: 203:         I2C1_MasterOpen();
  5082  016A  318F  2701  3181   	fcall	_I2C1_MasterOpen
  5083  016D                     l2866:
  5084                           
  5085                           ;mcc_generated_files/i2c1_master.c: 204:         returnValue = I2C1_NOERR;
  5086  016D  01F2               	clrf	I2C1_Open@returnValue
  5087  016E                     l305:	
  5088                           ;mcc_generated_files/i2c1_master.c: 205:     }
  5089                           
  5090                           
  5091                           ;mcc_generated_files/i2c1_master.c: 206:     return returnValue;
  5092  016E  0872               	movf	I2C1_Open@returnValue,w
  5093  016F                     l306:
  5094  016F  0008               	return
  5095  0170                     __end_of_I2C1_Open:
  5096                           
  5097                           	psect	text21
  5098  0F01                     __ptext21:	
  5099 ;; *************** function _I2C1_MasterOpen *****************
  5100 ;; Defined at:
  5101 ;;		line 543 in file "mcc_generated_files/i2c1_master.c"
  5102 ;; Parameters:    Size  Location     Type
  5103 ;;		None
  5104 ;; Auto vars:     Size  Location     Type
  5105 ;;		None
  5106 ;; Return value:  Size  Location     Type
  5107 ;;                  1    wreg      _Bool 
  5108 ;; Registers used:
  5109 ;;		wreg, status,2
  5110 ;; Tracked objects:
  5111 ;;		On entry : 0/0
  5112 ;;		On exit  : 0/0
  5113 ;;		Unchanged: 0/0
  5114 ;; Data sizes:     COMMON   BANK0   BANK1   BANK2   BANK3   BANK4
  5115 ;;      Params:         0       0       0       0       0       0
  5116 ;;      Locals:         0       0       0       0       0       0
  5117 ;;      Temps:          0       0       0       0       0       0
  5118 ;;      Totals:         0       0       0       0       0       0
  5119 ;;Total ram usage:        0 bytes
  5120 ;; Hardware stack levels used: 1
  5121 ;; This function calls:
  5122 ;;		Nothing
  5123 ;; This function is called by:
  5124 ;;		_I2C1_Open
  5125 ;; This function uses a non-reentrant model
  5126 ;;
  5127                           
  5128  0F01                     _I2C1_MasterOpen:	
  5129                           ;psect for function _I2C1_MasterOpen
  5130                           
  5131  0F01                     l2802:	
  5132                           ;incstack = 0
  5133                           ; Regs used in _I2C1_MasterOpen: [wreg+status,2]
  5134                           
  5135                           
  5136                           ;mcc_generated_files/i2c1_master.c: 545:     if(!SSP1CON1bits.SSPEN)
  5137  0F01  0024               	movlb	4	; select bank4
  5138  0F02  1A95               	btfsc	21,5	;volatile
  5139  0F03  2F05               	goto	u1251
  5140  0F04  2F06               	goto	u1250
  5141  0F05                     u1251:
  5142  0F05  2F0D               	goto	l471
  5143  0F06                     u1250:
  5144  0F06                     l2804:
  5145                           
  5146                           ;mcc_generated_files/i2c1_master.c: 546:     {;mcc_generated_files/i2c1_master.c: 547:  
      +                                 SSP1STAT = 0x00;
  5147  0F06  0194               	clrf	20	;volatile
  5148  0F07                     l2806:
  5149                           
  5150                           ;mcc_generated_files/i2c1_master.c: 548:         SSP1CON1 = 0x08;
  5151  0F07  3008               	movlw	8
  5152  0F08  0095               	movwf	21	;volatile
  5153  0F09                     l2808:
  5154                           
  5155                           ;mcc_generated_files/i2c1_master.c: 549:         SSP1CON2 = 0x00;
  5156  0F09  0196               	clrf	22	;volatile
  5157                           
  5158                           ;mcc_generated_files/i2c1_master.c: 550:         SSP1ADD = 0x13;
  5159  0F0A  3013               	movlw	19
  5160  0F0B  0092               	movwf	18	;volatile
  5161  0F0C                     l2810:
  5162                           
  5163                           ;mcc_generated_files/i2c1_master.c: 551:         SSP1CON1bits.SSPEN = 1;
  5164  0F0C  1695               	bsf	21,5	;volatile
  5165  0F0D                     l471:
  5166  0F0D  0008               	return
  5167  0F0E                     __end_of_I2C1_MasterOpen:
  5168                           
  5169                           	psect	text22
  5170  0EA0                     __ptext22:	
  5171 ;; *************** function _I2C1_MasterWrite *****************
  5172 ;; Defined at:
  5173 ;;		line 251 in file "mcc_generated_files/i2c1_master.c"
  5174 ;; Parameters:    Size  Location     Type
  5175 ;;		None
  5176 ;; Auto vars:     Size  Location     Type
  5177 ;;		None
  5178 ;; Return value:  Size  Location     Type
  5179 ;;                  1    wreg      enum E355
  5180 ;; Registers used:
  5181 ;;		wreg, fsr0l, fsr0h, fsr1l, fsr1h, status,2, status,0, pclath, cstack
  5182 ;; Tracked objects:
  5183 ;;		On entry : 0/0
  5184 ;;		On exit  : 0/0
  5185 ;;		Unchanged: 0/0
  5186 ;; Data sizes:     COMMON   BANK0   BANK1   BANK2   BANK3   BANK4
  5187 ;;      Params:         0       0       0       0       0       0
  5188 ;;      Locals:         0       0       0       0       0       0
  5189 ;;      Temps:          0       0       0       0       0       0
  5190 ;;      Totals:         0       0       0       0       0       0
  5191 ;;Total ram usage:        0 bytes
  5192 ;; Hardware stack levels used: 1
  5193 ;; Hardware stack levels required when called: 7
  5194 ;; This function calls:
  5195 ;;		_I2C1_MasterOperation
  5196 ;; This function is called by:
  5197 ;;		_I2C1_WriteNBytes
  5198 ;;		_I2C1_Read1ByteRegister
  5199 ;;		_I2C1_Read2ByteRegister
  5200 ;;		_I2C1_Write1ByteRegister
  5201 ;;		_I2C1_Write2ByteRegister
  5202 ;;		_I2C1_ReadDataBlock
  5203 ;; This function uses a non-reentrant model
  5204 ;;
  5205                           
  5206  0EA0                     _I2C1_MasterWrite:	
  5207                           ;psect for function _I2C1_MasterWrite
  5208                           
  5209  0EA0                     l2872:	
  5210                           ;incstack = 0
  5211                           ; Regs used in _I2C1_MasterWrite: [wreg-fsr1h+status,2+status,0+pclath+cstack]
  5212                           
  5213                           
  5214                           ;mcc_generated_files/i2c1_master.c: 253:     return I2C1_MasterOperation(0);;	Return val
      +                          ue of _I2C1_MasterWrite is never used
  5215  0EA0  3000               	movlw	0
  5216  0EA1  3180  2019  318E   	fcall	_I2C1_MasterOperation
  5217  0EA4                     l322:
  5218  0EA4  0008               	return
  5219  0EA5                     __end_of_I2C1_MasterWrite:
  5220                           
  5221                           	psect	text23
  5222  0019                     __ptext23:	
  5223 ;; *************** function _I2C1_MasterOperation *****************
  5224 ;; Defined at:
  5225 ;;		line 224 in file "mcc_generated_files/i2c1_master.c"
  5226 ;; Parameters:    Size  Location     Type
  5227 ;;  read            1    wreg     _Bool 
  5228 ;; Auto vars:     Size  Location     Type
  5229 ;;  read            1    3[BANK0 ] _Bool 
  5230 ;;  returnValue     1    4[BANK0 ] enum E355
  5231 ;; Return value:  Size  Location     Type
  5232 ;;                  1    wreg      enum E355
  5233 ;; Registers used:
  5234 ;;		wreg, fsr0l, fsr0h, fsr1l, fsr1h, status,2, status,0, pclath, cstack
  5235 ;; Tracked objects:
  5236 ;;		On entry : 0/0
  5237 ;;		On exit  : 0/0
  5238 ;;		Unchanged: 0/0
  5239 ;; Data sizes:     COMMON   BANK0   BANK1   BANK2   BANK3   BANK4
  5240 ;;      Params:         0       0       0       0       0       0
  5241 ;;      Locals:         0       2       0       0       0       0
  5242 ;;      Temps:          1       0       0       0       0       0
  5243 ;;      Totals:         1       2       0       0       0       0
  5244 ;;Total ram usage:        3 bytes
  5245 ;; Hardware stack levels used: 1
  5246 ;; Hardware stack levels required when called: 6
  5247 ;; This function calls:
  5248 ;;		_I2C1_MasterStart
  5249 ;;		_I2C1_Poller
  5250 ;; This function is called by:
  5251 ;;		_I2C1_MasterWrite
  5252 ;;		_I2C1_MasterRead
  5253 ;; This function uses a non-reentrant model
  5254 ;;
  5255                           
  5256  0019                     _I2C1_MasterOperation:	
  5257                           ;psect for function _I2C1_MasterOperation
  5258                           
  5259                           
  5260                           ;incstack = 0
  5261                           ; Regs used in _I2C1_MasterOperation: [wreg-fsr1h+status,2+status,0+pclath+cstack]
  5262                           ;I2C1_MasterOperation@read stored from wreg
  5263  0019  0020               	movlb	0	; select bank0
  5264  001A  00A3               	movwf	I2C1_MasterOperation@read
  5265  001B                     l2818:
  5266                           
  5267                           ;mcc_generated_files/i2c1_master.c: 224: i2c1_error_t I2C1_MasterOperation(_Bool read);m
      +                          cc_generated_files/i2c1_master.c: 225: {;mcc_generated_files/i2c1_master.c: 226:     i2c
      +                          1_error_t returnValue = I2C1_BUSY;
  5268  001B  01A4               	clrf	I2C1_MasterOperation@returnValue
  5269  001C  0AA4               	incf	I2C1_MasterOperation@returnValue,f
  5270                           
  5271                           ;mcc_generated_files/i2c1_master.c: 227:     if(!I2C1_Status.busy)
  5272  001D  0021               	movlb	1	; select bank1
  5273  001E  18BC               	btfsc	(_I2C1_Status^(0+128)+28),1
  5274  001F  2821               	goto	u1261
  5275  0020  2822               	goto	u1260
  5276  0021                     u1261:
  5277  0021  2839               	goto	l2834
  5278  0022                     u1260:
  5279  0022                     l2820:
  5280                           
  5281                           ;mcc_generated_files/i2c1_master.c: 228:     {;mcc_generated_files/i2c1_master.c: 229:  
      +                                 I2C1_Status.busy = 1;
  5282  0022  14BC               	bsf	(_I2C1_Status^(0+128)+28),1
  5283  0023                     l2822:
  5284                           
  5285                           ;mcc_generated_files/i2c1_master.c: 230:         returnValue = I2C1_NOERR;
  5286  0023  0020               	movlb	0	; select bank0
  5287  0024  01A4               	clrf	I2C1_MasterOperation@returnValue
  5288  0025                     l2824:
  5289                           
  5290                           ;mcc_generated_files/i2c1_master.c: 232:         if(read)
  5291  0025  0823               	movf	I2C1_MasterOperation@read,w
  5292  0026  1903               	btfsc	3,2
  5293  0027  2829               	goto	u1271
  5294  0028  282A               	goto	u1270
  5295  0029                     u1271:
  5296  0029  282E               	goto	l2828
  5297  002A                     u1270:
  5298  002A                     l2826:
  5299                           
  5300                           ;mcc_generated_files/i2c1_master.c: 233:         {;mcc_generated_files/i2c1_master.c: 23
      +                          4:             I2C1_Status.state = I2C1_SEND_ADR_READ;
  5301  002A  0021               	movlb	1	; select bank1
  5302  002B  01BA               	clrf	(_I2C1_Status^(0+128)+26)
  5303  002C  0ABA               	incf	(_I2C1_Status^(0+128)+26),f
  5304                           
  5305                           ;mcc_generated_files/i2c1_master.c: 235:         }
  5306  002D  2833               	goto	l2830
  5307  002E                     l2828:
  5308                           
  5309                           ;mcc_generated_files/i2c1_master.c: 237:         {;mcc_generated_files/i2c1_master.c: 23
      +                          8:             I2C1_Status.state = I2C1_SEND_ADR_WRITE;
  5310  002E  3002               	movlw	2
  5311  002F  00FD               	movwf	??_I2C1_MasterOperation
  5312  0030  087D               	movf	??_I2C1_MasterOperation,w
  5313  0031  0021               	movlb	1	; select bank1
  5314  0032  00BA               	movwf	(_I2C1_Status^(0+128)+26)
  5315  0033                     l2830:
  5316                           
  5317                           ;mcc_generated_files/i2c1_master.c: 240:         I2C1_MasterStart();
  5318  0033  318E  2650  3180   	fcall	_I2C1_MasterStart
  5319  0036                     l2832:
  5320                           
  5321                           ;mcc_generated_files/i2c1_master.c: 241:         I2C1_Poller();
  5322  0036  318E  26F4  3180   	fcall	_I2C1_Poller
  5323  0039                     l2834:
  5324                           
  5325                           ;mcc_generated_files/i2c1_master.c: 243:     return returnValue;
  5326  0039  0020               	movlb	0	; select bank0
  5327  003A  0824               	movf	I2C1_MasterOperation@returnValue,w
  5328  003B                     l316:
  5329  003B  0008               	return
  5330  003C                     __end_of_I2C1_MasterOperation:
  5331                           
  5332                           	psect	text24
  5333  0EF4                     __ptext24:	
  5334 ;; *************** function _I2C1_Poller *****************
  5335 ;; Defined at:
  5336 ;;		line 312 in file "mcc_generated_files/i2c1_master.c"
  5337 ;; Parameters:    Size  Location     Type
  5338 ;;		None
  5339 ;; Auto vars:     Size  Location     Type
  5340 ;;		None
  5341 ;; Return value:  Size  Location     Type
  5342 ;;                  1    wreg      void 
  5343 ;; Registers used:
  5344 ;;		wreg, fsr0l, fsr0h, fsr1l, fsr1h, status,2, status,0, pclath, cstack
  5345 ;; Tracked objects:
  5346 ;;		On entry : 0/0
  5347 ;;		On exit  : 0/0
  5348 ;;		Unchanged: 0/0
  5349 ;; Data sizes:     COMMON   BANK0   BANK1   BANK2   BANK3   BANK4
  5350 ;;      Params:         0       0       0       0       0       0
  5351 ;;      Locals:         0       0       0       0       0       0
  5352 ;;      Temps:          0       0       0       0       0       0
  5353 ;;      Totals:         0       0       0       0       0       0
  5354 ;;Total ram usage:        0 bytes
  5355 ;; Hardware stack levels used: 1
  5356 ;; Hardware stack levels required when called: 5
  5357 ;; This function calls:
  5358 ;;		_I2C1_MasterFsm
  5359 ;;		_I2C1_MasterWaitForEvent
  5360 ;; This function is called by:
  5361 ;;		_I2C1_MasterOperation
  5362 ;; This function uses a non-reentrant model
  5363 ;;
  5364                           
  5365  0EF4                     _I2C1_Poller:	
  5366                           ;psect for function _I2C1_Poller
  5367                           
  5368  0EF4                     l2794:	
  5369                           ;incstack = 0
  5370                           ; Regs used in _I2C1_Poller: [wreg-fsr1h+status,2+status,0+pclath+cstack]
  5371                           
  5372                           
  5373                           ;mcc_generated_files/i2c1_master.c: 314:     while(I2C1_Status.busy)
  5374  0EF4  2EFB               	goto	l2800
  5375  0EF5                     l2796:
  5376                           
  5377                           ;mcc_generated_files/i2c1_master.c: 315:     {;mcc_generated_files/i2c1_master.c: 316:  
      +                                 I2C1_MasterWaitForEvent();
  5378  0EF5  318E  26AB  318E   	fcall	_I2C1_MasterWaitForEvent
  5379  0EF8                     l2798:
  5380                           
  5381                           ;mcc_generated_files/i2c1_master.c: 317:         I2C1_MasterFsm();
  5382  0EF8  3180  20D9  318E   	fcall	_I2C1_MasterFsm
  5383  0EFB                     l2800:
  5384                           
  5385                           ;mcc_generated_files/i2c1_master.c: 314:     while(I2C1_Status.busy)
  5386  0EFB  0021               	movlb	1	; select bank1
  5387  0EFC  18BC               	btfsc	(_I2C1_Status^(0+128)+28),1
  5388  0EFD  2EFF               	goto	u1241
  5389  0EFE  2F00               	goto	u1240
  5390  0EFF                     u1241:
  5391  0EFF  2EF5               	goto	l2796
  5392  0F00                     u1240:
  5393  0F00                     l355:
  5394  0F00  0008               	return
  5395  0F01                     __end_of_I2C1_Poller:
  5396                           
  5397                           	psect	text25
  5398  0EAB                     __ptext25:	
  5399 ;; *************** function _I2C1_MasterWaitForEvent *****************
  5400 ;; Defined at:
  5401 ;;		line 650 in file "mcc_generated_files/i2c1_master.c"
  5402 ;; Parameters:    Size  Location     Type
  5403 ;;		None
  5404 ;; Auto vars:     Size  Location     Type
  5405 ;;		None
  5406 ;; Return value:  Size  Location     Type
  5407 ;;                  1    wreg      void 
  5408 ;; Registers used:
  5409 ;;		None
  5410 ;; Tracked objects:
  5411 ;;		On entry : 0/0
  5412 ;;		On exit  : 0/0
  5413 ;;		Unchanged: 0/0
  5414 ;; Data sizes:     COMMON   BANK0   BANK1   BANK2   BANK3   BANK4
  5415 ;;      Params:         0       0       0       0       0       0
  5416 ;;      Locals:         0       0       0       0       0       0
  5417 ;;      Temps:          0       0       0       0       0       0
  5418 ;;      Totals:         0       0       0       0       0       0
  5419 ;;Total ram usage:        0 bytes
  5420 ;; Hardware stack levels used: 1
  5421 ;; This function calls:
  5422 ;;		Nothing
  5423 ;; This function is called by:
  5424 ;;		_I2C1_Poller
  5425 ;; This function uses a non-reentrant model
  5426 ;;
  5427                           
  5428  0EAB                     _I2C1_MasterWaitForEvent:	
  5429                           ;psect for function _I2C1_MasterWaitForEvent
  5430                           
  5431  0EAB                     l528:	
  5432                           ;incstack = 0
  5433                           ; Regs used in _I2C1_MasterWaitForEvent: []
  5434                           ;mcc_generated_files/i2c1_master.c: 652:     while(1)
  5435                           
  5436                           
  5437                           ;mcc_generated_files/i2c1_master.c: 653:     {;mcc_generated_files/i2c1_master.c: 654:  
      +                                 if(PIR1bits.SSP1IF)
  5438  0EAB  0020               	movlb	0	; select bank0
  5439  0EAC  1D91               	btfss	17,3	;volatile
  5440  0EAD  2EAF               	goto	u1211
  5441  0EAE  2EB0               	goto	u1210
  5442  0EAF                     u1211:
  5443  0EAF  2EAB               	goto	l528
  5444  0EB0                     u1210:
  5445  0EB0                     l532:
  5446  0EB0  0008               	return
  5447  0EB1                     __end_of_I2C1_MasterWaitForEvent:
  5448                           
  5449                           	psect	text26
  5450  00D9                     __ptext26:	
  5451 ;; *************** function _I2C1_MasterFsm *****************
  5452 ;; Defined at:
  5453 ;;		line 321 in file "mcc_generated_files/i2c1_master.c"
  5454 ;; Parameters:    Size  Location     Type
  5455 ;;		None
  5456 ;; Auto vars:     Size  Location     Type
  5457 ;;		None
  5458 ;; Return value:  Size  Location     Type
  5459 ;;                  1    wreg      void 
  5460 ;; Registers used:
  5461 ;;		wreg, fsr0l, fsr0h, fsr1l, fsr1h, status,2, status,0, pclath, cstack
  5462 ;; Tracked objects:
  5463 ;;		On entry : 0/0
  5464 ;;		On exit  : 0/0
  5465 ;;		Unchanged: 0/0
  5466 ;; Data sizes:     COMMON   BANK0   BANK1   BANK2   BANK3   BANK4
  5467 ;;      Params:         0       0       0       0       0       0
  5468 ;;      Locals:         0       0       0       0       0       0
  5469 ;;      Temps:          0       3       0       0       0       0
  5470 ;;      Totals:         0       3       0       0       0       0
  5471 ;;Total ram usage:        3 bytes
  5472 ;; Hardware stack levels used: 1
  5473 ;; Hardware stack levels required when called: 4
  5474 ;; This function calls:
  5475 ;;		_I2C1_DO_ADDRESS_NACK
  5476 ;;		_I2C1_DO_IDLE
  5477 ;;		_I2C1_DO_RCEN
  5478 ;;		_I2C1_DO_RESET
  5479 ;;		_I2C1_DO_RX
  5480 ;;		_I2C1_DO_RX_ACK
  5481 ;;		_I2C1_DO_RX_NACK_RESTART
  5482 ;;		_I2C1_DO_RX_NACK_STOP
  5483 ;;		_I2C1_DO_SEND_ADR_READ
  5484 ;;		_I2C1_DO_SEND_ADR_WRITE
  5485 ;;		_I2C1_DO_SEND_RESTART
  5486 ;;		_I2C1_DO_SEND_RESTART_READ
  5487 ;;		_I2C1_DO_SEND_RESTART_WRITE
  5488 ;;		_I2C1_DO_SEND_STOP
  5489 ;;		_I2C1_DO_TX
  5490 ;;		_I2C1_DO_TX_EMPTY
  5491 ;;		_I2C1_MasterClearIrq
  5492 ;;		_I2C1_MasterIsNack
  5493 ;; This function is called by:
  5494 ;;		_I2C1_Poller
  5495 ;; This function uses a non-reentrant model
  5496 ;;
  5497                           
  5498  00D9                     _I2C1_MasterFsm:	
  5499                           ;psect for function _I2C1_MasterFsm
  5500                           
  5501  00D9                     l2782:	
  5502                           ;incstack = 0
  5503                           ; Regs used in _I2C1_MasterFsm: [wreg-fsr1h+status,2+status,0+pclath+cstack]
  5504                           
  5505                           
  5506                           ;mcc_generated_files/i2c1_master.c: 323:     I2C1_MasterClearIrq();
  5507  00D9  318E  2647  3180   	fcall	_I2C1_MasterClearIrq
  5508  00DC                     l2784:
  5509                           
  5510                           ;mcc_generated_files/i2c1_master.c: 325:     if(I2C1_Status.addressNackCheck && I2C1_Mas
      +                          terIsNack())
  5511  00DC  0021               	movlb	1	; select bank1
  5512  00DD  1C3C               	btfss	(_I2C1_Status^(0+128)+28),0
  5513  00DE  28E0               	goto	u1221
  5514  00DF  28E1               	goto	u1220
  5515  00E0                     u1221:
  5516  00E0  28EF               	goto	l2790
  5517  00E1                     u1220:
  5518  00E1                     l2786:
  5519  00E1  318E  26A5  3180   	fcall	_I2C1_MasterIsNack
  5520  00E4  3A00               	xorlw	0
  5521  00E5  1903               	skipnz
  5522  00E6  28E8               	goto	u1231
  5523  00E7  28E9               	goto	u1230
  5524  00E8                     u1231:
  5525  00E8  28EF               	goto	l2790
  5526  00E9                     u1230:
  5527  00E9                     l2788:
  5528                           
  5529                           ;mcc_generated_files/i2c1_master.c: 326:     {;mcc_generated_files/i2c1_master.c: 327:  
      +                                 I2C1_Status.state = I2C1_ADDRESS_NACK;
  5530  00E9  300F               	movlw	15
  5531  00EA  0020               	movlb	0	; select bank0
  5532  00EB  00A0               	movwf	??_I2C1_MasterFsm
  5533  00EC  0820               	movf	??_I2C1_MasterFsm,w
  5534  00ED  0021               	movlb	1	; select bank1
  5535  00EE  00BA               	movwf	(_I2C1_Status^(0+128)+26)
  5536  00EF                     l2790:
  5537                           
  5538                           ;mcc_generated_files/i2c1_master.c: 329:     I2C1_Status.state = i2c1_fsmStateTable[I2C1
      +                          _Status.state]();
  5539  00EF  0021               	movlb	1	; select bank1
  5540  00F0  083A               	movf	(_I2C1_Status^(0+128)+26),w
  5541  00F1  0020               	movlb	0	; select bank0
  5542  00F2  00A0               	movwf	??_I2C1_MasterFsm
  5543  00F3  01A1               	clrf	??_I2C1_MasterFsm+1
  5544  00F4  35A0               	lslf	??_I2C1_MasterFsm,f
  5545  00F5  0DA1               	rlf	??_I2C1_MasterFsm+1,f
  5546  00F6  3000               	movlw	low (_i2c1_fsmStateTable| (0+32768))
  5547  00F7  0720               	addwf	??_I2C1_MasterFsm,w
  5548  00F8  0084               	movwf	4
  5549  00F9  3088               	movlw	high (_i2c1_fsmStateTable| (0+32768))
  5550  00FA  3D21               	addwfc	??_I2C1_MasterFsm+1,w
  5551  00FB  0085               	movwf	5
  5552  00FC  3F01               	moviw [1]fsr0
  5553  00FD  008A               	movwf	10
  5554  00FE  3F00               	moviw [0]fsr0
  5555  00FF  000A               	callw
  5556  0100  3180               	pagesel	$
  5557  0101  0020               	movlb	0	; select bank0
  5558  0102  00A2               	movwf	??_I2C1_MasterFsm+2
  5559  0103  0822               	movf	??_I2C1_MasterFsm+2,w
  5560  0104  0021               	movlb	1	; select bank1
  5561  0105  00BA               	movwf	(_I2C1_Status^(0+128)+26)
  5562  0106                     l359:
  5563  0106  0008               	return
  5564  0107                     __end_of_I2C1_MasterFsm:
  5565                           
  5566                           	psect	text27
  5567  00AD                     __ptext27:	
  5568 ;; *************** function _I2C1_DO_ADDRESS_NACK *****************
  5569 ;; Defined at:
  5570 ;;		line 500 in file "mcc_generated_files/i2c1_master.c"
  5571 ;; Parameters:    Size  Location     Type
  5572 ;;		None
  5573 ;; Auto vars:     Size  Location     Type
  5574 ;;		None
  5575 ;; Return value:  Size  Location     Type
  5576 ;;                  1    wreg      enum E2870
  5577 ;; Registers used:
  5578 ;;		wreg, fsr0l, fsr0h, fsr1l, fsr1h, status,2, status,0, pclath, cstack
  5579 ;; Tracked objects:
  5580 ;;		On entry : 0/0
  5581 ;;		On exit  : 0/0
  5582 ;;		Unchanged: 0/0
  5583 ;; Data sizes:     COMMON   BANK0   BANK1   BANK2   BANK3   BANK4
  5584 ;;      Params:         0       0       0       0       0       0
  5585 ;;      Locals:         0       0       0       0       0       0
  5586 ;;      Temps:          3       0       0       0       0       0
  5587 ;;      Totals:         3       0       0       0       0       0
  5588 ;;Total ram usage:        3 bytes
  5589 ;; Hardware stack levels used: 1
  5590 ;; Hardware stack levels required when called: 3
  5591 ;; This function calls:
  5592 ;;		Absolute function
  5593 ;;		_I2C1_CallbackReturnReset
  5594 ;;		_I2C1_CallbackReturnStop
  5595 ;;		_I2C1_DO_SEND_RESTART
  5596 ;;		_I2C1_DO_SEND_STOP
  5597 ;;		_rd1RegCompleteHandler
  5598 ;;		_rd2RegCompleteHandler
  5599 ;;		_rdBlkRegCompleteHandler
  5600 ;;		_wr1RegCompleteHandler
  5601 ;;		_wr2RegCompleteHandler
  5602 ;; This function is called by:
  5603 ;;		_I2C1_MasterFsm
  5604 ;; This function uses a non-reentrant model
  5605 ;;
  5606                           
  5607  00AD                     _I2C1_DO_ADDRESS_NACK:	
  5608                           ;psect for function _I2C1_DO_ADDRESS_NACK
  5609                           
  5610  00AD                     l2758:	
  5611                           ;incstack = 0
  5612                           ; Regs used in _I2C1_DO_ADDRESS_NACK: [wreg-fsr1h+status,2+status,0+pclath+cstack]
  5613                           
  5614                           
  5615                           ;mcc_generated_files/i2c1_master.c: 502:     I2C1_Status.addressNackCheck = 0;
  5616  00AD  0021               	movlb	1	; select bank1
  5617  00AE  103C               	bcf	(_I2C1_Status^(0+128)+28),0
  5618  00AF                     l2760:
  5619                           
  5620                           ;mcc_generated_files/i2c1_master.c: 503:     I2C1_Status.error = I2C1_FAIL;
  5621  00AF  3002               	movlw	2
  5622  00B0  00FA               	movwf	??_I2C1_DO_ADDRESS_NACK
  5623  00B1  087A               	movf	??_I2C1_DO_ADDRESS_NACK,w
  5624  00B2  00BB               	movwf	(_I2C1_Status^(0+128)+27)
  5625                           
  5626                           ;mcc_generated_files/i2c1_master.c: 504:     switch(I2C1_Status.callbackTable[I2C1_ADDR_
      +                          NACK](I2C1_Status.callbackPayload[I2C1_ADDR_NACK]))
  5627  00B3  28BC               	goto	l2772
  5628  00B4                     l2762:
  5629                           
  5630                           ;mcc_generated_files/i2c1_master.c: 508:             return I2C1_DO_SEND_RESTART();
  5631  00B4  318E  2682  3180   	fcall	_I2C1_DO_SEND_RESTART
  5632  00B7  28D8               	goto	l450
  5633  00B8                     l2766:
  5634                           
  5635                           ;mcc_generated_files/i2c1_master.c: 510:             return I2C1_DO_SEND_STOP();
  5636  00B8  318E  2687  3180   	fcall	_I2C1_DO_SEND_STOP
  5637  00BB  28D8               	goto	l450
  5638  00BC                     l2772:
  5639  00BC  082E               	movf	(low ((_I2C1_Status| 0+14)))^(0+128),w
  5640  00BD  00FA               	movwf	??_I2C1_DO_ADDRESS_NACK
  5641  00BE  087A               	movf	??_I2C1_DO_ADDRESS_NACK,w
  5642  00BF  00F9               	movwf	I2C1_CallbackReturnReset@funPtr
  5643  00C0  3004               	movlw	4
  5644  00C1  3EA0               	addlw	(low (_I2C1_Status| 0))& (0+255)
  5645  00C2  0086               	movwf	6
  5646  00C3  0187               	clrf	7
  5647  00C4  3F41               	moviw [1]fsr1
  5648  00C5  008A               	movwf	10
  5649  00C6  3F40               	moviw [0]fsr1
  5650  00C7  000A               	callw
  5651  00C8  3180               	pagesel	$
  5652  00C9  00FB               	movwf	??_I2C1_DO_ADDRESS_NACK+1
  5653  00CA  01FC               	clrf	??_I2C1_DO_ADDRESS_NACK+2
  5654                           
  5655                           ; Switch on 2 bytes has been partitioned into a top level switch of size 1, and 1 sub-sw
      +                          itches
  5656                           ; Switch size 1, requested type "simple"
  5657                           ; Number of cases is 1, Range of values is 0 to 0
  5658                           ; switch strategies available:
  5659                           ; Name         Instructions Cycles
  5660                           ; simple_byte            4     3 (average)
  5661                           ; direct_byte            8     6 (fixed)
  5662                           ; jumptable            260     6 (fixed)
  5663                           ;	Chosen strategy is simple_byte
  5664  00CB  087C               	movf	??_I2C1_DO_ADDRESS_NACK+2,w
  5665  00CC  3A00               	xorlw	0	; case 0
  5666  00CD  1903               	skipnz
  5667  00CE  28D0               	goto	l3718
  5668  00CF  28B8               	goto	l2766
  5669  00D0                     l3718:
  5670                           
  5671                           ; Switch size 1, requested type "simple"
  5672                           ; Number of cases is 2, Range of values is 2 to 3
  5673                           ; switch strategies available:
  5674                           ; Name         Instructions Cycles
  5675                           ; simple_byte            7     4 (average)
  5676                           ; direct_byte           13     9 (fixed)
  5677                           ; jumptable            263     9 (fixed)
  5678                           ;	Chosen strategy is simple_byte
  5679  00D0  087B               	movf	??_I2C1_DO_ADDRESS_NACK+1,w
  5680  00D1  3A02               	xorlw	2	; case 2
  5681  00D2  1903               	skipnz
  5682  00D3  28B4               	goto	l2762
  5683  00D4  3A01               	xorlw	1	; case 3
  5684  00D5  1903               	skipnz
  5685  00D6  28B4               	goto	l2762
  5686  00D7  28B8               	goto	l2766
  5687  00D8                     l450:
  5688  00D8  0008               	return
  5689  00D9                     __end_of_I2C1_DO_ADDRESS_NACK:
  5690                           
  5691                           	psect	text28
  5692  0E9B                     __ptext28:	
  5693 ;; *************** function _I2C1_DO_RESET *****************
  5694 ;; Defined at:
  5695 ;;		line 494 in file "mcc_generated_files/i2c1_master.c"
  5696 ;; Parameters:    Size  Location     Type
  5697 ;;		None
  5698 ;; Auto vars:     Size  Location     Type
  5699 ;;		None
  5700 ;; Return value:  Size  Location     Type
  5701 ;;                  1    wreg      enum E2870
  5702 ;; Registers used:
  5703 ;;		wreg, status,2
  5704 ;; Tracked objects:
  5705 ;;		On entry : 0/0
  5706 ;;		On exit  : 0/0
  5707 ;;		Unchanged: 0/0
  5708 ;; Data sizes:     COMMON   BANK0   BANK1   BANK2   BANK3   BANK4
  5709 ;;      Params:         0       0       0       0       0       0
  5710 ;;      Locals:         0       0       0       0       0       0
  5711 ;;      Temps:          0       0       0       0       0       0
  5712 ;;      Totals:         0       0       0       0       0       0
  5713 ;;Total ram usage:        0 bytes
  5714 ;; Hardware stack levels used: 1
  5715 ;; This function calls:
  5716 ;;		Nothing
  5717 ;; This function is called by:
  5718 ;;		_I2C1_MasterFsm
  5719 ;; This function uses a non-reentrant model
  5720 ;;
  5721                           
  5722  0E9B                     _I2C1_DO_RESET:	
  5723                           ;psect for function _I2C1_DO_RESET
  5724                           
  5725  0E9B                     l2750:	
  5726                           ;incstack = 0
  5727                           ; Regs used in _I2C1_DO_RESET: [wreg+status,2]
  5728                           
  5729                           
  5730                           ;mcc_generated_files/i2c1_master.c: 496:     I2C1_Status.busy = 0;
  5731  0E9B  0021               	movlb	1	; select bank1
  5732  0E9C  10BC               	bcf	(_I2C1_Status^(0+128)+28),1
  5733  0E9D                     l2752:
  5734                           
  5735                           ;mcc_generated_files/i2c1_master.c: 497:     I2C1_Status.error = I2C1_NOERR;
  5736  0E9D  01BB               	clrf	(_I2C1_Status^(0+128)+27)
  5737  0E9E                     l2754:
  5738                           
  5739                           ;mcc_generated_files/i2c1_master.c: 498:     return I2C1_RESET;
  5740  0E9E  300E               	movlw	14
  5741  0E9F                     l444:
  5742  0E9F  0008               	return
  5743  0EA0                     __end_of_I2C1_DO_RESET:
  5744                           
  5745                           	psect	text29
  5746  0E96                     __ptext29:	
  5747 ;; *************** function _I2C1_DO_RX_NACK_RESTART *****************
  5748 ;; Defined at:
  5749 ;;		line 488 in file "mcc_generated_files/i2c1_master.c"
  5750 ;; Parameters:    Size  Location     Type
  5751 ;;		None
  5752 ;; Auto vars:     Size  Location     Type
  5753 ;;		None
  5754 ;; Return value:  Size  Location     Type
  5755 ;;                  1    wreg      enum E2870
  5756 ;; Registers used:
  5757 ;;		wreg, status,2, status,0, pclath, cstack
  5758 ;; Tracked objects:
  5759 ;;		On entry : 0/0
  5760 ;;		On exit  : 0/0
  5761 ;;		Unchanged: 0/0
  5762 ;; Data sizes:     COMMON   BANK0   BANK1   BANK2   BANK3   BANK4
  5763 ;;      Params:         0       0       0       0       0       0
  5764 ;;      Locals:         0       0       0       0       0       0
  5765 ;;      Temps:          0       0       0       0       0       0
  5766 ;;      Totals:         0       0       0       0       0       0
  5767 ;;Total ram usage:        0 bytes
  5768 ;; Hardware stack levels used: 1
  5769 ;; Hardware stack levels required when called: 1
  5770 ;; This function calls:
  5771 ;;		_I2C1_MasterSendNack
  5772 ;; This function is called by:
  5773 ;;		_I2C1_DO_RX
  5774 ;;		_I2C1_MasterFsm
  5775 ;; This function uses a non-reentrant model
  5776 ;;
  5777                           
  5778  0E96                     _I2C1_DO_RX_NACK_RESTART:	
  5779                           ;psect for function _I2C1_DO_RX_NACK_RESTART
  5780                           
  5781  0E96                     l2588:	
  5782                           ;incstack = 0
  5783                           ; Regs used in _I2C1_DO_RX_NACK_RESTART: [wreg+status,2+status,0+pclath+cstack]
  5784                           
  5785                           
  5786                           ;mcc_generated_files/i2c1_master.c: 490:     I2C1_MasterSendNack();
  5787  0E96  318E  2662  318E   	fcall	_I2C1_MasterSendNack
  5788  0E99                     l2590:
  5789                           
  5790                           ;mcc_generated_files/i2c1_master.c: 491:     return I2C1_SEND_RESTART;
  5791  0E99  3009               	movlw	9
  5792  0E9A                     l441:
  5793  0E9A  0008               	return
  5794  0E9B                     __end_of_I2C1_DO_RX_NACK_RESTART:
  5795                           
  5796                           	psect	text30
  5797  0E91                     __ptext30:	
  5798 ;; *************** function _I2C1_DO_RX_NACK_STOP *****************
  5799 ;; Defined at:
  5800 ;;		line 482 in file "mcc_generated_files/i2c1_master.c"
  5801 ;; Parameters:    Size  Location     Type
  5802 ;;		None
  5803 ;; Auto vars:     Size  Location     Type
  5804 ;;		None
  5805 ;; Return value:  Size  Location     Type
  5806 ;;                  1    wreg      enum E2870
  5807 ;; Registers used:
  5808 ;;		wreg, status,2, status,0, pclath, cstack
  5809 ;; Tracked objects:
  5810 ;;		On entry : 0/0
  5811 ;;		On exit  : 0/0
  5812 ;;		Unchanged: 0/0
  5813 ;; Data sizes:     COMMON   BANK0   BANK1   BANK2   BANK3   BANK4
  5814 ;;      Params:         0       0       0       0       0       0
  5815 ;;      Locals:         0       0       0       0       0       0
  5816 ;;      Temps:          0       0       0       0       0       0
  5817 ;;      Totals:         0       0       0       0       0       0
  5818 ;;Total ram usage:        0 bytes
  5819 ;; Hardware stack levels used: 1
  5820 ;; Hardware stack levels required when called: 1
  5821 ;; This function calls:
  5822 ;;		_I2C1_MasterSendNack
  5823 ;; This function is called by:
  5824 ;;		_I2C1_DO_RX
  5825 ;;		_I2C1_MasterFsm
  5826 ;; This function uses a non-reentrant model
  5827 ;;
  5828                           
  5829  0E91                     _I2C1_DO_RX_NACK_STOP:	
  5830                           ;psect for function _I2C1_DO_RX_NACK_STOP
  5831                           
  5832  0E91                     l2594:	
  5833                           ;incstack = 0
  5834                           ; Regs used in _I2C1_DO_RX_NACK_STOP: [wreg+status,2+status,0+pclath+cstack]
  5835                           
  5836                           
  5837                           ;mcc_generated_files/i2c1_master.c: 484:     I2C1_MasterSendNack();
  5838  0E91  318E  2662  318E   	fcall	_I2C1_MasterSendNack
  5839  0E94                     l2596:
  5840                           
  5841                           ;mcc_generated_files/i2c1_master.c: 485:     return I2C1_SEND_STOP;
  5842  0E94  300A               	movlw	10
  5843  0E95                     l438:
  5844  0E95  0008               	return
  5845  0E96                     __end_of_I2C1_DO_RX_NACK_STOP:
  5846                           
  5847                           	psect	text31
  5848  0E8C                     __ptext31:	
  5849 ;; *************** function _I2C1_DO_RX_ACK *****************
  5850 ;; Defined at:
  5851 ;;		line 475 in file "mcc_generated_files/i2c1_master.c"
  5852 ;; Parameters:    Size  Location     Type
  5853 ;;		None
  5854 ;; Auto vars:     Size  Location     Type
  5855 ;;		None
  5856 ;; Return value:  Size  Location     Type
  5857 ;;                  1    wreg      enum E2870
  5858 ;; Registers used:
  5859 ;;		wreg, status,2, status,0, pclath, cstack
  5860 ;; Tracked objects:
  5861 ;;		On entry : 0/0
  5862 ;;		On exit  : 0/0
  5863 ;;		Unchanged: 0/0
  5864 ;; Data sizes:     COMMON   BANK0   BANK1   BANK2   BANK3   BANK4
  5865 ;;      Params:         0       0       0       0       0       0
  5866 ;;      Locals:         0       0       0       0       0       0
  5867 ;;      Temps:          0       0       0       0       0       0
  5868 ;;      Totals:         0       0       0       0       0       0
  5869 ;;Total ram usage:        0 bytes
  5870 ;; Hardware stack levels used: 1
  5871 ;; Hardware stack levels required when called: 1
  5872 ;; This function calls:
  5873 ;;		_I2C1_MasterSendAck
  5874 ;; This function is called by:
  5875 ;;		_I2C1_MasterFsm
  5876 ;; This function uses a non-reentrant model
  5877 ;;
  5878                           
  5879  0E8C                     _I2C1_DO_RX_ACK:	
  5880                           ;psect for function _I2C1_DO_RX_ACK
  5881                           
  5882  0E8C                     l2744:	
  5883                           ;incstack = 0
  5884                           ; Regs used in _I2C1_DO_RX_ACK: [wreg+status,2+status,0+pclath+cstack]
  5885                           
  5886                           
  5887                           ;mcc_generated_files/i2c1_master.c: 477:     I2C1_MasterSendAck();
  5888  0E8C  318E  2666  318E   	fcall	_I2C1_MasterSendAck
  5889  0E8F                     l2746:
  5890                           
  5891                           ;mcc_generated_files/i2c1_master.c: 478:     return I2C1_RCEN;
  5892  0E8F  3005               	movlw	5
  5893  0E90                     l435:
  5894  0E90  0008               	return
  5895  0E91                     __end_of_I2C1_DO_RX_ACK:
  5896                           
  5897                           	psect	text32
  5898  0E87                     __ptext32:	
  5899 ;; *************** function _I2C1_DO_SEND_STOP *****************
  5900 ;; Defined at:
  5901 ;;		line 469 in file "mcc_generated_files/i2c1_master.c"
  5902 ;; Parameters:    Size  Location     Type
  5903 ;;		None
  5904 ;; Auto vars:     Size  Location     Type
  5905 ;;		None
  5906 ;; Return value:  Size  Location     Type
  5907 ;;                  1    wreg      enum E2870
  5908 ;; Registers used:
  5909 ;;		wreg, status,2, status,0, pclath, cstack
  5910 ;; Tracked objects:
  5911 ;;		On entry : 0/0
  5912 ;;		On exit  : 0/0
  5913 ;;		Unchanged: 0/0
  5914 ;; Data sizes:     COMMON   BANK0   BANK1   BANK2   BANK3   BANK4
  5915 ;;      Params:         0       0       0       0       0       0
  5916 ;;      Locals:         0       0       0       0       0       0
  5917 ;;      Temps:          0       0       0       0       0       0
  5918 ;;      Totals:         0       0       0       0       0       0
  5919 ;;Total ram usage:        0 bytes
  5920 ;; Hardware stack levels used: 1
  5921 ;; Hardware stack levels required when called: 1
  5922 ;; This function calls:
  5923 ;;		_I2C1_MasterStop
  5924 ;; This function is called by:
  5925 ;;		_I2C1_DO_TX
  5926 ;;		_I2C1_DO_TX_EMPTY
  5927 ;;		_I2C1_DO_ADDRESS_NACK
  5928 ;;		_I2C1_MasterFsm
  5929 ;; This function uses a non-reentrant model
  5930 ;;
  5931                           
  5932  0E87                     _I2C1_DO_SEND_STOP:	
  5933                           ;psect for function _I2C1_DO_SEND_STOP
  5934                           
  5935  0E87                     l2576:	
  5936                           ;incstack = 0
  5937                           ; Regs used in _I2C1_DO_SEND_STOP: [wreg+status,2+status,0+pclath+cstack]
  5938                           
  5939                           
  5940                           ;mcc_generated_files/i2c1_master.c: 471:     I2C1_MasterStop();
  5941  0E87  318E  2656  318E   	fcall	_I2C1_MasterStop
  5942  0E8A                     l2578:
  5943                           
  5944                           ;mcc_generated_files/i2c1_master.c: 472:     return I2C1_IDLE;
  5945  0E8A  3000               	movlw	0
  5946  0E8B                     l432:
  5947  0E8B  0008               	return
  5948  0E8C                     __end_of_I2C1_DO_SEND_STOP:
  5949                           
  5950                           	psect	text33
  5951  0E82                     __ptext33:	
  5952 ;; *************** function _I2C1_DO_SEND_RESTART *****************
  5953 ;; Defined at:
  5954 ;;		line 463 in file "mcc_generated_files/i2c1_master.c"
  5955 ;; Parameters:    Size  Location     Type
  5956 ;;		None
  5957 ;; Auto vars:     Size  Location     Type
  5958 ;;		None
  5959 ;; Return value:  Size  Location     Type
  5960 ;;                  1    wreg      enum E2870
  5961 ;; Registers used:
  5962 ;;		wreg, status,2, status,0, pclath, cstack
  5963 ;; Tracked objects:
  5964 ;;		On entry : 0/0
  5965 ;;		On exit  : 0/0
  5966 ;;		Unchanged: 0/0
  5967 ;; Data sizes:     COMMON   BANK0   BANK1   BANK2   BANK3   BANK4
  5968 ;;      Params:         0       0       0       0       0       0
  5969 ;;      Locals:         0       0       0       0       0       0
  5970 ;;      Temps:          0       0       0       0       0       0
  5971 ;;      Totals:         0       0       0       0       0       0
  5972 ;;Total ram usage:        0 bytes
  5973 ;; Hardware stack levels used: 1
  5974 ;; Hardware stack levels required when called: 1
  5975 ;; This function calls:
  5976 ;;		_I2C1_MasterEnableRestart
  5977 ;; This function is called by:
  5978 ;;		_I2C1_DO_TX_EMPTY
  5979 ;;		_I2C1_DO_ADDRESS_NACK
  5980 ;;		_I2C1_MasterFsm
  5981 ;; This function uses a non-reentrant model
  5982 ;;
  5983                           
  5984  0E82                     _I2C1_DO_SEND_RESTART:	
  5985                           ;psect for function _I2C1_DO_SEND_RESTART
  5986                           
  5987  0E82                     l2602:	
  5988                           ;incstack = 0
  5989                           ; Regs used in _I2C1_DO_SEND_RESTART: [wreg+status,2+status,0+pclath+cstack]
  5990                           
  5991                           
  5992                           ;mcc_generated_files/i2c1_master.c: 465:     I2C1_MasterEnableRestart();
  5993  0E82  318E  2653  318E   	fcall	_I2C1_MasterEnableRestart
  5994  0E85                     l2604:
  5995                           
  5996                           ;mcc_generated_files/i2c1_master.c: 466:     return I2C1_SEND_ADR_READ;
  5997  0E85  3001               	movlw	1
  5998  0E86                     l429:
  5999  0E86  0008               	return
  6000  0E87                     __end_of_I2C1_DO_SEND_RESTART:
  6001                           
  6002                           	psect	text34
  6003  0E7D                     __ptext34:	
  6004 ;; *************** function _I2C1_DO_SEND_RESTART_WRITE *****************
  6005 ;; Defined at:
  6006 ;;		line 456 in file "mcc_generated_files/i2c1_master.c"
  6007 ;; Parameters:    Size  Location     Type
  6008 ;;		None
  6009 ;; Auto vars:     Size  Location     Type
  6010 ;;		None
  6011 ;; Return value:  Size  Location     Type
  6012 ;;                  1    wreg      enum E2870
  6013 ;; Registers used:
  6014 ;;		wreg, status,2, status,0, pclath, cstack
  6015 ;; Tracked objects:
  6016 ;;		On entry : 0/0
  6017 ;;		On exit  : 0/0
  6018 ;;		Unchanged: 0/0
  6019 ;; Data sizes:     COMMON   BANK0   BANK1   BANK2   BANK3   BANK4
  6020 ;;      Params:         0       0       0       0       0       0
  6021 ;;      Locals:         0       0       0       0       0       0
  6022 ;;      Temps:          0       0       0       0       0       0
  6023 ;;      Totals:         0       0       0       0       0       0
  6024 ;;Total ram usage:        0 bytes
  6025 ;; Hardware stack levels used: 1
  6026 ;; Hardware stack levels required when called: 1
  6027 ;; This function calls:
  6028 ;;		_I2C1_MasterEnableRestart
  6029 ;; This function is called by:
  6030 ;;		_I2C1_DO_TX
  6031 ;;		_I2C1_MasterFsm
  6032 ;; This function uses a non-reentrant model
  6033 ;;
  6034                           
  6035  0E7D                     _I2C1_DO_SEND_RESTART_WRITE:	
  6036                           ;psect for function _I2C1_DO_SEND_RESTART_WRITE
  6037                           
  6038  0E7D                     l2570:	
  6039                           ;incstack = 0
  6040                           ; Regs used in _I2C1_DO_SEND_RESTART_WRITE: [wreg+status,2+status,0+pclath+cstack]
  6041                           
  6042                           
  6043                           ;mcc_generated_files/i2c1_master.c: 458:     I2C1_MasterEnableRestart();
  6044  0E7D  318E  2653  318E   	fcall	_I2C1_MasterEnableRestart
  6045  0E80                     l2572:
  6046                           
  6047                           ;mcc_generated_files/i2c1_master.c: 459:     return I2C1_SEND_ADR_WRITE;
  6048  0E80  3002               	movlw	2
  6049  0E81                     l426:
  6050  0E81  0008               	return
  6051  0E82                     __end_of_I2C1_DO_SEND_RESTART_WRITE:
  6052                           
  6053                           	psect	text35
  6054  0E78                     __ptext35:	
  6055 ;; *************** function _I2C1_DO_SEND_RESTART_READ *****************
  6056 ;; Defined at:
  6057 ;;		line 450 in file "mcc_generated_files/i2c1_master.c"
  6058 ;; Parameters:    Size  Location     Type
  6059 ;;		None
  6060 ;; Auto vars:     Size  Location     Type
  6061 ;;		None
  6062 ;; Return value:  Size  Location     Type
  6063 ;;                  1    wreg      enum E2870
  6064 ;; Registers used:
  6065 ;;		wreg, status,2, status,0, pclath, cstack
  6066 ;; Tracked objects:
  6067 ;;		On entry : 0/0
  6068 ;;		On exit  : 0/0
  6069 ;;		Unchanged: 0/0
  6070 ;; Data sizes:     COMMON   BANK0   BANK1   BANK2   BANK3   BANK4
  6071 ;;      Params:         0       0       0       0       0       0
  6072 ;;      Locals:         0       0       0       0       0       0
  6073 ;;      Temps:          0       0       0       0       0       0
  6074 ;;      Totals:         0       0       0       0       0       0
  6075 ;;Total ram usage:        0 bytes
  6076 ;; Hardware stack levels used: 1
  6077 ;; Hardware stack levels required when called: 1
  6078 ;; This function calls:
  6079 ;;		_I2C1_MasterEnableRestart
  6080 ;; This function is called by:
  6081 ;;		_I2C1_DO_TX
  6082 ;;		_I2C1_MasterFsm
  6083 ;; This function uses a non-reentrant model
  6084 ;;
  6085                           
  6086  0E78                     _I2C1_DO_SEND_RESTART_READ:	
  6087                           ;psect for function _I2C1_DO_SEND_RESTART_READ
  6088                           
  6089  0E78                     l2564:	
  6090                           ;incstack = 0
  6091                           ; Regs used in _I2C1_DO_SEND_RESTART_READ: [wreg+status,2+status,0+pclath+cstack]
  6092                           
  6093                           
  6094                           ;mcc_generated_files/i2c1_master.c: 452:     I2C1_MasterEnableRestart();
  6095  0E78  318E  2653  318E   	fcall	_I2C1_MasterEnableRestart
  6096  0E7B                     l2566:
  6097                           
  6098                           ;mcc_generated_files/i2c1_master.c: 453:     return I2C1_SEND_ADR_READ;
  6099  0E7B  3001               	movlw	1
  6100  0E7C                     l423:
  6101  0E7C  0008               	return
  6102  0E7D                     __end_of_I2C1_DO_SEND_RESTART_READ:
  6103                           
  6104                           	psect	text36
  6105  0EB7                     __ptext36:	
  6106 ;; *************** function _I2C1_DO_RCEN *****************
  6107 ;; Defined at:
  6108 ;;		line 402 in file "mcc_generated_files/i2c1_master.c"
  6109 ;; Parameters:    Size  Location     Type
  6110 ;;		None
  6111 ;; Auto vars:     Size  Location     Type
  6112 ;;		None
  6113 ;; Return value:  Size  Location     Type
  6114 ;;                  1    wreg      enum E2870
  6115 ;; Registers used:
  6116 ;;		wreg, status,2, status,0, pclath, cstack
  6117 ;; Tracked objects:
  6118 ;;		On entry : 0/0
  6119 ;;		On exit  : 0/0
  6120 ;;		Unchanged: 0/0
  6121 ;; Data sizes:     COMMON   BANK0   BANK1   BANK2   BANK3   BANK4
  6122 ;;      Params:         0       0       0       0       0       0
  6123 ;;      Locals:         0       0       0       0       0       0
  6124 ;;      Temps:          0       0       0       0       0       0
  6125 ;;      Totals:         0       0       0       0       0       0
  6126 ;;Total ram usage:        0 bytes
  6127 ;; Hardware stack levels used: 1
  6128 ;; Hardware stack levels required when called: 1
  6129 ;; This function calls:
  6130 ;;		_I2C1_MasterStartRx
  6131 ;; This function is called by:
  6132 ;;		_I2C1_MasterFsm
  6133 ;; This function uses a non-reentrant model
  6134 ;;
  6135                           
  6136  0EB7                     _I2C1_DO_RCEN:	
  6137                           ;psect for function _I2C1_DO_RCEN
  6138                           
  6139  0EB7                     l2710:	
  6140                           ;incstack = 0
  6141                           ; Regs used in _I2C1_DO_RCEN: [wreg+status,2+status,0+pclath+cstack]
  6142                           
  6143                           
  6144                           ;mcc_generated_files/i2c1_master.c: 404:     I2C1_Status.addressNackCheck = 0;
  6145  0EB7  0021               	movlb	1	; select bank1
  6146  0EB8  103C               	bcf	(_I2C1_Status^(0+128)+28),0
  6147  0EB9                     l2712:
  6148                           
  6149                           ;mcc_generated_files/i2c1_master.c: 405:     I2C1_MasterStartRx();
  6150  0EB9  318E  2659  318E   	fcall	_I2C1_MasterStartRx
  6151  0EBC                     l2714:
  6152                           
  6153                           ;mcc_generated_files/i2c1_master.c: 406:     return I2C1_RX;
  6154  0EBC  3004               	movlw	4
  6155  0EBD                     l399:
  6156  0EBD  0008               	return
  6157  0EBE                     __end_of_I2C1_DO_RCEN:
  6158                           
  6159                           	psect	text37
  6160  0170                     __ptext37:	
  6161 ;; *************** function _I2C1_DO_RX *****************
  6162 ;; Defined at:
  6163 ;;		line 378 in file "mcc_generated_files/i2c1_master.c"
  6164 ;; Parameters:    Size  Location     Type
  6165 ;;		None
  6166 ;; Auto vars:     Size  Location     Type
  6167 ;;		None
  6168 ;; Return value:  Size  Location     Type
  6169 ;;                  1    wreg      enum E2870
  6170 ;; Registers used:
  6171 ;;		wreg, fsr0l, fsr0h, fsr1l, fsr1h, status,2, status,0, pclath, cstack
  6172 ;; Tracked objects:
  6173 ;;		On entry : 0/0
  6174 ;;		On exit  : 0/0
  6175 ;;		Unchanged: 0/0
  6176 ;; Data sizes:     COMMON   BANK0   BANK1   BANK2   BANK3   BANK4
  6177 ;;      Params:         0       0       0       0       0       0
  6178 ;;      Locals:         0       0       0       0       0       0
  6179 ;;      Temps:          3       0       0       0       0       0
  6180 ;;      Totals:         3       0       0       0       0       0
  6181 ;;Total ram usage:        3 bytes
  6182 ;; Hardware stack levels used: 1
  6183 ;; Hardware stack levels required when called: 3
  6184 ;; This function calls:
  6185 ;;		Absolute function
  6186 ;;		_I2C1_CallbackReturnReset
  6187 ;;		_I2C1_CallbackReturnStop
  6188 ;;		_I2C1_DO_RX_NACK_RESTART
  6189 ;;		_I2C1_DO_RX_NACK_STOP
  6190 ;;		_I2C1_MasterGetRxData
  6191 ;;		_I2C1_MasterSendAck
  6192 ;;		_rd1RegCompleteHandler
  6193 ;;		_rd2RegCompleteHandler
  6194 ;;		_rdBlkRegCompleteHandler
  6195 ;;		_wr1RegCompleteHandler
  6196 ;;		_wr2RegCompleteHandler
  6197 ;; This function is called by:
  6198 ;;		_I2C1_MasterFsm
  6199 ;; This function uses a non-reentrant model
  6200 ;;
  6201                           
  6202  0170                     _I2C1_DO_RX:	
  6203                           ;psect for function _I2C1_DO_RX
  6204                           
  6205  0170                     l2678:	
  6206                           ;incstack = 0
  6207                           ; Regs used in _I2C1_DO_RX: [wreg-fsr1h+status,2+status,0+pclath+cstack]
  6208                           
  6209                           
  6210                           ;mcc_generated_files/i2c1_master.c: 380:     *I2C1_Status.data_ptr++ = I2C1_MasterGetRxD
      +                          ata();
  6211  0170  318E  265C  3181   	fcall	_I2C1_MasterGetRxData
  6212  0173  00FA               	movwf	??_I2C1_DO_RX
  6213  0174  0021               	movlb	1	; select bank1
  6214  0175  0837               	movf	(low ((_I2C1_Status| 0+23)))^(0+128),w
  6215  0176  0086               	movwf	6
  6216  0177  0187               	clrf	7
  6217  0178  087A               	movf	??_I2C1_DO_RX,w
  6218  0179  0081               	movwf	1
  6219  017A                     l2680:
  6220  017A  3001               	movlw	1
  6221  017B  00FA               	movwf	??_I2C1_DO_RX
  6222  017C  087A               	movf	??_I2C1_DO_RX,w
  6223  017D  07B7               	addwf	(low ((_I2C1_Status| 0+23)))^(0+128),f
  6224  017E                     l2682:
  6225                           
  6226                           ;mcc_generated_files/i2c1_master.c: 381:     if(--I2C1_Status.data_length)
  6227  017E  3001               	movlw	1
  6228  017F  02B8               	subwf	(_I2C1_Status^(0+128)+24),f
  6229  0180  3000               	movlw	0
  6230  0181  3BB9               	subwfb	((_I2C1_Status+1)^(0+128)+24),f
  6231  0182  0838               	movf	(_I2C1_Status^(0+128)+24),w
  6232  0183  0439               	iorwf	((_I2C1_Status+1)^(0+128)+24),w
  6233  0184  1903               	btfsc	3,2
  6234  0185  2987               	goto	u1201
  6235  0186  2988               	goto	u1200
  6236  0187                     u1201:
  6237  0187  298D               	goto	l387
  6238  0188                     u1200:
  6239  0188                     l2684:
  6240                           
  6241                           ;mcc_generated_files/i2c1_master.c: 382:     {;mcc_generated_files/i2c1_master.c: 383:  
      +                                 I2C1_MasterSendAck();
  6242  0188  318E  2666  3181   	fcall	_I2C1_MasterSendAck
  6243  018B                     l2686:
  6244                           
  6245                           ;mcc_generated_files/i2c1_master.c: 384:         return I2C1_RCEN;
  6246  018B  3005               	movlw	5
  6247  018C  29B5               	goto	l388
  6248  018D                     l387:	
  6249                           ;mcc_generated_files/i2c1_master.c: 386:     else
  6250                           
  6251                           
  6252                           ;mcc_generated_files/i2c1_master.c: 387:     {;mcc_generated_files/i2c1_master.c: 388:  
      +                                 I2C1_Status.bufferFree = 1;
  6253  018D  15BC               	bsf	(_I2C1_Status^(0+128)+28),3
  6254                           
  6255                           ;mcc_generated_files/i2c1_master.c: 389:         switch(I2C1_Status.callbackTable[I2C1_D
      +                          ATA_COMPLETE](I2C1_Status.callbackPayload[I2C1_DATA_COMPLETE]))
  6256  018E  2997               	goto	l2702
  6257  018F                     l2692:
  6258                           
  6259                           ;mcc_generated_files/i2c1_master.c: 393:                 return I2C1_DO_RX_NACK_RESTART(
      +                          );
  6260  018F  318E  2696  3181   	fcall	_I2C1_DO_RX_NACK_RESTART
  6261  0192  29B5               	goto	l388
  6262  0193                     l2696:
  6263                           
  6264                           ;mcc_generated_files/i2c1_master.c: 397:                 return I2C1_DO_RX_NACK_STOP();
  6265  0193  318E  2691  3181   	fcall	_I2C1_DO_RX_NACK_STOP
  6266  0196  29B5               	goto	l388
  6267  0197                     l2702:
  6268  0197  082C               	movf	(low ((_I2C1_Status| 0+12)))^(0+128),w
  6269  0198  00FA               	movwf	??_I2C1_DO_RX
  6270  0199  087A               	movf	??_I2C1_DO_RX,w
  6271  019A  00F9               	movwf	I2C1_CallbackReturnReset@funPtr
  6272  019B  0821               	movf	(_I2C1_Status+1)^(0+128),w
  6273  019C  008A               	movwf	10
  6274  019D  0820               	movf	_I2C1_Status^(0+128),w
  6275  019E  000A               	callw
  6276  019F  3181               	pagesel	$
  6277  01A0  00FB               	movwf	??_I2C1_DO_RX+1
  6278  01A1  01FC               	clrf	??_I2C1_DO_RX+2
  6279                           
  6280                           ; Switch on 2 bytes has been partitioned into a top level switch of size 1, and 1 sub-sw
      +                          itches
  6281                           ; Switch size 1, requested type "simple"
  6282                           ; Number of cases is 1, Range of values is 0 to 0
  6283                           ; switch strategies available:
  6284                           ; Name         Instructions Cycles
  6285                           ; simple_byte            4     3 (average)
  6286                           ; direct_byte            8     6 (fixed)
  6287                           ; jumptable            260     6 (fixed)
  6288                           ;	Chosen strategy is simple_byte
  6289  01A2  087C               	movf	??_I2C1_DO_RX+2,w
  6290  01A3  3A00               	xorlw	0	; case 0
  6291  01A4  1903               	skipnz
  6292  01A5  29A7               	goto	l3720
  6293  01A6  2993               	goto	l2696
  6294  01A7                     l3720:
  6295                           
  6296                           ; Switch size 1, requested type "simple"
  6297                           ; Number of cases is 4, Range of values is 1 to 4
  6298                           ; switch strategies available:
  6299                           ; Name         Instructions Cycles
  6300                           ; simple_byte           13     7 (average)
  6301                           ; direct_byte           17     9 (fixed)
  6302                           ; jumptable            263     9 (fixed)
  6303                           ;	Chosen strategy is simple_byte
  6304  01A7  087B               	movf	??_I2C1_DO_RX+1,w
  6305  01A8  3A01               	xorlw	1	; case 1
  6306  01A9  1903               	skipnz
  6307  01AA  2993               	goto	l2696
  6308  01AB  3A03               	xorlw	3	; case 2
  6309  01AC  1903               	skipnz
  6310  01AD  298F               	goto	l2692
  6311  01AE  3A01               	xorlw	1	; case 3
  6312  01AF  1903               	skipnz
  6313  01B0  298F               	goto	l2692
  6314  01B1  3A07               	xorlw	7	; case 4
  6315  01B2  1903               	skipnz
  6316  01B3  2993               	goto	l2696
  6317  01B4  2993               	goto	l2696
  6318  01B5                     l388:
  6319  01B5  0008               	return
  6320  01B6                     __end_of_I2C1_DO_RX:
  6321                           
  6322                           	psect	text38
  6323  0209                     __ptext38:	
  6324 ;; *************** function _I2C1_DO_TX *****************
  6325 ;; Defined at:
  6326 ;;		line 354 in file "mcc_generated_files/i2c1_master.c"
  6327 ;; Parameters:    Size  Location     Type
  6328 ;;		None
  6329 ;; Auto vars:     Size  Location     Type
  6330 ;;		None
  6331 ;; Return value:  Size  Location     Type
  6332 ;;                  1    wreg      enum E2870
  6333 ;; Registers used:
  6334 ;;		wreg, fsr0l, fsr0h, fsr1l, fsr1h, status,2, status,0, pclath, cstack
  6335 ;; Tracked objects:
  6336 ;;		On entry : 0/0
  6337 ;;		On exit  : 0/0
  6338 ;;		Unchanged: 0/0
  6339 ;; Data sizes:     COMMON   BANK0   BANK1   BANK2   BANK3   BANK4
  6340 ;;      Params:         0       0       0       0       0       0
  6341 ;;      Locals:         0       0       0       0       0       0
  6342 ;;      Temps:          3       0       0       0       0       0
  6343 ;;      Totals:         3       0       0       0       0       0
  6344 ;;Total ram usage:        3 bytes
  6345 ;; Hardware stack levels used: 1
  6346 ;; Hardware stack levels required when called: 3
  6347 ;; This function calls:
  6348 ;;		Absolute function
  6349 ;;		_I2C1_CallbackReturnReset
  6350 ;;		_I2C1_CallbackReturnStop
  6351 ;;		_I2C1_DO_SEND_RESTART_READ
  6352 ;;		_I2C1_DO_SEND_RESTART_WRITE
  6353 ;;		_I2C1_DO_SEND_STOP
  6354 ;;		_I2C1_MasterIsNack
  6355 ;;		_I2C1_MasterSendTxData
  6356 ;;		_rd1RegCompleteHandler
  6357 ;;		_rd2RegCompleteHandler
  6358 ;;		_rdBlkRegCompleteHandler
  6359 ;;		_wr1RegCompleteHandler
  6360 ;;		_wr2RegCompleteHandler
  6361 ;; This function is called by:
  6362 ;;		_I2C1_MasterFsm
  6363 ;; This function uses a non-reentrant model
  6364 ;;
  6365                           
  6366  0209                     _I2C1_DO_TX:	
  6367                           ;psect for function _I2C1_DO_TX
  6368                           
  6369  0209                     l2644:	
  6370                           ;incstack = 0
  6371                           ; Regs used in _I2C1_DO_TX: [wreg-fsr1h+status,2+status,0+pclath+cstack]
  6372                           
  6373                           
  6374                           ;mcc_generated_files/i2c1_master.c: 356:     if(I2C1_MasterIsNack())
  6375  0209  318E  26A5  3182   	fcall	_I2C1_MasterIsNack
  6376  020C  3A00               	xorlw	0
  6377  020D  1903               	skipnz
  6378  020E  2A10               	goto	u1181
  6379  020F  2A11               	goto	u1180
  6380  0210                     u1181:
  6381  0210  2A41               	goto	l371
  6382  0211                     u1180:
  6383  0211  2A1E               	goto	l2662
  6384  0212                     l2648:
  6385                           
  6386                           ;mcc_generated_files/i2c1_master.c: 361:                 return I2C1_DO_SEND_RESTART_REA
      +                          D();
  6387  0212  318E  2678  3182   	fcall	_I2C1_DO_SEND_RESTART_READ
  6388  0215  2A5D               	goto	l374
  6389  0216                     l2652:
  6390                           
  6391                           ;mcc_generated_files/i2c1_master.c: 363:                   return I2C1_DO_SEND_RESTART_W
      +                          RITE();
  6392  0216  318E  267D  3182   	fcall	_I2C1_DO_SEND_RESTART_WRITE
  6393  0219  2A5D               	goto	l374
  6394  021A                     l2656:
  6395                           
  6396                           ;mcc_generated_files/i2c1_master.c: 367:                 return I2C1_DO_SEND_STOP();
  6397  021A  318E  2687  3182   	fcall	_I2C1_DO_SEND_STOP
  6398  021D  2A5D               	goto	l374
  6399  021E                     l2662:
  6400  021E  0021               	movlb	1	; select bank1
  6401  021F  082F               	movf	(low ((_I2C1_Status| 0+15)))^(0+128),w
  6402  0220  00FA               	movwf	??_I2C1_DO_TX
  6403  0221  087A               	movf	??_I2C1_DO_TX,w
  6404  0222  00F9               	movwf	I2C1_CallbackReturnReset@funPtr
  6405  0223  3006               	movlw	6
  6406  0224  3EA0               	addlw	(low (_I2C1_Status| 0))& (0+255)
  6407  0225  0086               	movwf	6
  6408  0226  0187               	clrf	7
  6409  0227  3F41               	moviw [1]fsr1
  6410  0228  008A               	movwf	10
  6411  0229  3F40               	moviw [0]fsr1
  6412  022A  000A               	callw
  6413  022B  3182               	pagesel	$
  6414  022C  00FB               	movwf	??_I2C1_DO_TX+1
  6415  022D  01FC               	clrf	??_I2C1_DO_TX+2
  6416                           
  6417                           ; Switch on 2 bytes has been partitioned into a top level switch of size 1, and 1 sub-sw
      +                          itches
  6418                           ; Switch size 1, requested type "simple"
  6419                           ; Number of cases is 1, Range of values is 0 to 0
  6420                           ; switch strategies available:
  6421                           ; Name         Instructions Cycles
  6422                           ; simple_byte            4     3 (average)
  6423                           ; direct_byte            8     6 (fixed)
  6424                           ; jumptable            260     6 (fixed)
  6425                           ;	Chosen strategy is simple_byte
  6426  022E  087C               	movf	??_I2C1_DO_TX+2,w
  6427  022F  3A00               	xorlw	0	; case 0
  6428  0230  1903               	skipnz
  6429  0231  2A33               	goto	l3722
  6430  0232  2A1A               	goto	l2656
  6431  0233                     l3722:
  6432                           
  6433                           ; Switch size 1, requested type "simple"
  6434                           ; Number of cases is 4, Range of values is 1 to 4
  6435                           ; switch strategies available:
  6436                           ; Name         Instructions Cycles
  6437                           ; simple_byte           13     7 (average)
  6438                           ; direct_byte           17     9 (fixed)
  6439                           ; jumptable            263     9 (fixed)
  6440                           ;	Chosen strategy is simple_byte
  6441  0233  087B               	movf	??_I2C1_DO_TX+1,w
  6442  0234  3A01               	xorlw	1	; case 1
  6443  0235  1903               	skipnz
  6444  0236  2A1A               	goto	l2656
  6445  0237  3A03               	xorlw	3	; case 2
  6446  0238  1903               	skipnz
  6447  0239  2A12               	goto	l2648
  6448  023A  3A01               	xorlw	1	; case 3
  6449  023B  1903               	skipnz
  6450  023C  2A16               	goto	l2652
  6451  023D  3A07               	xorlw	7	; case 4
  6452  023E  1903               	skipnz
  6453  023F  2A1A               	goto	l2656
  6454  0240  2A1A               	goto	l2656
  6455  0241                     l371:	
  6456                           ;mcc_generated_files/i2c1_master.c: 370:     else
  6457                           
  6458                           
  6459                           ;mcc_generated_files/i2c1_master.c: 371:     {;mcc_generated_files/i2c1_master.c: 372:  
      +                                 I2C1_Status.addressNackCheck = 0;
  6460  0241  0021               	movlb	1	; select bank1
  6461  0242  103C               	bcf	(_I2C1_Status^(0+128)+28),0
  6462  0243                     l2664:
  6463                           
  6464                           ;mcc_generated_files/i2c1_master.c: 373:         I2C1_MasterSendTxData(*I2C1_Status.data
      +                          _ptr++);
  6465  0243  3017               	movlw	23
  6466  0244  3EA0               	addlw	(low (_I2C1_Status| 0))& (0+255)
  6467  0245  0086               	movwf	6
  6468  0246  0187               	clrf	7
  6469  0247  3F40               	moviw [0]fsr1
  6470  0248  0084               	movwf	4
  6471  0249  0185               	clrf	5
  6472  024A  0A81               	incf	1,f
  6473  024B  0800               	movf	0,w
  6474  024C  318E  266E  3182   	fcall	_I2C1_MasterSendTxData
  6475  024F                     l2666:
  6476                           
  6477                           ;mcc_generated_files/i2c1_master.c: 374:         return (--I2C1_Status.data_length)?I2C1
      +                          _TX:I2C1_TX_EMPTY;
  6478  024F  3001               	movlw	1
  6479  0250  0021               	movlb	1	; select bank1
  6480  0251  02B8               	subwf	(_I2C1_Status^(0+128)+24),f
  6481  0252  3000               	movlw	0
  6482  0253  3BB9               	subwfb	((_I2C1_Status+1)^(0+128)+24),f
  6483  0254  0838               	movf	(_I2C1_Status^(0+128)+24),w
  6484  0255  0439               	iorwf	((_I2C1_Status+1)^(0+128)+24),w
  6485  0256  1D03               	btfss	3,2
  6486  0257  2A59               	goto	u1191
  6487  0258  2A5A               	goto	u1190
  6488  0259                     u1191:
  6489  0259  2A5C               	goto	l2670
  6490  025A                     u1190:
  6491  025A                     l2668:
  6492  025A  3006               	movlw	6
  6493  025B  2A5D               	goto	l374
  6494  025C                     l2670:
  6495  025C  3003               	movlw	3
  6496  025D                     l374:
  6497  025D  0008               	return
  6498  025E                     __end_of_I2C1_DO_TX:
  6499                           
  6500                           	psect	text39
  6501  0EC5                     __ptext39:	
  6502 ;; *************** function _I2C1_DO_SEND_ADR_WRITE *****************
  6503 ;; Defined at:
  6504 ;;		line 347 in file "mcc_generated_files/i2c1_master.c"
  6505 ;; Parameters:    Size  Location     Type
  6506 ;;		None
  6507 ;; Auto vars:     Size  Location     Type
  6508 ;;		None
  6509 ;; Return value:  Size  Location     Type
  6510 ;;                  1    wreg      enum E2870
  6511 ;; Registers used:
  6512 ;;		wreg, status,2, status,0, pclath, cstack
  6513 ;; Tracked objects:
  6514 ;;		On entry : 0/0
  6515 ;;		On exit  : 0/0
  6516 ;;		Unchanged: 0/0
  6517 ;; Data sizes:     COMMON   BANK0   BANK1   BANK2   BANK3   BANK4
  6518 ;;      Params:         0       0       0       0       0       0
  6519 ;;      Locals:         0       0       0       0       0       0
  6520 ;;      Temps:          0       0       0       0       0       0
  6521 ;;      Totals:         0       0       0       0       0       0
  6522 ;;Total ram usage:        0 bytes
  6523 ;; Hardware stack levels used: 1
  6524 ;; Hardware stack levels required when called: 1
  6525 ;; This function calls:
  6526 ;;		_I2C1_MasterSendTxData
  6527 ;; This function is called by:
  6528 ;;		_I2C1_MasterFsm
  6529 ;; This function uses a non-reentrant model
  6530 ;;
  6531                           
  6532  0EC5                     _I2C1_DO_SEND_ADR_WRITE:	
  6533                           ;psect for function _I2C1_DO_SEND_ADR_WRITE
  6534                           
  6535  0EC5                     l2636:	
  6536                           ;incstack = 0
  6537                           ; Regs used in _I2C1_DO_SEND_ADR_WRITE: [wreg+status,2+status,0+pclath+cstack]
  6538                           
  6539                           
  6540                           ;mcc_generated_files/i2c1_master.c: 349:     I2C1_Status.addressNackCheck = 1;
  6541  0EC5  0021               	movlb	1	; select bank1
  6542  0EC6  143C               	bsf	(_I2C1_Status^(0+128)+28),0
  6543  0EC7                     l2638:
  6544                           
  6545                           ;mcc_generated_files/i2c1_master.c: 350:     I2C1_MasterSendTxData((uint8_t) (I2C1_Statu
      +                          s.address << 1));
  6546  0EC7  3536               	lslf	(_I2C1_Status^(0+128)+22),w
  6547  0EC8  318E  266E  318E   	fcall	_I2C1_MasterSendTxData
  6548  0ECB                     l2640:
  6549                           
  6550                           ;mcc_generated_files/i2c1_master.c: 351:     return I2C1_TX;
  6551  0ECB  3003               	movlw	3
  6552  0ECC                     l368:
  6553  0ECC  0008               	return
  6554  0ECD                     __end_of_I2C1_DO_SEND_ADR_WRITE:
  6555                           
  6556                           	psect	text40
  6557  0ED5                     __ptext40:	
  6558 ;; *************** function _I2C1_DO_SEND_ADR_READ *****************
  6559 ;; Defined at:
  6560 ;;		line 340 in file "mcc_generated_files/i2c1_master.c"
  6561 ;; Parameters:    Size  Location     Type
  6562 ;;		None
  6563 ;; Auto vars:     Size  Location     Type
  6564 ;;		None
  6565 ;; Return value:  Size  Location     Type
  6566 ;;                  1    wreg      enum E2870
  6567 ;; Registers used:
  6568 ;;		wreg, status,2, status,0, pclath, cstack
  6569 ;; Tracked objects:
  6570 ;;		On entry : 0/0
  6571 ;;		On exit  : 0/0
  6572 ;;		Unchanged: 0/0
  6573 ;; Data sizes:     COMMON   BANK0   BANK1   BANK2   BANK3   BANK4
  6574 ;;      Params:         0       0       0       0       0       0
  6575 ;;      Locals:         0       0       0       0       0       0
  6576 ;;      Temps:          0       0       0       0       0       0
  6577 ;;      Totals:         0       0       0       0       0       0
  6578 ;;Total ram usage:        0 bytes
  6579 ;; Hardware stack levels used: 1
  6580 ;; Hardware stack levels required when called: 1
  6581 ;; This function calls:
  6582 ;;		_I2C1_MasterSendTxData
  6583 ;; This function is called by:
  6584 ;;		_I2C1_MasterFsm
  6585 ;; This function uses a non-reentrant model
  6586 ;;
  6587                           
  6588  0ED5                     _I2C1_DO_SEND_ADR_READ:	
  6589                           ;psect for function _I2C1_DO_SEND_ADR_READ
  6590                           
  6591  0ED5                     l2628:	
  6592                           ;incstack = 0
  6593                           ; Regs used in _I2C1_DO_SEND_ADR_READ: [wreg+status,2+status,0+pclath+cstack]
  6594                           
  6595                           
  6596                           ;mcc_generated_files/i2c1_master.c: 342:     I2C1_Status.addressNackCheck = 1;
  6597  0ED5  0021               	movlb	1	; select bank1
  6598  0ED6  143C               	bsf	(_I2C1_Status^(0+128)+28),0
  6599  0ED7                     l2630:
  6600                           
  6601                           ;mcc_generated_files/i2c1_master.c: 343:     I2C1_MasterSendTxData((uint8_t) (I2C1_Statu
      +                          s.address << 1 | 1));
  6602  0ED7  1403               	setc
  6603  0ED8  0D36               	rlf	(_I2C1_Status^(0+128)+22),w
  6604  0ED9  318E  266E  318E   	fcall	_I2C1_MasterSendTxData
  6605  0EDC                     l2632:
  6606                           
  6607                           ;mcc_generated_files/i2c1_master.c: 344:     return I2C1_RCEN;
  6608  0EDC  3005               	movlw	5
  6609  0EDD                     l365:
  6610  0EDD  0008               	return
  6611  0EDE                     __end_of_I2C1_DO_SEND_ADR_READ:
  6612                           
  6613                           	psect	text41
  6614  0E73                     __ptext41:	
  6615 ;; *************** function _I2C1_DO_IDLE *****************
  6616 ;; Defined at:
  6617 ;;		line 333 in file "mcc_generated_files/i2c1_master.c"
  6618 ;; Parameters:    Size  Location     Type
  6619 ;;		None
  6620 ;; Auto vars:     Size  Location     Type
  6621 ;;		None
  6622 ;; Return value:  Size  Location     Type
  6623 ;;                  1    wreg      enum E2870
  6624 ;; Registers used:
  6625 ;;		wreg, status,2
  6626 ;; Tracked objects:
  6627 ;;		On entry : 0/0
  6628 ;;		On exit  : 0/0
  6629 ;;		Unchanged: 0/0
  6630 ;; Data sizes:     COMMON   BANK0   BANK1   BANK2   BANK3   BANK4
  6631 ;;      Params:         0       0       0       0       0       0
  6632 ;;      Locals:         0       0       0       0       0       0
  6633 ;;      Temps:          0       0       0       0       0       0
  6634 ;;      Totals:         0       0       0       0       0       0
  6635 ;;Total ram usage:        0 bytes
  6636 ;; Hardware stack levels used: 1
  6637 ;; This function calls:
  6638 ;;		Nothing
  6639 ;; This function is called by:
  6640 ;;		_I2C1_MasterFsm
  6641 ;; This function uses a non-reentrant model
  6642 ;;
  6643                           
  6644  0E73                     _I2C1_DO_IDLE:	
  6645                           ;psect for function _I2C1_DO_IDLE
  6646                           
  6647  0E73                     l2620:	
  6648                           ;incstack = 0
  6649                           ; Regs used in _I2C1_DO_IDLE: [wreg+status,2]
  6650                           
  6651                           
  6652                           ;mcc_generated_files/i2c1_master.c: 335:     I2C1_Status.busy = 0;
  6653  0E73  0021               	movlb	1	; select bank1
  6654  0E74  10BC               	bcf	(_I2C1_Status^(0+128)+28),1
  6655  0E75                     l2622:
  6656                           
  6657                           ;mcc_generated_files/i2c1_master.c: 336:     I2C1_Status.error = I2C1_NOERR;
  6658  0E75  01BB               	clrf	(_I2C1_Status^(0+128)+27)
  6659  0E76                     l2624:
  6660                           
  6661                           ;mcc_generated_files/i2c1_master.c: 337:     return I2C1_RESET;
  6662  0E76  300E               	movlw	14
  6663  0E77                     l362:
  6664  0E77  0008               	return
  6665  0E78                     __end_of_I2C1_DO_IDLE:
  6666                           
  6667                           	psect	text42
  6668  0107                     __ptext42:	
  6669 ;; *************** function _I2C1_DO_TX_EMPTY *****************
  6670 ;; Defined at:
  6671 ;;		line 409 in file "mcc_generated_files/i2c1_master.c"
  6672 ;; Parameters:    Size  Location     Type
  6673 ;;		None
  6674 ;; Auto vars:     Size  Location     Type
  6675 ;;		None
  6676 ;; Return value:  Size  Location     Type
  6677 ;;                  1    wreg      enum E2870
  6678 ;; Registers used:
  6679 ;;		wreg, fsr0l, fsr0h, fsr1l, fsr1h, status,2, status,0, pclath, cstack
  6680 ;; Tracked objects:
  6681 ;;		On entry : 0/0
  6682 ;;		On exit  : 0/0
  6683 ;;		Unchanged: 0/0
  6684 ;; Data sizes:     COMMON   BANK0   BANK1   BANK2   BANK3   BANK4
  6685 ;;      Params:         0       0       0       0       0       0
  6686 ;;      Locals:         0       0       0       0       0       0
  6687 ;;      Temps:          3       0       0       0       0       0
  6688 ;;      Totals:         3       0       0       0       0       0
  6689 ;;Total ram usage:        3 bytes
  6690 ;; Hardware stack levels used: 1
  6691 ;; Hardware stack levels required when called: 3
  6692 ;; This function calls:
  6693 ;;		Absolute function
  6694 ;;		_I2C1_CallbackReturnReset
  6695 ;;		_I2C1_CallbackReturnStop
  6696 ;;		_I2C1_DO_SEND_RESTART
  6697 ;;		_I2C1_DO_SEND_STOP
  6698 ;;		_I2C1_MasterSetIrq
  6699 ;;		_rd1RegCompleteHandler
  6700 ;;		_rd2RegCompleteHandler
  6701 ;;		_rdBlkRegCompleteHandler
  6702 ;;		_wr1RegCompleteHandler
  6703 ;;		_wr2RegCompleteHandler
  6704 ;; This function is called by:
  6705 ;;		_I2C1_MasterFsm
  6706 ;; This function uses a non-reentrant model
  6707 ;;
  6708                           
  6709  0107                     _I2C1_DO_TX_EMPTY:	
  6710                           ;psect for function _I2C1_DO_TX_EMPTY
  6711                           
  6712  0107                     l2718:	
  6713                           ;incstack = 0
  6714                           ; Regs used in _I2C1_DO_TX_EMPTY: [wreg-fsr1h+status,2+status,0+pclath+cstack]
  6715                           
  6716                           
  6717                           ;mcc_generated_files/i2c1_master.c: 411:     I2C1_Status.bufferFree = 1;
  6718  0107  0021               	movlb	1	; select bank1
  6719  0108  15BC               	bsf	(_I2C1_Status^(0+128)+28),3
  6720                           
  6721                           ;mcc_generated_files/i2c1_master.c: 412:     switch(I2C1_Status.callbackTable[I2C1_DATA_
      +                          COMPLETE](I2C1_Status.callbackPayload[I2C1_DATA_COMPLETE]))
  6722  0109  2917               	goto	l2736
  6723  010A                     l2720:
  6724                           
  6725                           ;mcc_generated_files/i2c1_master.c: 416:             return I2C1_DO_SEND_RESTART();
  6726  010A  318E  2682  3181   	fcall	_I2C1_DO_SEND_RESTART
  6727  010D  2935               	goto	l405
  6728  010E                     l2724:
  6729                           
  6730                           ;mcc_generated_files/i2c1_master.c: 418:             I2C1_MasterSetIrq();
  6731  010E  318E  265F  3181   	fcall	_I2C1_MasterSetIrq
  6732  0111                     l2726:
  6733                           
  6734                           ;mcc_generated_files/i2c1_master.c: 419:             return I2C1_TX;
  6735  0111  3003               	movlw	3
  6736  0112  2935               	goto	l405
  6737  0113                     l2730:
  6738                           
  6739                           ;mcc_generated_files/i2c1_master.c: 422:             return I2C1_DO_SEND_STOP();
  6740  0113  318E  2687  3181   	fcall	_I2C1_DO_SEND_STOP
  6741  0116  2935               	goto	l405
  6742  0117                     l2736:
  6743  0117  082C               	movf	(low ((_I2C1_Status| 0+12)))^(0+128),w
  6744  0118  00FA               	movwf	??_I2C1_DO_TX_EMPTY
  6745  0119  087A               	movf	??_I2C1_DO_TX_EMPTY,w
  6746  011A  00F9               	movwf	I2C1_CallbackReturnReset@funPtr
  6747  011B  0821               	movf	(_I2C1_Status+1)^(0+128),w
  6748  011C  008A               	movwf	10
  6749  011D  0820               	movf	_I2C1_Status^(0+128),w
  6750  011E  000A               	callw
  6751  011F  3181               	pagesel	$
  6752  0120  00FB               	movwf	??_I2C1_DO_TX_EMPTY+1
  6753  0121  01FC               	clrf	??_I2C1_DO_TX_EMPTY+2
  6754                           
  6755                           ; Switch on 2 bytes has been partitioned into a top level switch of size 1, and 1 sub-sw
      +                          itches
  6756                           ; Switch size 1, requested type "simple"
  6757                           ; Number of cases is 1, Range of values is 0 to 0
  6758                           ; switch strategies available:
  6759                           ; Name         Instructions Cycles
  6760                           ; simple_byte            4     3 (average)
  6761                           ; direct_byte            8     6 (fixed)
  6762                           ; jumptable            260     6 (fixed)
  6763                           ;	Chosen strategy is simple_byte
  6764  0122  087C               	movf	??_I2C1_DO_TX_EMPTY+2,w
  6765  0123  3A00               	xorlw	0	; case 0
  6766  0124  1903               	skipnz
  6767  0125  2927               	goto	l3724
  6768  0126  2913               	goto	l2730
  6769  0127                     l3724:
  6770                           
  6771                           ; Switch size 1, requested type "simple"
  6772                           ; Number of cases is 4, Range of values is 1 to 4
  6773                           ; switch strategies available:
  6774                           ; Name         Instructions Cycles
  6775                           ; simple_byte           13     7 (average)
  6776                           ; direct_byte           17     9 (fixed)
  6777                           ; jumptable            263     9 (fixed)
  6778                           ;	Chosen strategy is simple_byte
  6779  0127  087B               	movf	??_I2C1_DO_TX_EMPTY+1,w
  6780  0128  3A01               	xorlw	1	; case 1
  6781  0129  1903               	skipnz
  6782  012A  2913               	goto	l2730
  6783  012B  3A03               	xorlw	3	; case 2
  6784  012C  1903               	skipnz
  6785  012D  290A               	goto	l2720
  6786  012E  3A01               	xorlw	1	; case 3
  6787  012F  1903               	skipnz
  6788  0130  290A               	goto	l2720
  6789  0131  3A07               	xorlw	7	; case 4
  6790  0132  1903               	skipnz
  6791  0133  290E               	goto	l2724
  6792  0134  2913               	goto	l2730
  6793  0135                     l405:
  6794  0135  0008               	return
  6795  0136                     __end_of_I2C1_DO_TX_EMPTY:
  6796                           
  6797                           	psect	text43
  6798  0E5F                     __ptext43:	
  6799 ;; *************** function _I2C1_MasterSetIrq *****************
  6800 ;; Defined at:
  6801 ;;		line 645 in file "mcc_generated_files/i2c1_master.c"
  6802 ;; Parameters:    Size  Location     Type
  6803 ;;		None
  6804 ;; Auto vars:     Size  Location     Type
  6805 ;;		None
  6806 ;; Return value:  Size  Location     Type
  6807 ;;                  1    wreg      void 
  6808 ;; Registers used:
  6809 ;;		None
  6810 ;; Tracked objects:
  6811 ;;		On entry : 0/0
  6812 ;;		On exit  : 0/0
  6813 ;;		Unchanged: 0/0
  6814 ;; Data sizes:     COMMON   BANK0   BANK1   BANK2   BANK3   BANK4
  6815 ;;      Params:         0       0       0       0       0       0
  6816 ;;      Locals:         0       0       0       0       0       0
  6817 ;;      Temps:          0       0       0       0       0       0
  6818 ;;      Totals:         0       0       0       0       0       0
  6819 ;;Total ram usage:        0 bytes
  6820 ;; Hardware stack levels used: 1
  6821 ;; This function calls:
  6822 ;;		Nothing
  6823 ;; This function is called by:
  6824 ;;		_I2C1_DO_TX_EMPTY
  6825 ;; This function uses a non-reentrant model
  6826 ;;
  6827                           
  6828  0E5F                     _I2C1_MasterSetIrq:	
  6829                           ;psect for function _I2C1_MasterSetIrq
  6830                           
  6831  0E5F                     l2608:	
  6832                           ;incstack = 0
  6833                           ; Regs used in _I2C1_MasterSetIrq: []
  6834                           
  6835                           
  6836                           ;mcc_generated_files/i2c1_master.c: 647:     PIR1bits.SSP1IF = 1;
  6837  0E5F  0020               	movlb	0	; select bank0
  6838  0E60  1591               	bsf	17,3	;volatile
  6839  0E61                     l525:
  6840  0E61  0008               	return
  6841  0E62                     __end_of_I2C1_MasterSetIrq:
  6842                           
  6843                           	psect	text44
  6844  0EA5                     __ptext44:	
  6845 ;; *************** function _I2C1_MasterIsNack *****************
  6846 ;; Defined at:
  6847 ;;		line 598 in file "mcc_generated_files/i2c1_master.c"
  6848 ;; Parameters:    Size  Location     Type
  6849 ;;		None
  6850 ;; Auto vars:     Size  Location     Type
  6851 ;;		None
  6852 ;; Return value:  Size  Location     Type
  6853 ;;                  1    wreg      _Bool 
  6854 ;; Registers used:
  6855 ;;		wreg, status,2, status,0
  6856 ;; Tracked objects:
  6857 ;;		On entry : 0/0
  6858 ;;		On exit  : 0/0
  6859 ;;		Unchanged: 0/0
  6860 ;; Data sizes:     COMMON   BANK0   BANK1   BANK2   BANK3   BANK4
  6861 ;;      Params:         0       0       0       0       0       0
  6862 ;;      Locals:         0       0       0       0       0       0
  6863 ;;      Temps:          0       0       0       0       0       0
  6864 ;;      Totals:         0       0       0       0       0       0
  6865 ;;Total ram usage:        0 bytes
  6866 ;; Hardware stack levels used: 1
  6867 ;; This function calls:
  6868 ;;		Nothing
  6869 ;; This function is called by:
  6870 ;;		_I2C1_MasterFsm
  6871 ;;		_I2C1_DO_TX
  6872 ;; This function uses a non-reentrant model
  6873 ;;
  6874                           
  6875  0EA5                     _I2C1_MasterIsNack:	
  6876                           ;psect for function _I2C1_MasterIsNack
  6877                           
  6878  0EA5                     l2558:	
  6879                           ;incstack = 0
  6880                           ; Regs used in _I2C1_MasterIsNack: [wreg+status,2+status,0]
  6881                           
  6882                           
  6883                           ;mcc_generated_files/i2c1_master.c: 600:     return SSP1CON2bits.ACKSTAT;
  6884  0EA5  0024               	movlb	4	; select bank4
  6885  0EA6  0E16               	swapf	22,w	;volatile
  6886  0EA7  0C89               	rrf	9,f
  6887  0EA8  0C89               	rrf	9,f
  6888  0EA9  3901               	andlw	1
  6889  0EAA                     l498:
  6890  0EAA  0008               	return
  6891  0EAB                     __end_of_I2C1_MasterIsNack:
  6892                           
  6893                           	psect	text45
  6894  0E6E                     __ptext45:	
  6895 ;; *************** function _I2C1_MasterSendTxData *****************
  6896 ;; Defined at:
  6897 ;;		line 568 in file "mcc_generated_files/i2c1_master.c"
  6898 ;; Parameters:    Size  Location     Type
  6899 ;;  data            1    wreg     unsigned char 
  6900 ;; Auto vars:     Size  Location     Type
  6901 ;;  data            1    0[COMMON] unsigned char 
  6902 ;; Return value:  Size  Location     Type
  6903 ;;                  1    wreg      void 
  6904 ;; Registers used:
  6905 ;;		wreg
  6906 ;; Tracked objects:
  6907 ;;		On entry : 0/0
  6908 ;;		On exit  : 0/0
  6909 ;;		Unchanged: 0/0
  6910 ;; Data sizes:     COMMON   BANK0   BANK1   BANK2   BANK3   BANK4
  6911 ;;      Params:         0       0       0       0       0       0
  6912 ;;      Locals:         1       0       0       0       0       0
  6913 ;;      Temps:          0       0       0       0       0       0
  6914 ;;      Totals:         1       0       0       0       0       0
  6915 ;;Total ram usage:        1 bytes
  6916 ;; Hardware stack levels used: 1
  6917 ;; This function calls:
  6918 ;;		Nothing
  6919 ;; This function is called by:
  6920 ;;		_I2C1_DO_SEND_ADR_READ
  6921 ;;		_I2C1_DO_SEND_ADR_WRITE
  6922 ;;		_I2C1_DO_TX
  6923 ;; This function uses a non-reentrant model
  6924 ;;
  6925                           
  6926  0E6E                     _I2C1_MasterSendTxData:	
  6927                           ;psect for function _I2C1_MasterSendTxData
  6928                           
  6929                           
  6930                           ;incstack = 0
  6931                           ; Regs used in _I2C1_MasterSendTxData: [wreg]
  6932                           ;I2C1_MasterSendTxData@data stored from wreg
  6933  0E6E  00F0               	movwf	I2C1_MasterSendTxData@data
  6934  0E6F                     l2562:
  6935                           
  6936                           ;mcc_generated_files/i2c1_master.c: 568: static __attribute__((inline)) void I2C1_Master
      +                          SendTxData(uint8_t data);mcc_generated_files/i2c1_master.c: 569: {;mcc_generated_files/i
      +                          2c1_master.c: 570:     SSP1BUF = data;
  6937  0E6F  0870               	movf	I2C1_MasterSendTxData@data,w
  6938  0E70  0024               	movlb	4	; select bank4
  6939  0E71  0091               	movwf	17	;volatile
  6940  0E72                     l480:
  6941  0E72  0008               	return
  6942  0E73                     __end_of_I2C1_MasterSendTxData:
  6943                           
  6944                           	psect	text46
  6945  0E66                     __ptext46:	
  6946 ;; *************** function _I2C1_MasterSendAck *****************
  6947 ;; Defined at:
  6948 ;;		line 603 in file "mcc_generated_files/i2c1_master.c"
  6949 ;; Parameters:    Size  Location     Type
  6950 ;;		None
  6951 ;; Auto vars:     Size  Location     Type
  6952 ;;		None
  6953 ;; Return value:  Size  Location     Type
  6954 ;;                  1    wreg      void 
  6955 ;; Registers used:
  6956 ;;		None
  6957 ;; Tracked objects:
  6958 ;;		On entry : 0/0
  6959 ;;		On exit  : 0/0
  6960 ;;		Unchanged: 0/0
  6961 ;; Data sizes:     COMMON   BANK0   BANK1   BANK2   BANK3   BANK4
  6962 ;;      Params:         0       0       0       0       0       0
  6963 ;;      Locals:         0       0       0       0       0       0
  6964 ;;      Temps:          0       0       0       0       0       0
  6965 ;;      Totals:         0       0       0       0       0       0
  6966 ;;Total ram usage:        0 bytes
  6967 ;; Hardware stack levels used: 1
  6968 ;; This function calls:
  6969 ;;		Nothing
  6970 ;; This function is called by:
  6971 ;;		_I2C1_DO_RX
  6972 ;;		_I2C1_DO_RX_ACK
  6973 ;; This function uses a non-reentrant model
  6974 ;;
  6975                           
  6976  0E66                     _I2C1_MasterSendAck:	
  6977                           ;psect for function _I2C1_MasterSendAck
  6978                           
  6979  0E66                     l2586:	
  6980                           ;incstack = 0
  6981                           ; Regs used in _I2C1_MasterSendAck: []
  6982                           
  6983                           
  6984                           ;mcc_generated_files/i2c1_master.c: 605:     SSP1CON2bits.ACKDT = 0;
  6985  0E66  0024               	movlb	4	; select bank4
  6986  0E67  1296               	bcf	22,5	;volatile
  6987                           
  6988                           ;mcc_generated_files/i2c1_master.c: 606:     SSP1CON2bits.ACKEN = 1;
  6989  0E68  1616               	bsf	22,4	;volatile
  6990  0E69                     l501:
  6991  0E69  0008               	return
  6992  0E6A                     __end_of_I2C1_MasterSendAck:
  6993                           
  6994                           	psect	text47
  6995  0E5C                     __ptext47:	
  6996 ;; *************** function _I2C1_MasterGetRxData *****************
  6997 ;; Defined at:
  6998 ;;		line 563 in file "mcc_generated_files/i2c1_master.c"
  6999 ;; Parameters:    Size  Location     Type
  7000 ;;		None
  7001 ;; Auto vars:     Size  Location     Type
  7002 ;;		None
  7003 ;; Return value:  Size  Location     Type
  7004 ;;                  1    wreg      unsigned char 
  7005 ;; Registers used:
  7006 ;;		wreg
  7007 ;; Tracked objects:
  7008 ;;		On entry : 0/0
  7009 ;;		On exit  : 0/0
  7010 ;;		Unchanged: 0/0
  7011 ;; Data sizes:     COMMON   BANK0   BANK1   BANK2   BANK3   BANK4
  7012 ;;      Params:         0       0       0       0       0       0
  7013 ;;      Locals:         0       0       0       0       0       0
  7014 ;;      Temps:          0       0       0       0       0       0
  7015 ;;      Totals:         0       0       0       0       0       0
  7016 ;;Total ram usage:        0 bytes
  7017 ;; Hardware stack levels used: 1
  7018 ;; This function calls:
  7019 ;;		Nothing
  7020 ;; This function is called by:
  7021 ;;		_I2C1_DO_RX
  7022 ;; This function uses a non-reentrant model
  7023 ;;
  7024                           
  7025  0E5C                     _I2C1_MasterGetRxData:	
  7026                           ;psect for function _I2C1_MasterGetRxData
  7027                           
  7028  0E5C                     l2582:	
  7029                           ;incstack = 0
  7030                           ; Regs used in _I2C1_MasterGetRxData: [wreg]
  7031                           
  7032                           
  7033                           ;mcc_generated_files/i2c1_master.c: 565:     return SSP1BUF;
  7034  0E5C  0024               	movlb	4	; select bank4
  7035  0E5D  0811               	movf	17,w	;volatile
  7036  0E5E                     l477:
  7037  0E5E  0008               	return
  7038  0E5F                     __end_of_I2C1_MasterGetRxData:
  7039                           
  7040                           	psect	text48
  7041  0E62                     __ptext48:	
  7042 ;; *************** function _I2C1_MasterSendNack *****************
  7043 ;; Defined at:
  7044 ;;		line 609 in file "mcc_generated_files/i2c1_master.c"
  7045 ;; Parameters:    Size  Location     Type
  7046 ;;		None
  7047 ;; Auto vars:     Size  Location     Type
  7048 ;;		None
  7049 ;; Return value:  Size  Location     Type
  7050 ;;                  1    wreg      void 
  7051 ;; Registers used:
  7052 ;;		None
  7053 ;; Tracked objects:
  7054 ;;		On entry : 0/0
  7055 ;;		On exit  : 0/0
  7056 ;;		Unchanged: 0/0
  7057 ;; Data sizes:     COMMON   BANK0   BANK1   BANK2   BANK3   BANK4
  7058 ;;      Params:         0       0       0       0       0       0
  7059 ;;      Locals:         0       0       0       0       0       0
  7060 ;;      Temps:          0       0       0       0       0       0
  7061 ;;      Totals:         0       0       0       0       0       0
  7062 ;;Total ram usage:        0 bytes
  7063 ;; Hardware stack levels used: 1
  7064 ;; This function calls:
  7065 ;;		Nothing
  7066 ;; This function is called by:
  7067 ;;		_I2C1_DO_RX_NACK_STOP
  7068 ;;		_I2C1_DO_RX_NACK_RESTART
  7069 ;; This function uses a non-reentrant model
  7070 ;;
  7071                           
  7072  0E62                     _I2C1_MasterSendNack:	
  7073                           ;psect for function _I2C1_MasterSendNack
  7074                           
  7075  0E62                     l2518:	
  7076                           ;incstack = 0
  7077                           ; Regs used in _I2C1_MasterSendNack: []
  7078                           
  7079                           
  7080                           ;mcc_generated_files/i2c1_master.c: 611:     SSP1CON2bits.ACKDT = 1;
  7081  0E62  0024               	movlb	4	; select bank4
  7082  0E63  1696               	bsf	22,5	;volatile
  7083                           
  7084                           ;mcc_generated_files/i2c1_master.c: 612:     SSP1CON2bits.ACKEN = 1;
  7085  0E64  1616               	bsf	22,4	;volatile
  7086  0E65                     l504:
  7087  0E65  0008               	return
  7088  0E66                     __end_of_I2C1_MasterSendNack:
  7089                           
  7090                           	psect	text49
  7091  0E59                     __ptext49:	
  7092 ;; *************** function _I2C1_MasterStartRx *****************
  7093 ;; Defined at:
  7094 ;;		line 583 in file "mcc_generated_files/i2c1_master.c"
  7095 ;; Parameters:    Size  Location     Type
  7096 ;;		None
  7097 ;; Auto vars:     Size  Location     Type
  7098 ;;		None
  7099 ;; Return value:  Size  Location     Type
  7100 ;;                  1    wreg      void 
  7101 ;; Registers used:
  7102 ;;		None
  7103 ;; Tracked objects:
  7104 ;;		On entry : 0/0
  7105 ;;		On exit  : 0/0
  7106 ;;		Unchanged: 0/0
  7107 ;; Data sizes:     COMMON   BANK0   BANK1   BANK2   BANK3   BANK4
  7108 ;;      Params:         0       0       0       0       0       0
  7109 ;;      Locals:         0       0       0       0       0       0
  7110 ;;      Temps:          0       0       0       0       0       0
  7111 ;;      Totals:         0       0       0       0       0       0
  7112 ;;Total ram usage:        0 bytes
  7113 ;; Hardware stack levels used: 1
  7114 ;; This function calls:
  7115 ;;		Nothing
  7116 ;; This function is called by:
  7117 ;;		_I2C1_DO_RCEN
  7118 ;; This function uses a non-reentrant model
  7119 ;;
  7120                           
  7121  0E59                     _I2C1_MasterStartRx:	
  7122                           ;psect for function _I2C1_MasterStartRx
  7123                           
  7124  0E59                     l2600:	
  7125                           ;incstack = 0
  7126                           ; Regs used in _I2C1_MasterStartRx: []
  7127                           
  7128                           
  7129                           ;mcc_generated_files/i2c1_master.c: 585:     SSP1CON2bits.RCEN = 1;
  7130  0E59  0024               	movlb	4	; select bank4
  7131  0E5A  1596               	bsf	22,3	;volatile
  7132  0E5B                     l489:
  7133  0E5B  0008               	return
  7134  0E5C                     __end_of_I2C1_MasterStartRx:
  7135                           
  7136                           	psect	text50
  7137  0E42                     __ptext50:	
  7138 ;; *************** function _I2C1_CallbackReturnReset *****************
  7139 ;; Defined at:
  7140 ;;		line 525 in file "mcc_generated_files/i2c1_master.c"
  7141 ;; Parameters:    Size  Location     Type
  7142 ;;  funPtr          1    9[COMMON] PTR void 
  7143 ;;		 -> I2C1_ReadDataBlock@bufferBlock(3), I2C1_Write2ByteRegister@data(2), I2C1_Write1ByteRegister@data(1), I2C1_Read2B
      +yteRegister@returnValue(2), 
  7144 ;;		 -> NULL(0), I2C1_Read1ByteRegister@returnValue(1), 
  7145 ;; Auto vars:     Size  Location     Type
  7146 ;;		None
  7147 ;; Return value:  Size  Location     Type
  7148 ;;                  1    wreg      enum E360
  7149 ;; Registers used:
  7150 ;;		wreg
  7151 ;; Tracked objects:
  7152 ;;		On entry : 0/0
  7153 ;;		On exit  : 0/0
  7154 ;;		Unchanged: 0/0
  7155 ;; Data sizes:     COMMON   BANK0   BANK1   BANK2   BANK3   BANK4
  7156 ;;      Params:         1       0       0       0       0       0
  7157 ;;      Locals:         0       0       0       0       0       0
  7158 ;;      Temps:          0       0       0       0       0       0
  7159 ;;      Totals:         1       0       0       0       0       0
  7160 ;;Total ram usage:        1 bytes
  7161 ;; Hardware stack levels used: 1
  7162 ;; This function calls:
  7163 ;;		Nothing
  7164 ;; This function is called by:
  7165 ;;		_I2C1_Open
  7166 ;;		_I2C1_DO_TX
  7167 ;;		_I2C1_DO_RX
  7168 ;;		_I2C1_DO_TX_EMPTY
  7169 ;;		_I2C1_DO_ADDRESS_NACK
  7170 ;;		_I2C1_DO_RX_EMPTY
  7171 ;; This function uses a non-reentrant model
  7172 ;;
  7173                           
  7174  0E42                     _I2C1_CallbackReturnReset:	
  7175                           ;psect for function _I2C1_CallbackReturnReset
  7176                           
  7177  0E42                     l2614:	
  7178                           ;incstack = 0
  7179                           ; Regs used in _I2C1_CallbackReturnReset: [wreg]
  7180                           
  7181                           
  7182                           ;mcc_generated_files/i2c1_master.c: 525: i2c1_operations_t I2C1_CallbackReturnReset(void
      +                           *funPtr);mcc_generated_files/i2c1_master.c: 526: {;mcc_generated_files/i2c1_master.c: 5
      +                          27:     return I2C1_RESET_LINK;
  7183  0E42  3005               	movlw	5
  7184  0E43                     l461:
  7185  0E43  0008               	return
  7186  0E44                     __end_of_I2C1_CallbackReturnReset:
  7187                           
  7188                           	psect	text51
  7189  0E40                     __ptext51:	
  7190 ;; *************** function _I2C1_CallbackReturnStop *****************
  7191 ;; Defined at:
  7192 ;;		line 520 in file "mcc_generated_files/i2c1_master.c"
  7193 ;; Parameters:    Size  Location     Type
  7194 ;;  funPtr          1    9[COMMON] PTR void 
  7195 ;;		 -> I2C1_ReadDataBlock@bufferBlock(3), I2C1_Write2ByteRegister@data(2), I2C1_Write1ByteRegister@data(1), I2C1_Read2B
      +yteRegister@returnValue(2), 
  7196 ;;		 -> NULL(0), I2C1_Read1ByteRegister@returnValue(1), 
  7197 ;; Auto vars:     Size  Location     Type
  7198 ;;		None
  7199 ;; Return value:  Size  Location     Type
  7200 ;;                  1    wreg      enum E360
  7201 ;; Registers used:
  7202 ;;		wreg
  7203 ;; Tracked objects:
  7204 ;;		On entry : 0/0
  7205 ;;		On exit  : 0/0
  7206 ;;		Unchanged: 0/0
  7207 ;; Data sizes:     COMMON   BANK0   BANK1   BANK2   BANK3   BANK4
  7208 ;;      Params:         1       0       0       0       0       0
  7209 ;;      Locals:         0       0       0       0       0       0
  7210 ;;      Temps:          0       0       0       0       0       0
  7211 ;;      Totals:         1       0       0       0       0       0
  7212 ;;Total ram usage:        1 bytes
  7213 ;; Hardware stack levels used: 1
  7214 ;; This function calls:
  7215 ;;		Nothing
  7216 ;; This function is called by:
  7217 ;;		_I2C1_Open
  7218 ;;		_I2C1_SetCallback
  7219 ;;		_I2C1_DO_TX
  7220 ;;		_I2C1_DO_RX
  7221 ;;		_I2C1_DO_TX_EMPTY
  7222 ;;		_I2C1_DO_ADDRESS_NACK
  7223 ;;		_I2C1_DO_RX_EMPTY
  7224 ;; This function uses a non-reentrant model
  7225 ;;
  7226                           
  7227  0E40                     _I2C1_CallbackReturnStop:	
  7228                           ;psect for function _I2C1_CallbackReturnStop
  7229                           
  7230  0E40                     l2610:	
  7231                           ;incstack = 0
  7232                           ; Regs used in _I2C1_CallbackReturnStop: [wreg]
  7233                           
  7234                           
  7235                           ;mcc_generated_files/i2c1_master.c: 520: i2c1_operations_t I2C1_CallbackReturnStop(void 
      +                          *funPtr);mcc_generated_files/i2c1_master.c: 521: {;mcc_generated_files/i2c1_master.c: 52
      +                          2:     return I2C1_STOP;
  7236  0E40  3001               	movlw	1
  7237  0E41                     l458:
  7238  0E41  0008               	return
  7239  0E42                     __end_of_I2C1_CallbackReturnStop:
  7240                           
  7241                           	psect	text52
  7242  0FCC                     __ptext52:	
  7243 ;; *************** function _rdBlkRegCompleteHandler *****************
  7244 ;; Defined at:
  7245 ;;		line 170 in file "mcc_generated_files/examples/i2c1_master_example.c"
  7246 ;; Parameters:    Size  Location     Type
  7247 ;;  ptr             1    9[COMMON] PTR void 
  7248 ;;		 -> I2C1_ReadDataBlock@bufferBlock(3), I2C1_Write2ByteRegister@data(2), I2C1_Write1ByteRegister@data(1), I2C1_Read2B
      +yteRegister@returnValue(2), 
  7249 ;;		 -> NULL(0), I2C1_Read1ByteRegister@returnValue(1), 
  7250 ;; Auto vars:     Size  Location     Type
  7251 ;;		None
  7252 ;; Return value:  Size  Location     Type
  7253 ;;                  1    wreg      enum E360
  7254 ;; Registers used:
  7255 ;;		wreg, fsr1l, fsr1h, status,2, status,0, pclath, cstack
  7256 ;; Tracked objects:
  7257 ;;		On entry : 0/0
  7258 ;;		On exit  : 0/0
  7259 ;;		Unchanged: 0/0
  7260 ;; Data sizes:     COMMON   BANK0   BANK1   BANK2   BANK3   BANK4
  7261 ;;      Params:         1       0       0       0       0       0
  7262 ;;      Locals:         0       0       0       0       0       0
  7263 ;;      Temps:          0       0       0       0       0       0
  7264 ;;      Totals:         1       0       0       0       0       0
  7265 ;;Total ram usage:        1 bytes
  7266 ;; Hardware stack levels used: 1
  7267 ;; Hardware stack levels required when called: 2
  7268 ;; This function calls:
  7269 ;;		_I2C1_SetBuffer
  7270 ;;		_I2C1_SetDataCompleteCallback
  7271 ;; This function is called by:
  7272 ;;		_I2C1_ReadDataBlock
  7273 ;;		_I2C1_DO_TX
  7274 ;;		_I2C1_DO_RX
  7275 ;;		_I2C1_DO_TX_EMPTY
  7276 ;;		_I2C1_DO_ADDRESS_NACK
  7277 ;;		_I2C1_DO_RX_EMPTY
  7278 ;; This function uses a non-reentrant model
  7279 ;;
  7280                           
  7281  0FCC                     _rdBlkRegCompleteHandler:	
  7282                           ;psect for function _rdBlkRegCompleteHandler
  7283                           
  7284  0FCC                     l2552:	
  7285                           ;incstack = 0
  7286                           ; Regs used in _rdBlkRegCompleteHandler: [wreg+fsr1l+fsr1h+status,2+status,0+pclath+csta
      +                          ck]
  7287                           
  7288                           
  7289                           ;mcc_generated_files/examples/i2c1_master_example.c: 170: static i2c1_operations_t rdBlk
      +                          RegCompleteHandler(void *ptr);mcc_generated_files/examples/i2c1_master_example.c: 171: {
      +                          ;mcc_generated_files/examples/i2c1_master_example.c: 172:     I2C1_SetBuffer(((i2c1_buff
      +                          er_t *)ptr)->data,((i2c1_buffer_t*)ptr)->len);
  7290  0FCC  0879               	movf	rdBlkRegCompleteHandler@ptr,w
  7291  0FCD  0086               	movwf	6
  7292  0FCE  0187               	clrf	7
  7293  0FCF  3F40               	moviw [0]fsr1
  7294  0FD0  00F0               	movwf	I2C1_SetBuffer@bufferSize
  7295  0FD1  3F41               	moviw [1]fsr1
  7296  0FD2  00F1               	movwf	I2C1_SetBuffer@bufferSize+1
  7297  0FD3  0879               	movf	rdBlkRegCompleteHandler@ptr,w
  7298  0FD4  3E02               	addlw	2
  7299  0FD5  0086               	movwf	6
  7300  0FD6  0187               	clrf	7
  7301  0FD7  0801               	movf	1,w
  7302  0FD8  318F  271B  318F   	fcall	_I2C1_SetBuffer
  7303                           
  7304                           ;mcc_generated_files/examples/i2c1_master_example.c: 173:     I2C1_SetDataCompleteCallba
      +                          ck(((void*)0),((void*)0));
  7305  0FDB  3000               	movlw	0
  7306  0FDC  00F5               	movwf	I2C1_SetDataCompleteCallback@cb
  7307  0FDD  00F6               	movwf	I2C1_SetDataCompleteCallback@cb+1
  7308  0FDE  01F7               	clrf	I2C1_SetDataCompleteCallback@ptr
  7309  0FDF  318E  26E7  318F   	fcall	_I2C1_SetDataCompleteCallback
  7310  0FE2                     l2554:
  7311                           
  7312                           ;mcc_generated_files/examples/i2c1_master_example.c: 174:     return I2C1_RESTART_READ;
  7313  0FE2  3002               	movlw	2
  7314  0FE3                     l102:
  7315  0FE3  0008               	return
  7316  0FE4                     __end_of_rdBlkRegCompleteHandler:
  7317                           
  7318                           	psect	text53
  7319  0F7E                     __ptext53:	
  7320 ;; *************** function _wr1RegCompleteHandler *****************
  7321 ;; Defined at:
  7322 ;;		line 156 in file "mcc_generated_files/examples/i2c1_master_example.c"
  7323 ;; Parameters:    Size  Location     Type
  7324 ;;  ptr             1    9[COMMON] PTR void 
  7325 ;;		 -> I2C1_ReadDataBlock@bufferBlock(3), I2C1_Write2ByteRegister@data(2), I2C1_Write1ByteRegister@data(1), I2C1_Read2B
      +yteRegister@returnValue(2), 
  7326 ;;		 -> NULL(0), I2C1_Read1ByteRegister@returnValue(1), 
  7327 ;; Auto vars:     Size  Location     Type
  7328 ;;		None
  7329 ;; Return value:  Size  Location     Type
  7330 ;;                  1    wreg      enum E360
  7331 ;; Registers used:
  7332 ;;		wreg, fsr1l, fsr1h, status,2, status,0, pclath, cstack
  7333 ;; Tracked objects:
  7334 ;;		On entry : 0/0
  7335 ;;		On exit  : 0/0
  7336 ;;		Unchanged: 0/0
  7337 ;; Data sizes:     COMMON   BANK0   BANK1   BANK2   BANK3   BANK4
  7338 ;;      Params:         1       0       0       0       0       0
  7339 ;;      Locals:         0       0       0       0       0       0
  7340 ;;      Temps:          0       0       0       0       0       0
  7341 ;;      Totals:         1       0       0       0       0       0
  7342 ;;Total ram usage:        1 bytes
  7343 ;; Hardware stack levels used: 1
  7344 ;; Hardware stack levels required when called: 2
  7345 ;; This function calls:
  7346 ;;		_I2C1_SetBuffer
  7347 ;;		_I2C1_SetDataCompleteCallback
  7348 ;; This function is called by:
  7349 ;;		_I2C1_Write1ByteRegister
  7350 ;;		_I2C1_DO_TX
  7351 ;;		_I2C1_DO_RX
  7352 ;;		_I2C1_DO_TX_EMPTY
  7353 ;;		_I2C1_DO_ADDRESS_NACK
  7354 ;;		_I2C1_DO_RX_EMPTY
  7355 ;; This function uses a non-reentrant model
  7356 ;;
  7357                           
  7358  0F7E                     _wr1RegCompleteHandler:	
  7359                           ;psect for function _wr1RegCompleteHandler
  7360                           
  7361  0F7E                     l2536:	
  7362                           ;incstack = 0
  7363                           ; Regs used in _wr1RegCompleteHandler: [wreg+fsr1l+fsr1h+status,2+status,0+pclath+cstack
      +                          ]
  7364                           
  7365                           
  7366                           ;mcc_generated_files/examples/i2c1_master_example.c: 156: static i2c1_operations_t wr1Re
      +                          gCompleteHandler(void *ptr);mcc_generated_files/examples/i2c1_master_example.c: 157: {;m
      +                          cc_generated_files/examples/i2c1_master_example.c: 158:     I2C1_SetBuffer(ptr,1);
  7367  0F7E  3001               	movlw	1
  7368  0F7F  00F0               	movwf	I2C1_SetBuffer@bufferSize
  7369  0F80  3000               	movlw	0
  7370  0F81  00F1               	movwf	I2C1_SetBuffer@bufferSize+1
  7371  0F82  0879               	movf	wr1RegCompleteHandler@ptr,w
  7372  0F83  318F  271B  318F   	fcall	_I2C1_SetBuffer
  7373  0F86                     l2538:
  7374                           
  7375                           ;mcc_generated_files/examples/i2c1_master_example.c: 159:     I2C1_SetDataCompleteCallba
      +                          ck(((void*)0),((void*)0));
  7376  0F86  3000               	movlw	0
  7377  0F87  00F5               	movwf	I2C1_SetDataCompleteCallback@cb
  7378  0F88  00F6               	movwf	I2C1_SetDataCompleteCallback@cb+1
  7379  0F89  01F7               	clrf	I2C1_SetDataCompleteCallback@ptr
  7380  0F8A  318E  26E7  318F   	fcall	_I2C1_SetDataCompleteCallback
  7381  0F8D                     l2540:
  7382                           
  7383                           ;mcc_generated_files/examples/i2c1_master_example.c: 160:     return I2C1_CONTINUE;
  7384  0F8D  3004               	movlw	4
  7385  0F8E                     l96:
  7386  0F8E  0008               	return
  7387  0F8F                     __end_of_wr1RegCompleteHandler:
  7388                           
  7389                           	psect	text54
  7390  0F6D                     __ptext54:	
  7391 ;; *************** function _rd2RegCompleteHandler *****************
  7392 ;; Defined at:
  7393 ;;		line 149 in file "mcc_generated_files/examples/i2c1_master_example.c"
  7394 ;; Parameters:    Size  Location     Type
  7395 ;;  ptr             1    9[COMMON] PTR void 
  7396 ;;		 -> I2C1_ReadDataBlock@bufferBlock(3), I2C1_Write2ByteRegister@data(2), I2C1_Write1ByteRegister@data(1), I2C1_Read2B
      +yteRegister@returnValue(2), 
  7397 ;;		 -> NULL(0), I2C1_Read1ByteRegister@returnValue(1), 
  7398 ;; Auto vars:     Size  Location     Type
  7399 ;;		None
  7400 ;; Return value:  Size  Location     Type
  7401 ;;                  1    wreg      enum E360
  7402 ;; Registers used:
  7403 ;;		wreg, fsr1l, fsr1h, status,2, status,0, pclath, cstack
  7404 ;; Tracked objects:
  7405 ;;		On entry : 0/0
  7406 ;;		On exit  : 0/0
  7407 ;;		Unchanged: 0/0
  7408 ;; Data sizes:     COMMON   BANK0   BANK1   BANK2   BANK3   BANK4
  7409 ;;      Params:         1       0       0       0       0       0
  7410 ;;      Locals:         0       0       0       0       0       0
  7411 ;;      Temps:          0       0       0       0       0       0
  7412 ;;      Totals:         1       0       0       0       0       0
  7413 ;;Total ram usage:        1 bytes
  7414 ;; Hardware stack levels used: 1
  7415 ;; Hardware stack levels required when called: 2
  7416 ;; This function calls:
  7417 ;;		_I2C1_SetBuffer
  7418 ;;		_I2C1_SetDataCompleteCallback
  7419 ;; This function is called by:
  7420 ;;		_I2C1_Read2ByteRegister
  7421 ;;		_I2C1_DO_TX
  7422 ;;		_I2C1_DO_RX
  7423 ;;		_I2C1_DO_TX_EMPTY
  7424 ;;		_I2C1_DO_ADDRESS_NACK
  7425 ;;		_I2C1_DO_RX_EMPTY
  7426 ;; This function uses a non-reentrant model
  7427 ;;
  7428                           
  7429  0F6D                     _rd2RegCompleteHandler:	
  7430                           ;psect for function _rd2RegCompleteHandler
  7431                           
  7432  0F6D                     l2528:	
  7433                           ;incstack = 0
  7434                           ; Regs used in _rd2RegCompleteHandler: [wreg+fsr1l+fsr1h+status,2+status,0+pclath+cstack
      +                          ]
  7435                           
  7436                           
  7437                           ;mcc_generated_files/examples/i2c1_master_example.c: 149: static i2c1_operations_t rd2Re
      +                          gCompleteHandler(void *ptr);mcc_generated_files/examples/i2c1_master_example.c: 150: {;m
      +                          cc_generated_files/examples/i2c1_master_example.c: 151:     I2C1_SetBuffer(ptr,2);
  7438  0F6D  3002               	movlw	2
  7439  0F6E  00F0               	movwf	I2C1_SetBuffer@bufferSize
  7440  0F6F  3000               	movlw	0
  7441  0F70  00F1               	movwf	I2C1_SetBuffer@bufferSize+1
  7442  0F71  0879               	movf	rd2RegCompleteHandler@ptr,w
  7443  0F72  318F  271B  318F   	fcall	_I2C1_SetBuffer
  7444  0F75                     l2530:
  7445                           
  7446                           ;mcc_generated_files/examples/i2c1_master_example.c: 152:     I2C1_SetDataCompleteCallba
      +                          ck(((void*)0),((void*)0));
  7447  0F75  3000               	movlw	0
  7448  0F76  00F5               	movwf	I2C1_SetDataCompleteCallback@cb
  7449  0F77  00F6               	movwf	I2C1_SetDataCompleteCallback@cb+1
  7450  0F78  01F7               	clrf	I2C1_SetDataCompleteCallback@ptr
  7451  0F79  318E  26E7  318F   	fcall	_I2C1_SetDataCompleteCallback
  7452  0F7C                     l2532:
  7453                           
  7454                           ;mcc_generated_files/examples/i2c1_master_example.c: 153:     return I2C1_RESTART_READ;
  7455  0F7C  3002               	movlw	2
  7456  0F7D                     l93:
  7457  0F7D  0008               	return
  7458  0F7E                     __end_of_rd2RegCompleteHandler:
  7459                           
  7460                           	psect	text55
  7461  0F5C                     __ptext55:	
  7462 ;; *************** function _rd1RegCompleteHandler *****************
  7463 ;; Defined at:
  7464 ;;		line 142 in file "mcc_generated_files/examples/i2c1_master_example.c"
  7465 ;; Parameters:    Size  Location     Type
  7466 ;;  ptr             1    9[COMMON] PTR void 
  7467 ;;		 -> I2C1_ReadDataBlock@bufferBlock(3), I2C1_Write2ByteRegister@data(2), I2C1_Write1ByteRegister@data(1), I2C1_Read2B
      +yteRegister@returnValue(2), 
  7468 ;;		 -> NULL(0), I2C1_Read1ByteRegister@returnValue(1), 
  7469 ;; Auto vars:     Size  Location     Type
  7470 ;;		None
  7471 ;; Return value:  Size  Location     Type
  7472 ;;                  1    wreg      enum E360
  7473 ;; Registers used:
  7474 ;;		wreg, fsr1l, fsr1h, status,2, status,0, pclath, cstack
  7475 ;; Tracked objects:
  7476 ;;		On entry : 0/0
  7477 ;;		On exit  : 0/0
  7478 ;;		Unchanged: 0/0
  7479 ;; Data sizes:     COMMON   BANK0   BANK1   BANK2   BANK3   BANK4
  7480 ;;      Params:         1       0       0       0       0       0
  7481 ;;      Locals:         0       0       0       0       0       0
  7482 ;;      Temps:          0       0       0       0       0       0
  7483 ;;      Totals:         1       0       0       0       0       0
  7484 ;;Total ram usage:        1 bytes
  7485 ;; Hardware stack levels used: 1
  7486 ;; Hardware stack levels required when called: 2
  7487 ;; This function calls:
  7488 ;;		_I2C1_SetBuffer
  7489 ;;		_I2C1_SetDataCompleteCallback
  7490 ;; This function is called by:
  7491 ;;		_I2C1_Read1ByteRegister
  7492 ;;		_I2C1_DO_TX
  7493 ;;		_I2C1_DO_RX
  7494 ;;		_I2C1_DO_TX_EMPTY
  7495 ;;		_I2C1_DO_ADDRESS_NACK
  7496 ;;		_I2C1_DO_RX_EMPTY
  7497 ;; This function uses a non-reentrant model
  7498 ;;
  7499                           
  7500  0F5C                     _rd1RegCompleteHandler:	
  7501                           ;psect for function _rd1RegCompleteHandler
  7502                           
  7503  0F5C                     l2520:	
  7504                           ;incstack = 0
  7505                           ; Regs used in _rd1RegCompleteHandler: [wreg+fsr1l+fsr1h+status,2+status,0+pclath+cstack
      +                          ]
  7506                           
  7507                           
  7508                           ;mcc_generated_files/examples/i2c1_master_example.c: 142: static i2c1_operations_t rd1Re
      +                          gCompleteHandler(void *ptr);mcc_generated_files/examples/i2c1_master_example.c: 143: {;m
      +                          cc_generated_files/examples/i2c1_master_example.c: 144:     I2C1_SetBuffer(ptr,1);
  7509  0F5C  3001               	movlw	1
  7510  0F5D  00F0               	movwf	I2C1_SetBuffer@bufferSize
  7511  0F5E  3000               	movlw	0
  7512  0F5F  00F1               	movwf	I2C1_SetBuffer@bufferSize+1
  7513  0F60  0879               	movf	rd1RegCompleteHandler@ptr,w
  7514  0F61  318F  271B  318F   	fcall	_I2C1_SetBuffer
  7515  0F64                     l2522:
  7516                           
  7517                           ;mcc_generated_files/examples/i2c1_master_example.c: 145:     I2C1_SetDataCompleteCallba
      +                          ck(((void*)0),((void*)0));
  7518  0F64  3000               	movlw	0
  7519  0F65  00F5               	movwf	I2C1_SetDataCompleteCallback@cb
  7520  0F66  00F6               	movwf	I2C1_SetDataCompleteCallback@cb+1
  7521  0F67  01F7               	clrf	I2C1_SetDataCompleteCallback@ptr
  7522  0F68  318E  26E7  318F   	fcall	_I2C1_SetDataCompleteCallback
  7523  0F6B                     l2524:
  7524                           
  7525                           ;mcc_generated_files/examples/i2c1_master_example.c: 146:     return I2C1_RESTART_READ;
  7526  0F6B  3002               	movlw	2
  7527  0F6C                     l90:
  7528  0F6C  0008               	return
  7529  0F6D                     __end_of_rd1RegCompleteHandler:
  7530                           
  7531                           	psect	text56
  7532  0F4B                     __ptext56:	
  7533 ;; *************** function _wr2RegCompleteHandler *****************
  7534 ;; Defined at:
  7535 ;;		line 163 in file "mcc_generated_files/examples/i2c1_master_example.c"
  7536 ;; Parameters:    Size  Location     Type
  7537 ;;  ptr             1    9[COMMON] PTR void 
  7538 ;;		 -> I2C1_ReadDataBlock@bufferBlock(3), I2C1_Write2ByteRegister@data(2), I2C1_Write1ByteRegister@data(1), I2C1_Read2B
      +yteRegister@returnValue(2), 
  7539 ;;		 -> NULL(0), I2C1_Read1ByteRegister@returnValue(1), 
  7540 ;; Auto vars:     Size  Location     Type
  7541 ;;		None
  7542 ;; Return value:  Size  Location     Type
  7543 ;;                  1    wreg      enum E360
  7544 ;; Registers used:
  7545 ;;		wreg, fsr1l, fsr1h, status,2, status,0, pclath, cstack
  7546 ;; Tracked objects:
  7547 ;;		On entry : 0/0
  7548 ;;		On exit  : 0/0
  7549 ;;		Unchanged: 0/0
  7550 ;; Data sizes:     COMMON   BANK0   BANK1   BANK2   BANK3   BANK4
  7551 ;;      Params:         1       0       0       0       0       0
  7552 ;;      Locals:         0       0       0       0       0       0
  7553 ;;      Temps:          0       0       0       0       0       0
  7554 ;;      Totals:         1       0       0       0       0       0
  7555 ;;Total ram usage:        1 bytes
  7556 ;; Hardware stack levels used: 1
  7557 ;; Hardware stack levels required when called: 2
  7558 ;; This function calls:
  7559 ;;		_I2C1_SetBuffer
  7560 ;;		_I2C1_SetDataCompleteCallback
  7561 ;; This function is called by:
  7562 ;;		_I2C1_Write2ByteRegister
  7563 ;;		_I2C1_DO_TX
  7564 ;;		_I2C1_DO_RX
  7565 ;;		_I2C1_DO_TX_EMPTY
  7566 ;;		_I2C1_DO_ADDRESS_NACK
  7567 ;;		_I2C1_DO_RX_EMPTY
  7568 ;; This function uses a non-reentrant model
  7569 ;;
  7570                           
  7571  0F4B                     _wr2RegCompleteHandler:	
  7572                           ;psect for function _wr2RegCompleteHandler
  7573                           
  7574  0F4B                     l2544:	
  7575                           ;incstack = 0
  7576                           ; Regs used in _wr2RegCompleteHandler: [wreg+fsr1l+fsr1h+status,2+status,0+pclath+cstack
      +                          ]
  7577                           
  7578                           
  7579                           ;mcc_generated_files/examples/i2c1_master_example.c: 163: static i2c1_operations_t wr2Re
      +                          gCompleteHandler(void *ptr);mcc_generated_files/examples/i2c1_master_example.c: 164: {;m
      +                          cc_generated_files/examples/i2c1_master_example.c: 165:     I2C1_SetBuffer(ptr,2);
  7580  0F4B  3002               	movlw	2
  7581  0F4C  00F0               	movwf	I2C1_SetBuffer@bufferSize
  7582  0F4D  3000               	movlw	0
  7583  0F4E  00F1               	movwf	I2C1_SetBuffer@bufferSize+1
  7584  0F4F  0879               	movf	wr2RegCompleteHandler@ptr,w
  7585  0F50  318F  271B  318F   	fcall	_I2C1_SetBuffer
  7586  0F53                     l2546:
  7587                           
  7588                           ;mcc_generated_files/examples/i2c1_master_example.c: 166:     I2C1_SetDataCompleteCallba
      +                          ck(((void*)0),((void*)0));
  7589  0F53  3000               	movlw	0
  7590  0F54  00F5               	movwf	I2C1_SetDataCompleteCallback@cb
  7591  0F55  00F6               	movwf	I2C1_SetDataCompleteCallback@cb+1
  7592  0F56  01F7               	clrf	I2C1_SetDataCompleteCallback@ptr
  7593  0F57  318E  26E7  318F   	fcall	_I2C1_SetDataCompleteCallback
  7594  0F5A                     l2548:
  7595                           
  7596                           ;mcc_generated_files/examples/i2c1_master_example.c: 167:     return I2C1_CONTINUE;
  7597  0F5A  3004               	movlw	4
  7598  0F5B                     l99:
  7599  0F5B  0008               	return
  7600  0F5C                     __end_of_wr2RegCompleteHandler:
  7601                           
  7602                           	psect	text57
  7603  0EE7                     __ptext57:	
  7604 ;; *************** function _I2C1_SetDataCompleteCallback *****************
  7605 ;; Defined at:
  7606 ;;		line 273 in file "mcc_generated_files/i2c1_master.c"
  7607 ;; Parameters:    Size  Location     Type
  7608 ;;  cb              2    5[COMMON] PTR FTN(PTR void ,)enum 
  7609 ;;		 -> Absolute function(1), rdBlkRegCompleteHandler(1), wr2RegCompleteHandler(1), wr1RegCompleteHandler(1), 
  7610 ;;		 -> rd2RegCompleteHandler(1), rd1RegCompleteHandler(1), 
  7611 ;;  ptr             1    7[COMMON] PTR void 
  7612 ;;		 -> I2C1_ReadDataBlock@bufferBlock(3), I2C1_Write2ByteRegister@data(2), I2C1_Write1ByteRegister@data(1), I2C1_Read2B
      +yteRegister@returnValue(2), 
  7613 ;;		 -> NULL(0), I2C1_Read1ByteRegister@returnValue(1), 
  7614 ;; Auto vars:     Size  Location     Type
  7615 ;;		None
  7616 ;; Return value:  Size  Location     Type
  7617 ;;                  1    wreg      void 
  7618 ;; Registers used:
  7619 ;;		wreg, fsr1l, fsr1h, status,2, status,0, pclath, cstack
  7620 ;; Tracked objects:
  7621 ;;		On entry : 0/0
  7622 ;;		On exit  : 0/0
  7623 ;;		Unchanged: 0/0
  7624 ;; Data sizes:     COMMON   BANK0   BANK1   BANK2   BANK3   BANK4
  7625 ;;      Params:         3       0       0       0       0       0
  7626 ;;      Locals:         0       0       0       0       0       0
  7627 ;;      Temps:          1       0       0       0       0       0
  7628 ;;      Totals:         4       0       0       0       0       0
  7629 ;;Total ram usage:        4 bytes
  7630 ;; Hardware stack levels used: 1
  7631 ;; Hardware stack levels required when called: 1
  7632 ;; This function calls:
  7633 ;;		_I2C1_SetCallback
  7634 ;; This function is called by:
  7635 ;;		_rd1RegCompleteHandler
  7636 ;;		_rd2RegCompleteHandler
  7637 ;;		_wr1RegCompleteHandler
  7638 ;;		_wr2RegCompleteHandler
  7639 ;;		_rdBlkRegCompleteHandler
  7640 ;;		_I2C1_Read1ByteRegister
  7641 ;;		_I2C1_Read2ByteRegister
  7642 ;;		_I2C1_Write1ByteRegister
  7643 ;;		_I2C1_Write2ByteRegister
  7644 ;;		_I2C1_ReadDataBlock
  7645 ;; This function uses a non-reentrant model
  7646 ;;
  7647                           
  7648  0EE7                     _I2C1_SetDataCompleteCallback:	
  7649                           ;psect for function _I2C1_SetDataCompleteCallback
  7650                           
  7651  0EE7                     l2506:	
  7652                           ;incstack = 0
  7653                           ; Regs used in _I2C1_SetDataCompleteCallback: [wreg+fsr1l+fsr1h+status,2+status,0+pclath
      +                          +cstack]
  7654                           
  7655                           
  7656                           ;mcc_generated_files/i2c1_master.c: 273: void I2C1_SetDataCompleteCallback(i2c1_callback
      +                          _t cb, void *ptr);mcc_generated_files/i2c1_master.c: 274: {;mcc_generated_files/i2c1_mas
      +                          ter.c: 275:     I2C1_SetCallback(I2C1_DATA_COMPLETE, cb, ptr);
  7657  0EE7  0876               	movf	I2C1_SetDataCompleteCallback@cb+1,w
  7658  0EE8  00F1               	movwf	I2C1_SetCallback@cb+1
  7659  0EE9  0875               	movf	I2C1_SetDataCompleteCallback@cb,w
  7660  0EEA  00F0               	movwf	I2C1_SetCallback@cb
  7661  0EEB  0877               	movf	I2C1_SetDataCompleteCallback@ptr,w
  7662  0EEC  00F8               	movwf	??_I2C1_SetDataCompleteCallback
  7663  0EED  0878               	movf	??_I2C1_SetDataCompleteCallback,w
  7664  0EEE  00F2               	movwf	I2C1_SetCallback@ptr
  7665  0EEF  3000               	movlw	0
  7666  0EF0  3180  205F  318E   	fcall	_I2C1_SetCallback
  7667  0EF3                     l332:
  7668  0EF3  0008               	return
  7669  0EF4                     __end_of_I2C1_SetDataCompleteCallback:
  7670                           
  7671                           	psect	text58
  7672  005F                     __ptext58:	
  7673 ;; *************** function _I2C1_SetCallback *****************
  7674 ;; Defined at:
  7675 ;;		line 298 in file "mcc_generated_files/i2c1_master.c"
  7676 ;; Parameters:    Size  Location     Type
  7677 ;;  idx             1    wreg     enum E2888
  7678 ;;  cb              2    0[COMMON] PTR FTN(PTR void ,)enum 
  7679 ;;		 -> Absolute function(1), rdBlkRegCompleteHandler(1), wr2RegCompleteHandler(1), wr1RegCompleteHandler(1), 
  7680 ;;		 -> rd2RegCompleteHandler(1), rd1RegCompleteHandler(1), 
  7681 ;;  ptr             1    2[COMMON] PTR void 
  7682 ;;		 -> I2C1_ReadDataBlock@bufferBlock(3), I2C1_Write2ByteRegister@data(2), I2C1_Write1ByteRegister@data(1), I2C1_Read2B
      +yteRegister@returnValue(2), 
  7683 ;;		 -> NULL(0), I2C1_Read1ByteRegister@returnValue(1), 
  7684 ;; Auto vars:     Size  Location     Type
  7685 ;;  idx             1    4[COMMON] enum E2888
  7686 ;; Return value:  Size  Location     Type
  7687 ;;                  1    wreg      void 
  7688 ;; Registers used:
  7689 ;;		wreg, fsr1l, fsr1h, status,2, status,0
  7690 ;; Tracked objects:
  7691 ;;		On entry : 0/0
  7692 ;;		On exit  : 0/0
  7693 ;;		Unchanged: 0/0
  7694 ;; Data sizes:     COMMON   BANK0   BANK1   BANK2   BANK3   BANK4
  7695 ;;      Params:         3       0       0       0       0       0
  7696 ;;      Locals:         1       0       0       0       0       0
  7697 ;;      Temps:          1       0       0       0       0       0
  7698 ;;      Totals:         5       0       0       0       0       0
  7699 ;;Total ram usage:        5 bytes
  7700 ;; Hardware stack levels used: 1
  7701 ;; This function calls:
  7702 ;;		Nothing
  7703 ;; This function is called by:
  7704 ;;		_I2C1_SetDataCompleteCallback
  7705 ;;		_I2C1_SetAddressNackCallback
  7706 ;;		_I2C1_SetWriteCollisionCallback
  7707 ;;		_I2C1_SetDataNackCallback
  7708 ;;		_I2C1_SetTimeoutCallback
  7709 ;; This function uses a non-reentrant model
  7710 ;;
  7711                           
  7712  005F                     _I2C1_SetCallback:	
  7713                           ;psect for function _I2C1_SetCallback
  7714                           
  7715                           
  7716                           ;incstack = 0
  7717                           ; Regs used in _I2C1_SetCallback: [wreg+fsr1l+fsr1h+status,2+status,0]
  7718                           ;I2C1_SetCallback@idx stored from wreg
  7719  005F  00F4               	movwf	I2C1_SetCallback@idx
  7720  0060                     l2500:
  7721                           
  7722                           ;mcc_generated_files/i2c1_master.c: 298: static void I2C1_SetCallback(i2c1_callbackIndex
      +                          _t idx, i2c1_callback_t cb, void *ptr);mcc_generated_files/i2c1_master.c: 299: {;mcc_gen
      +                          erated_files/i2c1_master.c: 300:     if(cb)
  7723  0060  0870               	movf	I2C1_SetCallback@cb,w
  7724  0061  0471               	iorwf	I2C1_SetCallback@cb+1,w
  7725  0062  1903               	btfsc	3,2
  7726  0063  2865               	goto	u1161
  7727  0064  2866               	goto	u1160
  7728  0065                     u1161:
  7729  0065  2877               	goto	l2504
  7730  0066                     u1160:
  7731  0066                     l2502:
  7732                           
  7733                           ;mcc_generated_files/i2c1_master.c: 301:     {;mcc_generated_files/i2c1_master.c: 302:  
      +                                 I2C1_Status.callbackTable[idx] = cb;
  7734  0066  3574               	lslf	I2C1_SetCallback@idx,w
  7735  0067  3EA0               	addlw	(low (_I2C1_Status| 0))& (0+255)
  7736  0068  0086               	movwf	6
  7737  0069  0187               	clrf	7
  7738  006A  0870               	movf	I2C1_SetCallback@cb,w
  7739  006B  3FC0               	movwi [0]fsr1
  7740  006C  0871               	movf	I2C1_SetCallback@cb+1,w
  7741  006D  3FC1               	movwi [1]fsr1
  7742                           
  7743                           ;mcc_generated_files/i2c1_master.c: 303:         I2C1_Status.callbackPayload[idx] = ptr;
  7744  006E  0872               	movf	I2C1_SetCallback@ptr,w
  7745  006F  00F3               	movwf	??_I2C1_SetCallback
  7746  0070  0874               	movf	I2C1_SetCallback@idx,w
  7747  0071  3EAC               	addlw	(low ((_I2C1_Status| 0+12)))& (0+255)
  7748  0072  0086               	movwf	6
  7749  0073  0187               	clrf	7
  7750  0074  0873               	movf	??_I2C1_SetCallback,w
  7751  0075  0081               	movwf	1
  7752                           
  7753                           ;mcc_generated_files/i2c1_master.c: 304:     }
  7754  0076  2884               	goto	l349
  7755  0077                     l2504:
  7756                           
  7757                           ;mcc_generated_files/i2c1_master.c: 306:     {;mcc_generated_files/i2c1_master.c: 307:  
      +                                 I2C1_Status.callbackTable[idx] = I2C1_CallbackReturnStop;
  7758  0077  3574               	lslf	I2C1_SetCallback@idx,w
  7759  0078  3EA0               	addlw	(low (_I2C1_Status| 0))& (0+255)
  7760  0079  0086               	movwf	6
  7761  007A  0187               	clrf	7
  7762  007B  3040               	movlw	low _I2C1_CallbackReturnStop
  7763  007C  3FC0               	movwi [0]fsr1
  7764  007D  300E               	movlw	high _I2C1_CallbackReturnStop
  7765  007E  3FC1               	movwi [1]fsr1
  7766                           
  7767                           ;mcc_generated_files/i2c1_master.c: 308:         I2C1_Status.callbackPayload[idx] = ((vo
      +                          id*)0);
  7768  007F  0874               	movf	I2C1_SetCallback@idx,w
  7769  0080  3EAC               	addlw	(low ((_I2C1_Status| 0+12)))& (0+255)
  7770  0081  0086               	movwf	6
  7771  0082  0187               	clrf	7
  7772  0083  0181               	clrf	1
  7773  0084                     l349:
  7774  0084  0008               	return
  7775  0085                     __end_of_I2C1_SetCallback:
  7776                           
  7777                           	psect	text59
  7778  0F1B                     __ptext59:	
  7779 ;; *************** function _I2C1_SetBuffer *****************
  7780 ;; Defined at:
  7781 ;;		line 263 in file "mcc_generated_files/i2c1_master.c"
  7782 ;; Parameters:    Size  Location     Type
  7783 ;;  buffer          1    wreg     PTR void 
  7784 ;;		 -> I2C1_Read1ByteRegister@returnValue.data(2), I2C1_Read2ByteRegister@returnValue.data(2), I2C1_Write1ByteRegister@
      +data.data(2), I2C1_Write2ByteRegister@data.data(2), 
  7785 ;;		 -> IO_Expander_Write@dt(1), I2C1_ReadDataBlock@reg(1), I2C1_ReadDataBlock@bufferBlock(3), bufferBlock.data(2), 
  7786 ;;		 -> I2C1_Write2ByteRegister@reg(1), I2C1_Write2ByteRegister@data(2), I2C1_Write1ByteRegister@reg(1), I2C1_Write1Byte
      +Register@data(1), 
  7787 ;;		 -> I2C1_Read2ByteRegister@reg(1), I2C1_Read2ByteRegister@returnValue(2), NULL(0), I2C1_Read1ByteRegister@reg(1), 
  7788 ;;		 -> I2C1_Read1ByteRegister@returnValue(1), 
  7789 ;;  bufferSize      2    0[COMMON] unsigned int 
  7790 ;; Auto vars:     Size  Location     Type
  7791 ;;  buffer          1    3[COMMON] PTR void 
  7792 ;;		 -> I2C1_Read1ByteRegister@returnValue.data(2), I2C1_Read2ByteRegister@returnValue.data(2), I2C1_Write1ByteRegister@
      +data.data(2), I2C1_Write2ByteRegister@data.data(2), 
  7793 ;;		 -> IO_Expander_Write@dt(1), I2C1_ReadDataBlock@reg(1), I2C1_ReadDataBlock@bufferBlock(3), bufferBlock.data(2), 
  7794 ;;		 -> I2C1_Write2ByteRegister@reg(1), I2C1_Write2ByteRegister@data(2), I2C1_Write1ByteRegister@reg(1), I2C1_Write1Byte
      +Register@data(1), 
  7795 ;;		 -> I2C1_Read2ByteRegister@reg(1), I2C1_Read2ByteRegister@returnValue(2), NULL(0), I2C1_Read1ByteRegister@reg(1), 
  7796 ;;		 -> I2C1_Read1ByteRegister@returnValue(1), 
  7797 ;; Return value:  Size  Location     Type
  7798 ;;                  1    wreg      void 
  7799 ;; Registers used:
  7800 ;;		wreg
  7801 ;; Tracked objects:
  7802 ;;		On entry : 0/0
  7803 ;;		On exit  : 0/0
  7804 ;;		Unchanged: 0/0
  7805 ;; Data sizes:     COMMON   BANK0   BANK1   BANK2   BANK3   BANK4
  7806 ;;      Params:         2       0       0       0       0       0
  7807 ;;      Locals:         1       0       0       0       0       0
  7808 ;;      Temps:          1       0       0       0       0       0
  7809 ;;      Totals:         4       0       0       0       0       0
  7810 ;;Total ram usage:        4 bytes
  7811 ;; Hardware stack levels used: 1
  7812 ;; This function calls:
  7813 ;;		Nothing
  7814 ;; This function is called by:
  7815 ;;		_I2C1_WriteNBytes
  7816 ;;		_rd1RegCompleteHandler
  7817 ;;		_rd2RegCompleteHandler
  7818 ;;		_wr1RegCompleteHandler
  7819 ;;		_wr2RegCompleteHandler
  7820 ;;		_rdBlkRegCompleteHandler
  7821 ;;		_I2C1_Read1ByteRegister
  7822 ;;		_I2C1_Read2ByteRegister
  7823 ;;		_I2C1_Write1ByteRegister
  7824 ;;		_I2C1_Write2ByteRegister
  7825 ;;		_I2C1_ReadNBytes
  7826 ;;		_I2C1_ReadDataBlock
  7827 ;; This function uses a non-reentrant model
  7828 ;;
  7829                           
  7830  0F1B                     _I2C1_SetBuffer:	
  7831                           ;psect for function _I2C1_SetBuffer
  7832                           
  7833                           
  7834                           ;incstack = 0
  7835                           ; Regs used in _I2C1_SetBuffer: [wreg]
  7836                           ;I2C1_SetBuffer@buffer stored from wreg
  7837  0F1B  00F3               	movwf	I2C1_SetBuffer@buffer
  7838  0F1C                     l2508:
  7839                           
  7840                           ;mcc_generated_files/i2c1_master.c: 263: void I2C1_SetBuffer(void *buffer, size_t buffer
      +                          Size);mcc_generated_files/i2c1_master.c: 264: {;mcc_generated_files/i2c1_master.c: 265: 
      +                              if(I2C1_Status.bufferFree)
  7841  0F1C  0021               	movlb	1	; select bank1
  7842  0F1D  1DBC               	btfss	(_I2C1_Status^(0+128)+28),3
  7843  0F1E  2F20               	goto	u1171
  7844  0F1F  2F21               	goto	u1170
  7845  0F20                     u1171:
  7846  0F20  2F2A               	goto	l329
  7847  0F21                     u1170:
  7848  0F21                     l2510:
  7849                           
  7850                           ;mcc_generated_files/i2c1_master.c: 266:     {;mcc_generated_files/i2c1_master.c: 267:  
      +                                 I2C1_Status.data_ptr = buffer;
  7851  0F21  0873               	movf	I2C1_SetBuffer@buffer,w
  7852  0F22  00F2               	movwf	??_I2C1_SetBuffer
  7853  0F23  0872               	movf	??_I2C1_SetBuffer,w
  7854  0F24  00B7               	movwf	(low ((_I2C1_Status| 0+23)))^(0+128)
  7855                           
  7856                           ;mcc_generated_files/i2c1_master.c: 268:         I2C1_Status.data_length = bufferSize;
  7857  0F25  0871               	movf	I2C1_SetBuffer@bufferSize+1,w
  7858  0F26  00B9               	movwf	((_I2C1_Status+1)^(0+128)+24)
  7859  0F27  0870               	movf	I2C1_SetBuffer@bufferSize,w
  7860  0F28  00B8               	movwf	(_I2C1_Status^(0+128)+24)
  7861  0F29                     l2512:
  7862                           
  7863                           ;mcc_generated_files/i2c1_master.c: 269:         I2C1_Status.bufferFree = 0;
  7864  0F29  11BC               	bcf	(_I2C1_Status^(0+128)+28),3
  7865  0F2A                     l329:
  7866  0F2A  0008               	return
  7867  0F2B                     __end_of_I2C1_SetBuffer:
  7868                           
  7869                           	psect	text60
  7870  0E56                     __ptext60:	
  7871 ;; *************** function _I2C1_MasterStop *****************
  7872 ;; Defined at:
  7873 ;;		line 593 in file "mcc_generated_files/i2c1_master.c"
  7874 ;; Parameters:    Size  Location     Type
  7875 ;;		None
  7876 ;; Auto vars:     Size  Location     Type
  7877 ;;		None
  7878 ;; Return value:  Size  Location     Type
  7879 ;;                  1    wreg      void 
  7880 ;; Registers used:
  7881 ;;		None
  7882 ;; Tracked objects:
  7883 ;;		On entry : 0/0
  7884 ;;		On exit  : 0/0
  7885 ;;		Unchanged: 0/0
  7886 ;; Data sizes:     COMMON   BANK0   BANK1   BANK2   BANK3   BANK4
  7887 ;;      Params:         0       0       0       0       0       0
  7888 ;;      Locals:         0       0       0       0       0       0
  7889 ;;      Temps:          0       0       0       0       0       0
  7890 ;;      Totals:         0       0       0       0       0       0
  7891 ;;Total ram usage:        0 bytes
  7892 ;; Hardware stack levels used: 1
  7893 ;; This function calls:
  7894 ;;		Nothing
  7895 ;; This function is called by:
  7896 ;;		_I2C1_DO_SEND_STOP
  7897 ;; This function uses a non-reentrant model
  7898 ;;
  7899                           
  7900  0E56                     _I2C1_MasterStop:	
  7901                           ;psect for function _I2C1_MasterStop
  7902                           
  7903  0E56                     l2516:	
  7904                           ;incstack = 0
  7905                           ; Regs used in _I2C1_MasterStop: []
  7906                           
  7907                           
  7908                           ;mcc_generated_files/i2c1_master.c: 595:     SSP1CON2bits.PEN = 1;
  7909  0E56  0024               	movlb	4	; select bank4
  7910  0E57  1516               	bsf	22,2	;volatile
  7911  0E58                     l495:
  7912  0E58  0008               	return
  7913  0E59                     __end_of_I2C1_MasterStop:
  7914                           
  7915                           	psect	text61
  7916  0E53                     __ptext61:	
  7917 ;; *************** function _I2C1_MasterEnableRestart *****************
  7918 ;; Defined at:
  7919 ;;		line 573 in file "mcc_generated_files/i2c1_master.c"
  7920 ;; Parameters:    Size  Location     Type
  7921 ;;		None
  7922 ;; Auto vars:     Size  Location     Type
  7923 ;;		None
  7924 ;; Return value:  Size  Location     Type
  7925 ;;                  1    wreg      void 
  7926 ;; Registers used:
  7927 ;;		None
  7928 ;; Tracked objects:
  7929 ;;		On entry : 0/0
  7930 ;;		On exit  : 0/0
  7931 ;;		Unchanged: 0/0
  7932 ;; Data sizes:     COMMON   BANK0   BANK1   BANK2   BANK3   BANK4
  7933 ;;      Params:         0       0       0       0       0       0
  7934 ;;      Locals:         0       0       0       0       0       0
  7935 ;;      Temps:          0       0       0       0       0       0
  7936 ;;      Totals:         0       0       0       0       0       0
  7937 ;;Total ram usage:        0 bytes
  7938 ;; Hardware stack levels used: 1
  7939 ;; This function calls:
  7940 ;;		Nothing
  7941 ;; This function is called by:
  7942 ;;		_I2C1_DO_SEND_RESTART_READ
  7943 ;;		_I2C1_DO_SEND_RESTART_WRITE
  7944 ;;		_I2C1_DO_SEND_RESTART
  7945 ;;		_I2C1_DO_RX_EMPTY
  7946 ;; This function uses a non-reentrant model
  7947 ;;
  7948                           
  7949  0E53                     _I2C1_MasterEnableRestart:	
  7950                           ;psect for function _I2C1_MasterEnableRestart
  7951                           
  7952  0E53                     l2514:	
  7953                           ;incstack = 0
  7954                           ; Regs used in _I2C1_MasterEnableRestart: []
  7955                           
  7956                           
  7957                           ;mcc_generated_files/i2c1_master.c: 575:     SSP1CON2bits.RSEN = 1;
  7958  0E53  0024               	movlb	4	; select bank4
  7959  0E54  1496               	bsf	22,1	;volatile
  7960  0E55                     l483:
  7961  0E55  0008               	return
  7962  0E56                     __end_of_I2C1_MasterEnableRestart:
  7963                           
  7964                           	psect	text62
  7965  0E50                     __ptext62:	
  7966 ;; *************** function _I2C1_MasterStart *****************
  7967 ;; Defined at:
  7968 ;;		line 588 in file "mcc_generated_files/i2c1_master.c"
  7969 ;; Parameters:    Size  Location     Type
  7970 ;;		None
  7971 ;; Auto vars:     Size  Location     Type
  7972 ;;		None
  7973 ;; Return value:  Size  Location     Type
  7974 ;;                  1    wreg      void 
  7975 ;; Registers used:
  7976 ;;		None
  7977 ;; Tracked objects:
  7978 ;;		On entry : 0/0
  7979 ;;		On exit  : 0/0
  7980 ;;		Unchanged: 0/0
  7981 ;; Data sizes:     COMMON   BANK0   BANK1   BANK2   BANK3   BANK4
  7982 ;;      Params:         0       0       0       0       0       0
  7983 ;;      Locals:         0       0       0       0       0       0
  7984 ;;      Temps:          0       0       0       0       0       0
  7985 ;;      Totals:         0       0       0       0       0       0
  7986 ;;Total ram usage:        0 bytes
  7987 ;; Hardware stack levels used: 1
  7988 ;; This function calls:
  7989 ;;		Nothing
  7990 ;; This function is called by:
  7991 ;;		_I2C1_MasterOperation
  7992 ;; This function uses a non-reentrant model
  7993 ;;
  7994                           
  7995  0E50                     _I2C1_MasterStart:	
  7996                           ;psect for function _I2C1_MasterStart
  7997                           
  7998  0E50                     l2792:	
  7999                           ;incstack = 0
  8000                           ; Regs used in _I2C1_MasterStart: []
  8001                           
  8002                           
  8003                           ;mcc_generated_files/i2c1_master.c: 590:     SSP1CON2bits.SEN = 1;
  8004  0E50  0024               	movlb	4	; select bank4
  8005  0E51  1416               	bsf	22,0	;volatile
  8006  0E52                     l492:
  8007  0E52  0008               	return
  8008  0E53                     __end_of_I2C1_MasterStart:
  8009                           
  8010                           	psect	text63
  8011  0FE4                     __ptext63:	
  8012 ;; *************** function _I2C1_Close *****************
  8013 ;; Defined at:
  8014 ;;		line 209 in file "mcc_generated_files/i2c1_master.c"
  8015 ;; Parameters:    Size  Location     Type
  8016 ;;		None
  8017 ;; Auto vars:     Size  Location     Type
  8018 ;;  returnValue     1    1[COMMON] enum E355
  8019 ;; Return value:  Size  Location     Type
  8020 ;;                  1    wreg      enum E355
  8021 ;; Registers used:
  8022 ;;		wreg, status,2, status,0, pclath, cstack
  8023 ;; Tracked objects:
  8024 ;;		On entry : 0/0
  8025 ;;		On exit  : 0/0
  8026 ;;		Unchanged: 0/0
  8027 ;; Data sizes:     COMMON   BANK0   BANK1   BANK2   BANK3   BANK4
  8028 ;;      Params:         0       0       0       0       0       0
  8029 ;;      Locals:         1       0       0       0       0       0
  8030 ;;      Temps:          1       0       0       0       0       0
  8031 ;;      Totals:         2       0       0       0       0       0
  8032 ;;Total ram usage:        2 bytes
  8033 ;; Hardware stack levels used: 1
  8034 ;; Hardware stack levels required when called: 1
  8035 ;; This function calls:
  8036 ;;		_I2C1_MasterClearIrq
  8037 ;;		_I2C1_MasterClose
  8038 ;;		_I2C1_MasterDisableIrq
  8039 ;; This function is called by:
  8040 ;;		_I2C1_WriteNBytes
  8041 ;;		_I2C1_Read1ByteRegister
  8042 ;;		_I2C1_Read2ByteRegister
  8043 ;;		_I2C1_Write1ByteRegister
  8044 ;;		_I2C1_Write2ByteRegister
  8045 ;;		_I2C1_ReadNBytes
  8046 ;;		_I2C1_ReadDataBlock
  8047 ;; This function uses a non-reentrant model
  8048 ;;
  8049                           
  8050  0FE4                     _I2C1_Close:	
  8051                           ;psect for function _I2C1_Close
  8052                           
  8053  0FE4                     l2876:	
  8054                           ;incstack = 0
  8055                           ; Regs used in _I2C1_Close: [wreg+status,2+status,0+pclath+cstack]
  8056                           
  8057                           
  8058                           ;mcc_generated_files/i2c1_master.c: 211:     i2c1_error_t returnValue = I2C1_BUSY;
  8059  0FE4  01F1               	clrf	I2C1_Close@returnValue
  8060  0FE5  0AF1               	incf	I2C1_Close@returnValue,f
  8061                           
  8062                           ;mcc_generated_files/i2c1_master.c: 212:     if(!I2C1_Status.busy)
  8063  0FE6  0021               	movlb	1	; select bank1
  8064  0FE7  18BC               	btfsc	(_I2C1_Status^(0+128)+28),1
  8065  0FE8  2FEA               	goto	u1291
  8066  0FE9  2FEB               	goto	u1290
  8067  0FEA                     u1291:
  8068  0FEA  2FFE               	goto	l2890
  8069  0FEB                     u1290:
  8070  0FEB                     l2878:
  8071                           
  8072                           ;mcc_generated_files/i2c1_master.c: 213:     {;mcc_generated_files/i2c1_master.c: 214:  
      +                                 I2C1_Status.inUse = 0;
  8073  0FEB  113C               	bcf	(_I2C1_Status^(0+128)+28),2
  8074  0FEC                     l2880:
  8075                           
  8076                           ;mcc_generated_files/i2c1_master.c: 215:         I2C1_Status.address = 0xff;
  8077  0FEC  30FF               	movlw	255
  8078  0FED  00F0               	movwf	??_I2C1_Close
  8079  0FEE  0870               	movf	??_I2C1_Close,w
  8080  0FEF  00B6               	movwf	(_I2C1_Status^(0+128)+22)
  8081  0FF0                     l2882:
  8082                           
  8083                           ;mcc_generated_files/i2c1_master.c: 216:         I2C1_MasterClearIrq();
  8084  0FF0  318E  2647  318F   	fcall	_I2C1_MasterClearIrq
  8085  0FF3                     l2884:
  8086                           
  8087                           ;mcc_generated_files/i2c1_master.c: 217:         I2C1_MasterDisableIrq();
  8088  0FF3  318E  264D  318F   	fcall	_I2C1_MasterDisableIrq
  8089  0FF6                     l2886:
  8090                           
  8091                           ;mcc_generated_files/i2c1_master.c: 218:         I2C1_MasterClose();
  8092  0FF6  318E  264A  318F   	fcall	_I2C1_MasterClose
  8093  0FF9                     l2888:
  8094                           
  8095                           ;mcc_generated_files/i2c1_master.c: 219:         returnValue = I2C1_Status.error;
  8096  0FF9  0021               	movlb	1	; select bank1
  8097  0FFA  083B               	movf	(_I2C1_Status^(0+128)+27),w
  8098  0FFB  00F0               	movwf	??_I2C1_Close
  8099  0FFC  0870               	movf	??_I2C1_Close,w
  8100  0FFD  00F1               	movwf	I2C1_Close@returnValue
  8101  0FFE                     l2890:
  8102                           
  8103                           ;mcc_generated_files/i2c1_master.c: 221:     return returnValue;
  8104  0FFE  0871               	movf	I2C1_Close@returnValue,w
  8105  0FFF                     l310:
  8106  0FFF  0008               	return
  8107  1000                     __end_of_I2C1_Close:
  8108                           
  8109                           	psect	text64
  8110  0E4D                     __ptext64:	
  8111 ;; *************** function _I2C1_MasterDisableIrq *****************
  8112 ;; Defined at:
  8113 ;;		line 635 in file "mcc_generated_files/i2c1_master.c"
  8114 ;; Parameters:    Size  Location     Type
  8115 ;;		None
  8116 ;; Auto vars:     Size  Location     Type
  8117 ;;		None
  8118 ;; Return value:  Size  Location     Type
  8119 ;;                  1    wreg      void 
  8120 ;; Registers used:
  8121 ;;		None
  8122 ;; Tracked objects:
  8123 ;;		On entry : 0/0
  8124 ;;		On exit  : 0/0
  8125 ;;		Unchanged: 0/0
  8126 ;; Data sizes:     COMMON   BANK0   BANK1   BANK2   BANK3   BANK4
  8127 ;;      Params:         0       0       0       0       0       0
  8128 ;;      Locals:         0       0       0       0       0       0
  8129 ;;      Temps:          0       0       0       0       0       0
  8130 ;;      Totals:         0       0       0       0       0       0
  8131 ;;Total ram usage:        0 bytes
  8132 ;; Hardware stack levels used: 1
  8133 ;; This function calls:
  8134 ;;		Nothing
  8135 ;; This function is called by:
  8136 ;;		_I2C1_Close
  8137 ;;		_I2C1_SetTimeOut
  8138 ;; This function uses a non-reentrant model
  8139 ;;
  8140                           
  8141  0E4D                     _I2C1_MasterDisableIrq:	
  8142                           ;psect for function _I2C1_MasterDisableIrq
  8143                           
  8144  0E4D                     l2814:	
  8145                           ;incstack = 0
  8146                           ; Regs used in _I2C1_MasterDisableIrq: []
  8147                           
  8148                           
  8149                           ;mcc_generated_files/i2c1_master.c: 637:     PIE1bits.SSP1IE = 0;
  8150  0E4D  0021               	movlb	1	; select bank1
  8151  0E4E  1191               	bcf	17,3	;volatile
  8152  0E4F                     l519:
  8153  0E4F  0008               	return
  8154  0E50                     __end_of_I2C1_MasterDisableIrq:
  8155                           
  8156                           	psect	text65
  8157  0E4A                     __ptext65:	
  8158 ;; *************** function _I2C1_MasterClose *****************
  8159 ;; Defined at:
  8160 ;;		line 557 in file "mcc_generated_files/i2c1_master.c"
  8161 ;; Parameters:    Size  Location     Type
  8162 ;;		None
  8163 ;; Auto vars:     Size  Location     Type
  8164 ;;		None
  8165 ;; Return value:  Size  Location     Type
  8166 ;;                  1    wreg      void 
  8167 ;; Registers used:
  8168 ;;		None
  8169 ;; Tracked objects:
  8170 ;;		On entry : 0/0
  8171 ;;		On exit  : 0/0
  8172 ;;		Unchanged: 0/0
  8173 ;; Data sizes:     COMMON   BANK0   BANK1   BANK2   BANK3   BANK4
  8174 ;;      Params:         0       0       0       0       0       0
  8175 ;;      Locals:         0       0       0       0       0       0
  8176 ;;      Temps:          0       0       0       0       0       0
  8177 ;;      Totals:         0       0       0       0       0       0
  8178 ;;Total ram usage:        0 bytes
  8179 ;; Hardware stack levels used: 1
  8180 ;; This function calls:
  8181 ;;		Nothing
  8182 ;; This function is called by:
  8183 ;;		_I2C1_Close
  8184 ;; This function uses a non-reentrant model
  8185 ;;
  8186                           
  8187  0E4A                     _I2C1_MasterClose:	
  8188                           ;psect for function _I2C1_MasterClose
  8189                           
  8190  0E4A                     l2816:	
  8191                           ;incstack = 0
  8192                           ; Regs used in _I2C1_MasterClose: []
  8193                           
  8194                           
  8195                           ;mcc_generated_files/i2c1_master.c: 560:     SSP1CON1bits.SSPEN = 0;
  8196  0E4A  0024               	movlb	4	; select bank4
  8197  0E4B  1295               	bcf	21,5	;volatile
  8198  0E4C                     l474:
  8199  0E4C  0008               	return
  8200  0E4D                     __end_of_I2C1_MasterClose:
  8201                           
  8202                           	psect	text66
  8203  0E47                     __ptext66:	
  8204 ;; *************** function _I2C1_MasterClearIrq *****************
  8205 ;; Defined at:
  8206 ;;		line 640 in file "mcc_generated_files/i2c1_master.c"
  8207 ;; Parameters:    Size  Location     Type
  8208 ;;		None
  8209 ;; Auto vars:     Size  Location     Type
  8210 ;;		None
  8211 ;; Return value:  Size  Location     Type
  8212 ;;                  1    wreg      void 
  8213 ;; Registers used:
  8214 ;;		None
  8215 ;; Tracked objects:
  8216 ;;		On entry : 0/0
  8217 ;;		On exit  : 0/0
  8218 ;;		Unchanged: 0/0
  8219 ;; Data sizes:     COMMON   BANK0   BANK1   BANK2   BANK3   BANK4
  8220 ;;      Params:         0       0       0       0       0       0
  8221 ;;      Locals:         0       0       0       0       0       0
  8222 ;;      Temps:          0       0       0       0       0       0
  8223 ;;      Totals:         0       0       0       0       0       0
  8224 ;;Total ram usage:        0 bytes
  8225 ;; Hardware stack levels used: 1
  8226 ;; This function calls:
  8227 ;;		Nothing
  8228 ;; This function is called by:
  8229 ;;		_I2C1_Open
  8230 ;;		_I2C1_Close
  8231 ;;		_I2C1_MasterFsm
  8232 ;; This function uses a non-reentrant model
  8233 ;;
  8234                           
  8235  0E47                     _I2C1_MasterClearIrq:	
  8236                           ;psect for function _I2C1_MasterClearIrq
  8237                           
  8238  0E47                     l2618:	
  8239                           ;incstack = 0
  8240                           ; Regs used in _I2C1_MasterClearIrq: []
  8241                           
  8242                           
  8243                           ;mcc_generated_files/i2c1_master.c: 642:     PIR1bits.SSP1IF = 0;
  8244  0E47  0020               	movlb	0	; select bank0
  8245  0E48  1191               	bcf	17,3	;volatile
  8246  0E49                     l522:
  8247  0E49  0008               	return
  8248  0E4A                     __end_of_I2C1_MasterClearIrq:
  8249                           
  8250                           	psect	text67
  8251  0E44                     __ptext67:	
  8252 ;; *************** function _ADC_StartConversion *****************
  8253 ;; Defined at:
  8254 ;;		line 93 in file "mcc_generated_files/adc.c"
  8255 ;; Parameters:    Size  Location     Type
  8256 ;;		None
  8257 ;; Auto vars:     Size  Location     Type
  8258 ;;		None
  8259 ;; Return value:  Size  Location     Type
  8260 ;;                  1    wreg      void 
  8261 ;; Registers used:
  8262 ;;		None
  8263 ;; Tracked objects:
  8264 ;;		On entry : 0/0
  8265 ;;		On exit  : 0/0
  8266 ;;		Unchanged: 0/0
  8267 ;; Data sizes:     COMMON   BANK0   BANK1   BANK2   BANK3   BANK4
  8268 ;;      Params:         0       0       0       0       0       0
  8269 ;;      Locals:         0       0       0       0       0       0
  8270 ;;      Temps:          0       0       0       0       0       0
  8271 ;;      Totals:         0       0       0       0       0       0
  8272 ;;Total ram usage:        0 bytes
  8273 ;; Hardware stack levels used: 1
  8274 ;; This function calls:
  8275 ;;		Nothing
  8276 ;; This function is called by:
  8277 ;;		_main
  8278 ;; This function uses a non-reentrant model
  8279 ;;
  8280                           
  8281  0E44                     _ADC_StartConversion:	
  8282                           ;psect for function _ADC_StartConversion
  8283                           
  8284  0E44                     l2988:	
  8285                           ;incstack = 0
  8286                           ; Regs used in _ADC_StartConversion: []
  8287                           
  8288                           
  8289                           ;mcc_generated_files/adc.c: 96:     ADCON0bits.GO_nDONE = 1;
  8290  0E44  0021               	movlb	1	; select bank1
  8291  0E45  149D               	bsf	29,1	;volatile
  8292  0E46                     l180:
  8293  0E46  0008               	return
  8294  0E47                     __end_of_ADC_StartConversion:
  8295  007E                     btemp	set	126	;btemp
  8296  007E                     wtemp0	set	126
  8297                           
  8298                           	psect	idloc
  8299                           
  8300                           ;Config register IDLOC0 @ 0x8000
  8301                           ;	unspecified, using default values
  8302  8000                     	org	32768
  8303  8000  3FFF               	dw	16383
  8304                           
  8305                           ;Config register IDLOC1 @ 0x8001
  8306                           ;	unspecified, using default values
  8307  8001                     	org	32769
  8308  8001  3FFF               	dw	16383
  8309                           
  8310                           ;Config register IDLOC2 @ 0x8002
  8311                           ;	unspecified, using default values
  8312  8002                     	org	32770
  8313  8002  3FFF               	dw	16383
  8314                           
  8315                           ;Config register IDLOC3 @ 0x8003
  8316                           ;	unspecified, using default values
  8317  8003                     	org	32771
  8318  8003  3FFF               	dw	16383
  8319                           
  8320                           	psect	config
  8321                           
  8322                           ;Config register CONFIG1 @ 0x8007
  8323                           ;	Oscillator Selection
  8324                           ;	FOSC = INTOSC, INTOSC oscillator: I/O function on CLKIN pin
  8325                           ;	Watchdog Timer Enable
  8326                           ;	WDTE = OFF, WDT disabled
  8327                           ;	Power-up Timer Enable
  8328                           ;	PWRTE = OFF, PWRT disabled
  8329                           ;	MCLR Pin Function Select
  8330                           ;	MCLRE = ON, MCLR/VPP pin function is MCLR
  8331                           ;	Flash Program Memory Code Protection
  8332                           ;	CP = OFF, Program memory code protection is disabled
  8333                           ;	Data Memory Code Protection
  8334                           ;	CPD = OFF, Data memory code protection is disabled
  8335                           ;	Brown-out Reset Enable
  8336                           ;	BOREN = ON, Brown-out Reset enabled
  8337                           ;	Clock Out Enable
  8338                           ;	CLKOUTEN = OFF, CLKOUT function is disabled. I/O or oscillator function on the CLKOUT 
      +                          pin
  8339                           ;	Internal/External Switchover
  8340                           ;	IESO = ON, Internal/External Switchover mode is enabled
  8341                           ;	Fail-Safe Clock Monitor Enable
  8342                           ;	FCMEN = ON, Fail-Safe Clock Monitor is enabled
  8343  8007                     	org	32775
  8344  8007  3FE4               	dw	16356
  8345                           
  8346                           ;Config register CONFIG2 @ 0x8008
  8347                           ;	Flash Memory Self-Write Protection
  8348                           ;	WRT = OFF, Write protection off
  8349                           ;	PLL Enable
  8350                           ;	PLLEN = OFF, 4x PLL disabled
  8351                           ;	Stack Overflow/Underflow Reset Enable
  8352                           ;	STVREN = ON, Stack Overflow or Underflow will cause a Reset
  8353                           ;	Brown-out Reset Voltage Selection
  8354                           ;	BORV = LO, Brown-out Reset Voltage (Vbor), low trip point selected.
  8355                           ;	Low-Voltage Programming Enable
  8356                           ;	LVP = ON, Low-voltage programming enabled
  8357  8008                     	org	32776
  8358  8008  3EFF               	dw	16127

Data Sizes:
    Strings     0
    Constant    32
    Data        1
    BSS         54
    Persistent  33
    Stack       0

Auto Spaces:
    Space          Size  Autos    Used
    COMMON           14     14      14
    BANK0            80     40      67
    BANK1            80      0      29
    BANK2            80      0       0
    BANK3            80      0       0
    BANK4            48      0       0

Pointer List with Targets:

    I2C1_Read1ByteRegister@returnValue.data	PTR unsigned char  size(1) Largest target is 0

    I2C1_Read2ByteRegister@returnValue.data	PTR unsigned char  size(1) Largest target is 0

    I2C1_Write1ByteRegister@data.data	PTR unsigned char  size(1) Largest target is 0

    I2C1_Write2ByteRegister@data.data	PTR unsigned char  size(1) Largest target is 0

    I2C1_DO_TX$1745$0	PTR void  size(1) Largest target is 4
		 -> I2C1_ReadDataBlock@bufferBlock(COMMON[3]), I2C1_Write2ByteRegister@data(COMMON[2]), I2C1_Write1ByteRegister@data(COMMON[1]), I2C1_Read2ByteRegister@returnValue(COMMON[2]), 
		 -> NULL(NULL[0]), I2C1_Read1ByteRegister@returnValue(COMMON[1]), 

    I2C1_DO_TX$1750	PTR void  size(1) Largest target is 4
		 -> I2C1_ReadDataBlock@bufferBlock(COMMON[3]), I2C1_Write2ByteRegister@data(COMMON[2]), I2C1_Write1ByteRegister@data(COMMON[1]), I2C1_Read2ByteRegister@returnValue(COMMON[2]), 
		 -> NULL(NULL[0]), I2C1_Read1ByteRegister@returnValue(COMMON[1]), 

    I2C1_DO_TX$1745	PTR FTN(PTR void ,)enum E360 size(2) Largest target is 1
		 -> I2C1_CallbackReturnReset(), I2C1_CallbackReturnStop(), Absolute function(), rdBlkRegCompleteHandler(), 
		 -> wr2RegCompleteHandler(), wr1RegCompleteHandler(), rd2RegCompleteHandler(), rd1RegCompleteHandler(), 

    I2C1_MasterFsm$1744	const PTR FTN()enum E2870 size(2) Largest target is 1
		 -> I2C1_DO_ADDRESS_NACK(), I2C1_DO_RESET(), I2C1_DO_RX_NACK_RESTART(), I2C1_DO_RX_NACK_STOP(), 
		 -> I2C1_DO_RX_ACK(), I2C1_DO_SEND_STOP(), I2C1_DO_SEND_RESTART(), I2C1_DO_SEND_RESTART_WRITE(), 
		 -> I2C1_DO_SEND_RESTART_READ(), I2C1_DO_TX_EMPTY(), I2C1_DO_RCEN(), I2C1_DO_RX(), 
		 -> I2C1_DO_TX(), I2C1_DO_SEND_ADR_WRITE(), I2C1_DO_SEND_ADR_READ(), I2C1_DO_IDLE(), 

    I2C1_CallbackReturnStop@funPtr	PTR void  size(1) Largest target is 4
		 -> I2C1_ReadDataBlock@bufferBlock(COMMON[3]), I2C1_Write2ByteRegister@data(COMMON[2]), I2C1_Write1ByteRegister@data(COMMON[1]), I2C1_Read2ByteRegister@returnValue(COMMON[2]), 
		 -> NULL(NULL[0]), I2C1_Read1ByteRegister@returnValue(COMMON[1]), 

    I2C1_CallbackReturnReset@funPtr	PTR void  size(1) Largest target is 4
		 -> I2C1_ReadDataBlock@bufferBlock(COMMON[3]), I2C1_Write2ByteRegister@data(COMMON[2]), I2C1_Write1ByteRegister@data(COMMON[1]), I2C1_Read2ByteRegister@returnValue(COMMON[2]), 
		 -> NULL(NULL[0]), I2C1_Read1ByteRegister@returnValue(COMMON[1]), 

    cb$0	PTR void  size(1) Largest target is 4
		 -> I2C1_ReadDataBlock@bufferBlock(COMMON[3]), I2C1_Write2ByteRegister@data(COMMON[2]), I2C1_Write1ByteRegister@data(COMMON[1]), I2C1_Read2ByteRegister@returnValue(COMMON[2]), 
		 -> NULL(NULL[0]), I2C1_Read1ByteRegister@returnValue(COMMON[1]), 

    Absolute function$0	PTR void  size(1) Largest target is 4
		 -> I2C1_ReadDataBlock@bufferBlock(COMMON[3]), I2C1_Write2ByteRegister@data(COMMON[2]), I2C1_Write1ByteRegister@data(COMMON[1]), I2C1_Read2ByteRegister@returnValue(COMMON[2]), 
		 -> NULL(NULL[0]), I2C1_Read1ByteRegister@returnValue(COMMON[1]), 

    cb$0	PTR void  size(1) Largest target is 4
		 -> I2C1_ReadDataBlock@bufferBlock(COMMON[3]), I2C1_Write2ByteRegister@data(COMMON[2]), I2C1_Write1ByteRegister@data(COMMON[1]), I2C1_Read2ByteRegister@returnValue(COMMON[2]), 
		 -> NULL(NULL[0]), I2C1_Read1ByteRegister@returnValue(COMMON[1]), 

    S395$0$0	PTR void  size(1) Largest target is 4
		 -> I2C1_ReadDataBlock@bufferBlock(COMMON[3]), I2C1_Write2ByteRegister@data(COMMON[2]), I2C1_Write1ByteRegister@data(COMMON[1]), I2C1_Read2ByteRegister@returnValue(COMMON[2]), 
		 -> NULL(NULL[0]), I2C1_Read1ByteRegister@returnValue(COMMON[1]), 

    ADC_InterruptHandler	PTR FTN()void  size(2) Largest target is 1
		 -> Absolute function(), 

    I2C1_SetCallback@ptr	PTR void  size(1) Largest target is 4
		 -> I2C1_ReadDataBlock@bufferBlock(COMMON[3]), I2C1_Write2ByteRegister@data(COMMON[2]), I2C1_Write1ByteRegister@data(COMMON[1]), I2C1_Read2ByteRegister@returnValue(COMMON[2]), 
		 -> NULL(NULL[0]), I2C1_Read1ByteRegister@returnValue(COMMON[1]), 

    I2C1_SetCallback@cb	PTR FTN(PTR void ,)enum E360 size(2) Largest target is 1
		 -> Absolute function(), rdBlkRegCompleteHandler(), wr2RegCompleteHandler(), wr1RegCompleteHandler(), 
		 -> rd2RegCompleteHandler(), rd1RegCompleteHandler(), 

    I2C1_SetAddressNackCallback@ptr	PTR void  size(1) Largest target is 0
		 -> NULL(NULL[0]), 

    I2C1_SetAddressNackCallback@cb	PTR FTN(PTR void ,)enum E360 size(2) Largest target is 1
		 -> Absolute function(), 

    I2C1_SetDataCompleteCallback@ptr	PTR void  size(1) Largest target is 4
		 -> I2C1_ReadDataBlock@bufferBlock(COMMON[3]), I2C1_Write2ByteRegister@data(COMMON[2]), I2C1_Write1ByteRegister@data(COMMON[1]), I2C1_Read2ByteRegister@returnValue(COMMON[2]), 
		 -> NULL(NULL[0]), I2C1_Read1ByteRegister@returnValue(COMMON[1]), 

    I2C1_SetDataCompleteCallback@cb	PTR FTN(PTR void ,)enum E360 size(2) Largest target is 1
		 -> Absolute function(), rdBlkRegCompleteHandler(), wr2RegCompleteHandler(), wr1RegCompleteHandler(), 
		 -> rd2RegCompleteHandler(), rd1RegCompleteHandler(), 

    I2C1_SetBuffer@buffer	PTR void  size(1) Largest target is 4
		 -> I2C1_Read1ByteRegister@returnValue.data(COMMON[2]), I2C1_Read2ByteRegister@returnValue.data(COMMON[2]), I2C1_Write1ByteRegister@data.data(COMMON[2]), I2C1_Write2ByteRegister@data.data(COMMON[2]), 
		 -> IO_Expander_Write@dt(BANK0[1]), I2C1_ReadDataBlock@reg(COMMON[1]), I2C1_ReadDataBlock@bufferBlock(COMMON[3]), bufferBlock.data(COMMON[2]), 
		 -> I2C1_Write2ByteRegister@reg(COMMON[1]), I2C1_Write2ByteRegister@data(COMMON[2]), I2C1_Write1ByteRegister@reg(COMMON[1]), I2C1_Write1ByteRegister@data(COMMON[1]), 
		 -> I2C1_Read2ByteRegister@reg(COMMON[1]), I2C1_Read2ByteRegister@returnValue(COMMON[2]), NULL(NULL[0]), I2C1_Read1ByteRegister@reg(COMMON[1]), 
		 -> I2C1_Read1ByteRegister@returnValue(COMMON[1]), 

    S395$data_ptr	PTR unsigned char  size(1) Largest target is 4
		 -> IO_Expander_Write@dt(BANK0[1]), I2C1_ReadDataBlock@reg(COMMON[1]), I2C1_ReadDataBlock@bufferBlock(COMMON[3]), I2C1_Write2ByteRegister@reg(COMMON[1]), 
		 -> I2C1_Write2ByteRegister@data(COMMON[2]), I2C1_Write1ByteRegister@reg(COMMON[1]), I2C1_Write1ByteRegister@data(COMMON[1]), I2C1_Read2ByteRegister@reg(COMMON[1]), 
		 -> I2C1_Read2ByteRegister@returnValue(COMMON[2]), NULL(NULL[0]), I2C1_Read1ByteRegister@reg(COMMON[1]), I2C1_Read1ByteRegister@returnValue(COMMON[1]), 

    I2C1_Status.data_ptr	PTR unsigned char  size(1) Largest target is 4
		 -> I2C1_Read1ByteRegister@returnValue.data(COMMON[2]), I2C1_Read2ByteRegister@returnValue.data(COMMON[2]), I2C1_Write1ByteRegister@data.data(COMMON[2]), I2C1_Write2ByteRegister@data.data(COMMON[2]), 
		 -> IO_Expander_Write@dt(BANK0[1]), I2C1_ReadDataBlock@reg(COMMON[1]), I2C1_ReadDataBlock@bufferBlock(COMMON[3]), bufferBlock.data(COMMON[2]), 
		 -> I2C1_Write2ByteRegister@reg(COMMON[1]), I2C1_Write2ByteRegister@data(COMMON[2]), I2C1_Write1ByteRegister@reg(COMMON[1]), I2C1_Write1ByteRegister@data(COMMON[1]), 
		 -> I2C1_Read2ByteRegister@reg(COMMON[1]), I2C1_Read2ByteRegister@returnValue(COMMON[2]), NULL(NULL[0]), I2C1_Read1ByteRegister@reg(COMMON[1]), 
		 -> I2C1_Read1ByteRegister@returnValue(COMMON[1]), 

    S395$callbackPayload	PTR void [6] size(1) Largest target is 4
		 -> I2C1_ReadDataBlock@bufferBlock(COMMON[3]), I2C1_Write2ByteRegister@data(COMMON[2]), I2C1_Write1ByteRegister@data(COMMON[1]), I2C1_Read2ByteRegister@returnValue(COMMON[2]), 
		 -> NULL(NULL[0]), I2C1_Read1ByteRegister@returnValue(COMMON[1]), 

    I2C1_Status.callbackPayload	PTR void [6] size(1) Largest target is 4
		 -> I2C1_ReadDataBlock@bufferBlock(COMMON[3]), I2C1_Write2ByteRegister@data(COMMON[2]), I2C1_Write1ByteRegister@data(COMMON[1]), I2C1_Read2ByteRegister@returnValue(COMMON[2]), 
		 -> NULL(NULL[0]), I2C1_Read1ByteRegister@returnValue(COMMON[1]), 

    S395$callbackTable	PTR FTN(PTR void ,)enum E360[6] size(2) Largest target is 1
		 -> I2C1_CallbackReturnReset(), I2C1_CallbackReturnStop(), Absolute function(), rdBlkRegCompleteHandler(), 
		 -> wr2RegCompleteHandler(), wr1RegCompleteHandler(), rd2RegCompleteHandler(), rd1RegCompleteHandler(), 

    I2C1_Status.callbackTable	PTR FTN(PTR void ,)enum E360[6] size(2) Largest target is 1
		 -> I2C1_CallbackReturnReset(), I2C1_CallbackReturnStop(), Absolute function(), rdBlkRegCompleteHandler(), 
		 -> wr2RegCompleteHandler(), wr1RegCompleteHandler(), rd2RegCompleteHandler(), rd1RegCompleteHandler(), 

    i2c1_fsmStateTable	const PTR FTN()enum E2870[16] size(2) Largest target is 1
		 -> I2C1_DO_ADDRESS_NACK(), I2C1_DO_RESET(), I2C1_DO_RX_NACK_RESTART(), I2C1_DO_RX_NACK_STOP(), 
		 -> I2C1_DO_RX_ACK(), I2C1_DO_SEND_STOP(), I2C1_DO_SEND_RESTART(), I2C1_DO_SEND_RESTART_WRITE(), 
		 -> I2C1_DO_SEND_RESTART_READ(), I2C1_DO_TX_EMPTY(), I2C1_DO_RCEN(), I2C1_DO_RX(), 
		 -> I2C1_DO_TX(), I2C1_DO_SEND_ADR_WRITE(), I2C1_DO_SEND_ADR_READ(), I2C1_DO_IDLE(), 

    rdBlkRegCompleteHandler@ptr.data	PTR unsigned char  size(1) Largest target is 0

    rdBlkRegCompleteHandler@ptr	PTR void  size(1) Largest target is 4
		 -> I2C1_ReadDataBlock@bufferBlock(COMMON[3]), I2C1_Write2ByteRegister@data(COMMON[2]), I2C1_Write1ByteRegister@data(COMMON[1]), I2C1_Read2ByteRegister@returnValue(COMMON[2]), 
		 -> NULL(NULL[0]), I2C1_Read1ByteRegister@returnValue(COMMON[1]), 

    wr2RegCompleteHandler@ptr	PTR void  size(1) Largest target is 4
		 -> I2C1_ReadDataBlock@bufferBlock(COMMON[3]), I2C1_Write2ByteRegister@data(COMMON[2]), I2C1_Write1ByteRegister@data(COMMON[1]), I2C1_Read2ByteRegister@returnValue(COMMON[2]), 
		 -> NULL(NULL[0]), I2C1_Read1ByteRegister@returnValue(COMMON[1]), 

    wr1RegCompleteHandler@ptr	PTR void  size(1) Largest target is 4
		 -> I2C1_ReadDataBlock@bufferBlock(COMMON[3]), I2C1_Write2ByteRegister@data(COMMON[2]), I2C1_Write1ByteRegister@data(COMMON[1]), I2C1_Read2ByteRegister@returnValue(COMMON[2]), 
		 -> NULL(NULL[0]), I2C1_Read1ByteRegister@returnValue(COMMON[1]), 

    rd2RegCompleteHandler@ptr	PTR void  size(1) Largest target is 4
		 -> I2C1_ReadDataBlock@bufferBlock(COMMON[3]), I2C1_Write2ByteRegister@data(COMMON[2]), I2C1_Write1ByteRegister@data(COMMON[1]), I2C1_Read2ByteRegister@returnValue(COMMON[2]), 
		 -> NULL(NULL[0]), I2C1_Read1ByteRegister@returnValue(COMMON[1]), 

    rd1RegCompleteHandler@ptr	PTR void  size(1) Largest target is 4
		 -> I2C1_ReadDataBlock@bufferBlock(COMMON[3]), I2C1_Write2ByteRegister@data(COMMON[2]), I2C1_Write1ByteRegister@data(COMMON[1]), I2C1_Read2ByteRegister@returnValue(COMMON[2]), 
		 -> NULL(NULL[0]), I2C1_Read1ByteRegister@returnValue(COMMON[1]), 

    S94$data	PTR unsigned char  size(1) Largest target is 0

    bufferBlock.data	PTR unsigned char  size(1) Largest target is 0

    I2C1_WriteNBytes@data	PTR unsigned char  size(1) Largest target is 1
		 -> IO_Expander_Write@dt(BANK0[1]), 


Critical Paths under _main in COMMON

    _main->___xxtofl
    ___fltol->___xxtofl
    ___flmul->___xxtofl
    _I2C1_SetAddressNackCallback->_I2C1_SetCallback
    _I2C1_MasterWrite->_I2C1_MasterOperation
    _I2C1_MasterFsm->_I2C1_DO_ADDRESS_NACK
    _I2C1_MasterFsm->_I2C1_DO_RX
    _I2C1_MasterFsm->_I2C1_DO_TX
    _I2C1_MasterFsm->_I2C1_DO_TX_EMPTY
    _I2C1_DO_TX_EMPTY->_I2C1_CallbackReturnReset
    _I2C1_DO_TX_EMPTY->_I2C1_CallbackReturnStop
    _I2C1_DO_TX_EMPTY->_rd1RegCompleteHandler
    _I2C1_DO_TX_EMPTY->_rd2RegCompleteHandler
    _I2C1_DO_TX_EMPTY->_rdBlkRegCompleteHandler
    _I2C1_DO_TX_EMPTY->_wr1RegCompleteHandler
    _I2C1_DO_TX_EMPTY->_wr2RegCompleteHandler
    _I2C1_DO_TX->_I2C1_CallbackReturnReset
    _I2C1_DO_TX->_I2C1_CallbackReturnStop
    _I2C1_DO_TX->_rd1RegCompleteHandler
    _I2C1_DO_TX->_rd2RegCompleteHandler
    _I2C1_DO_TX->_rdBlkRegCompleteHandler
    _I2C1_DO_TX->_wr1RegCompleteHandler
    _I2C1_DO_TX->_wr2RegCompleteHandler
    _I2C1_DO_SEND_ADR_WRITE->_I2C1_MasterSendTxData
    _I2C1_DO_RX->_I2C1_CallbackReturnReset
    _I2C1_DO_RX->_I2C1_CallbackReturnStop
    _I2C1_DO_RX->_rd1RegCompleteHandler
    _I2C1_DO_RX->_rd2RegCompleteHandler
    _I2C1_DO_RX->_rdBlkRegCompleteHandler
    _I2C1_DO_RX->_wr1RegCompleteHandler
    _I2C1_DO_RX->_wr2RegCompleteHandler
    _I2C1_DO_ADDRESS_NACK->_I2C1_CallbackReturnReset
    _I2C1_DO_ADDRESS_NACK->_I2C1_CallbackReturnStop
    _I2C1_DO_ADDRESS_NACK->_rd1RegCompleteHandler
    _I2C1_DO_ADDRESS_NACK->_rd2RegCompleteHandler
    _I2C1_DO_ADDRESS_NACK->_rdBlkRegCompleteHandler
    _I2C1_DO_ADDRESS_NACK->_wr1RegCompleteHandler
    _I2C1_DO_ADDRESS_NACK->_wr2RegCompleteHandler
    _wr2RegCompleteHandler->_I2C1_SetDataCompleteCallback
    _wr1RegCompleteHandler->_I2C1_SetDataCompleteCallback
    _rdBlkRegCompleteHandler->_I2C1_SetDataCompleteCallback
    _rd2RegCompleteHandler->_I2C1_SetDataCompleteCallback
    _rd1RegCompleteHandler->_I2C1_SetDataCompleteCallback
    _I2C1_SetDataCompleteCallback->_I2C1_SetCallback

Critical Paths under _main in BANK0

    _main->___fltol
    ___fltol->___flmul
    _LCD_Init->_LCD_CMD
    _LCD_CMD->_LCD_Write_4Bit
    _LCD_Write_4Bit->_IO_pulseEnable
    _IO_pulseEnable->_IO_Expander_Write
    _IO_Expander_Write->_I2C1_WriteNBytes
    _I2C1_MasterWrite->_I2C1_MasterOperation
    _I2C1_Poller->_I2C1_MasterFsm

Critical Paths under _main in BANK1

    None.

Critical Paths under _main in BANK2

    None.

Critical Paths under _main in BANK3

    None.

Critical Paths under _main in BANK4

    None.

Call Graph Tables:

 ---------------------------------------------------------------------------------
 (Depth) Function   	        Calls       Base Space   Used Autos Params    Refs
 ---------------------------------------------------------------------------------
 (0) _main                                                 3     3      0  414770
                                             37 BANK0      3     3      0
                     _ADC_Initialize
                _ADC_StartConversion
                           _LCD_Init
                  _SYSTEM_Initialize
                            ___awdiv
                            ___awmod
                            ___flmul
                            ___fltol
                           ___xxtofl
 ---------------------------------------------------------------------------------
 (1) ___xxtofl                                            14    10      4     474
                                              0 COMMON    14    10      4
 ---------------------------------------------------------------------------------
 (1) ___fltol                                             11     7      4     381
                                             26 BANK0     11     7      4
                            ___flmul (ARG)
                           ___xxtofl (ARG)
 ---------------------------------------------------------------------------------
 (1) ___flmul                                             26    18      8    2569
                                              0 BANK0     26    18      8
                          __Umul8_16
                           ___xxtofl (ARG)
 ---------------------------------------------------------------------------------
 (2) __Umul8_16                                            9     7      2     799
                                              0 COMMON     9     7      2
 ---------------------------------------------------------------------------------
 (1) ___awmod                                              7     3      4     904
                                              0 COMMON     7     3      4
 ---------------------------------------------------------------------------------
 (1) ___awdiv                                              9     5      4     908
                                              0 COMMON     9     5      4
 ---------------------------------------------------------------------------------
 (1) _SYSTEM_Initialize                                    0     0      0       0
                     _ADC_Initialize
                    _I2C1_Initialize
              _OSCILLATOR_Initialize
             _PIN_MANAGER_Initialize
                     _WDT_Initialize
 ---------------------------------------------------------------------------------
 (2) _WDT_Initialize                                       0     0      0       0
 ---------------------------------------------------------------------------------
 (2) _PIN_MANAGER_Initialize                               0     0      0       0
 ---------------------------------------------------------------------------------
 (2) _OSCILLATOR_Initialize                                0     0      0       0
 ---------------------------------------------------------------------------------
 (2) _I2C1_Initialize                                      0     0      0       0
 ---------------------------------------------------------------------------------
 (2) _ADC_Initialize                                       0     0      0       0
 ---------------------------------------------------------------------------------
 (1) _LCD_Init                                             3     3      0  409534
                                             17 BANK0      3     3      0
                  _IO_Expander_Write
                            _LCD_CMD
                     _LCD_Write_4Bit
 ---------------------------------------------------------------------------------
 (2) _LCD_CMD                                              2     2      0  163849
                                             15 BANK0      2     2      0
                     _LCD_Write_4Bit
 ---------------------------------------------------------------------------------
 (2) _LCD_Write_4Bit                                       2     2      0  163805
                                             13 BANK0      2     2      0
                  _IO_Expander_Write
                     _IO_pulseEnable
 ---------------------------------------------------------------------------------
 (3) _IO_pulseEnable                                       1     1      0   81902
                                             12 BANK0      1     1      0
                  _IO_Expander_Write
 ---------------------------------------------------------------------------------
 (4) _IO_Expander_Write                                    3     3      0   81858
                                              9 BANK0      3     3      0
                   _I2C1_WriteNBytes
 ---------------------------------------------------------------------------------
 (5) _I2C1_WriteNBytes                                     4     1      3   81810
                                              5 BANK0      4     1      3
                         _I2C1_Close
                   _I2C1_MasterWrite
                          _I2C1_Open
        _I2C1_SetAddressNackCallback
                     _I2C1_SetBuffer
 ---------------------------------------------------------------------------------
 (6) _I2C1_SetAddressNackCallback                          4     1      3    1870
                                              5 COMMON     4     1      3
                   _I2C1_SetCallback
 ---------------------------------------------------------------------------------
 (6) _I2C1_Open                                            3     3      0      46
                                              0 COMMON     3     3      0
                _I2C1_MasterClearIrq
                    _I2C1_MasterOpen
 ---------------------------------------------------------------------------------
 (7) _I2C1_MasterOpen                                      0     0      0       0
 ---------------------------------------------------------------------------------
 (6) _I2C1_MasterWrite                                     0     0      0   78300
               _I2C1_MasterOperation
 ---------------------------------------------------------------------------------
 (7) _I2C1_MasterOperation                                 3     3      0   78300
                                             13 COMMON     1     1      0
                                              3 BANK0      2     2      0
                   _I2C1_MasterStart
                        _I2C1_Poller
 ---------------------------------------------------------------------------------
 (8) _I2C1_Poller                                          0     0      0   78254
                     _I2C1_MasterFsm
            _I2C1_MasterWaitForEvent
 ---------------------------------------------------------------------------------
 (9) _I2C1_MasterWaitForEvent                              0     0      0       0
 ---------------------------------------------------------------------------------
 (9) _I2C1_MasterFsm                                       3     3      0   78254
                                              0 BANK0      3     3      0
               _I2C1_DO_ADDRESS_NACK *
                       _I2C1_DO_IDLE *
                       _I2C1_DO_RCEN *
                      _I2C1_DO_RESET *
                         _I2C1_DO_RX *
                     _I2C1_DO_RX_ACK *
            _I2C1_DO_RX_NACK_RESTART *
               _I2C1_DO_RX_NACK_STOP *
              _I2C1_DO_SEND_ADR_READ *
             _I2C1_DO_SEND_ADR_WRITE *
               _I2C1_DO_SEND_RESTART *
          _I2C1_DO_SEND_RESTART_READ *
         _I2C1_DO_SEND_RESTART_WRITE *
                  _I2C1_DO_SEND_STOP *
                         _I2C1_DO_TX *
                   _I2C1_DO_TX_EMPTY *
                _I2C1_MasterClearIrq
                  _I2C1_MasterIsNack
 ---------------------------------------------------------------------------------
 (10) _I2C1_DO_TX_EMPTY                                    3     3      0   19547
                                             10 COMMON     3     3      0
                   Absolute function *
           _I2C1_CallbackReturnReset *
            _I2C1_CallbackReturnStop *
               _I2C1_DO_SEND_RESTART
                  _I2C1_DO_SEND_STOP
                  _I2C1_MasterSetIrq
              _rd1RegCompleteHandler *
              _rd2RegCompleteHandler *
            _rdBlkRegCompleteHandler *
              _wr1RegCompleteHandler *
              _wr2RegCompleteHandler *
 ---------------------------------------------------------------------------------
 (11) _I2C1_MasterSetIrq                                   0     0      0       0
 ---------------------------------------------------------------------------------
 (10) _I2C1_DO_TX                                          3     3      0   19569
                                             10 COMMON     3     3      0
                   Absolute function *
           _I2C1_CallbackReturnReset *
            _I2C1_CallbackReturnStop *
          _I2C1_DO_SEND_RESTART_READ
         _I2C1_DO_SEND_RESTART_WRITE
                  _I2C1_DO_SEND_STOP
                  _I2C1_MasterIsNack
              _I2C1_MasterSendTxData
              _rd1RegCompleteHandler *
              _rd2RegCompleteHandler *
            _rdBlkRegCompleteHandler *
              _wr1RegCompleteHandler *
              _wr2RegCompleteHandler *
 ---------------------------------------------------------------------------------
 (10) _I2C1_MasterIsNack                                   0     0      0       0
 ---------------------------------------------------------------------------------
 (11) _I2C1_DO_SEND_RESTART_WRITE                          0     0      0       0
           _I2C1_MasterEnableRestart
 ---------------------------------------------------------------------------------
 (11) _I2C1_DO_SEND_RESTART_READ                           0     0      0       0
           _I2C1_MasterEnableRestart
 ---------------------------------------------------------------------------------
 (10) _I2C1_DO_SEND_ADR_WRITE                              0     0      0      22
              _I2C1_MasterSendTxData
 ---------------------------------------------------------------------------------
 (10) _I2C1_DO_SEND_ADR_READ                               0     0      0      22
              _I2C1_MasterSendTxData
 ---------------------------------------------------------------------------------
 (11) _I2C1_MasterSendTxData                               1     1      0      22
                                              0 COMMON     1     1      0
 ---------------------------------------------------------------------------------
 (10) _I2C1_DO_RX_ACK                                      0     0      0       0
                 _I2C1_MasterSendAck
 ---------------------------------------------------------------------------------
 (10) _I2C1_DO_RX                                          3     3      0   19547
                                             10 COMMON     3     3      0
                   Absolute function *
           _I2C1_CallbackReturnReset *
            _I2C1_CallbackReturnStop *
            _I2C1_DO_RX_NACK_RESTART
               _I2C1_DO_RX_NACK_STOP
               _I2C1_MasterGetRxData
                 _I2C1_MasterSendAck
              _rd1RegCompleteHandler *
              _rd2RegCompleteHandler *
            _rdBlkRegCompleteHandler *
              _wr1RegCompleteHandler *
              _wr2RegCompleteHandler *
 ---------------------------------------------------------------------------------
 (11) _I2C1_MasterSendAck                                  0     0      0       0
 ---------------------------------------------------------------------------------
 (11) _I2C1_MasterGetRxData                                0     0      0       0
 ---------------------------------------------------------------------------------
 (10) _I2C1_DO_RX_NACK_STOP                                0     0      0       0
                _I2C1_MasterSendNack
 ---------------------------------------------------------------------------------
 (10) _I2C1_DO_RX_NACK_RESTART                             0     0      0       0
                _I2C1_MasterSendNack
 ---------------------------------------------------------------------------------
 (11) _I2C1_MasterSendNack                                 0     0      0       0
 ---------------------------------------------------------------------------------
 (10) _I2C1_DO_RESET                                       0     0      0       0
 ---------------------------------------------------------------------------------
 (10) _I2C1_DO_RCEN                                        0     0      0       0
                 _I2C1_MasterStartRx
 ---------------------------------------------------------------------------------
 (11) _I2C1_MasterStartRx                                  0     0      0       0
 ---------------------------------------------------------------------------------
 (10) _I2C1_DO_IDLE                                        0     0      0       0
 ---------------------------------------------------------------------------------
 (10) _I2C1_DO_ADDRESS_NACK                                3     3      0   19547
                                             10 COMMON     3     3      0
                   Absolute function *
           _I2C1_CallbackReturnReset *
            _I2C1_CallbackReturnStop *
               _I2C1_DO_SEND_RESTART
                  _I2C1_DO_SEND_STOP
              _rd1RegCompleteHandler *
              _rd2RegCompleteHandler *
            _rdBlkRegCompleteHandler *
              _wr1RegCompleteHandler *
              _wr2RegCompleteHandler *
 ---------------------------------------------------------------------------------
 (11) _wr2RegCompleteHandler                               1     0      1    3852
                                              9 COMMON     1     0      1
                     _I2C1_SetBuffer
       _I2C1_SetDataCompleteCallback
 ---------------------------------------------------------------------------------
 (11) _wr1RegCompleteHandler                               1     0      1    3852
                                              9 COMMON     1     0      1
                     _I2C1_SetBuffer
       _I2C1_SetDataCompleteCallback
 ---------------------------------------------------------------------------------
 (11) _rdBlkRegCompleteHandler                             1     0      1    3874
                                              9 COMMON     1     0      1
                     _I2C1_SetBuffer
       _I2C1_SetDataCompleteCallback
 ---------------------------------------------------------------------------------
 (11) _rd2RegCompleteHandler                               1     0      1    3852
                                              9 COMMON     1     0      1
                     _I2C1_SetBuffer
       _I2C1_SetDataCompleteCallback
 ---------------------------------------------------------------------------------
 (11) _rd1RegCompleteHandler                               1     0      1    3852
                                              9 COMMON     1     0      1
                     _I2C1_SetBuffer
       _I2C1_SetDataCompleteCallback
 ---------------------------------------------------------------------------------
 (12) _I2C1_SetDataCompleteCallback                        4     1      3    2478
                                              5 COMMON     4     1      3
                   _I2C1_SetCallback
 ---------------------------------------------------------------------------------
 (7) _I2C1_SetCallback                                     5     2      3     914
                                              0 COMMON     5     2      3
 ---------------------------------------------------------------------------------
 (6) _I2C1_SetBuffer                                       4     2      2    1352
                                              0 COMMON     4     2      2
 ---------------------------------------------------------------------------------
 (11) _I2C1_DO_SEND_STOP                                   0     0      0       0
                    _I2C1_MasterStop
 ---------------------------------------------------------------------------------
 (12) _I2C1_MasterStop                                     0     0      0       0
 ---------------------------------------------------------------------------------
 (11) _I2C1_DO_SEND_RESTART                                0     0      0       0
           _I2C1_MasterEnableRestart
 ---------------------------------------------------------------------------------
 (12) _I2C1_MasterEnableRestart                            0     0      0       0
 ---------------------------------------------------------------------------------
 (11) _I2C1_CallbackReturnStop                             1     0      1       0
                                              9 COMMON     1     0      1
 ---------------------------------------------------------------------------------
 (11) _I2C1_CallbackReturnReset                            1     0      1     265
                                              9 COMMON     1     0      1
 ---------------------------------------------------------------------------------
 (11) Absolute function(Fake)                              1     0      1       0
 ---------------------------------------------------------------------------------
 (8) _I2C1_MasterStart                                     0     0      0       0
 ---------------------------------------------------------------------------------
 (6) _I2C1_Close                                           2     2      0      24
                                              0 COMMON     2     2      0
                _I2C1_MasterClearIrq
                   _I2C1_MasterClose
              _I2C1_MasterDisableIrq
 ---------------------------------------------------------------------------------
 (7) _I2C1_MasterDisableIrq                                0     0      0       0
 ---------------------------------------------------------------------------------
 (7) _I2C1_MasterClose                                     0     0      0       0
 ---------------------------------------------------------------------------------
 (7) _I2C1_MasterClearIrq                                  0     0      0       0
 ---------------------------------------------------------------------------------
 (1) _ADC_StartConversion                                  0     0      0       0
 ---------------------------------------------------------------------------------
 Estimated maximum stack depth 12
 ---------------------------------------------------------------------------------

 Call Graph Graphs:

 _main (ROOT)
   _ADC_Initialize
   _ADC_StartConversion
   _LCD_Init
     _IO_Expander_Write
       _I2C1_WriteNBytes
         _I2C1_Close
           _I2C1_MasterClearIrq
           _I2C1_MasterClose
           _I2C1_MasterDisableIrq
         _I2C1_MasterWrite
           _I2C1_MasterOperation
             _I2C1_MasterStart
             _I2C1_Poller
               _I2C1_MasterFsm
                 _I2C1_DO_ADDRESS_NACK *
                   Absolute function(Fake) *
                   _I2C1_CallbackReturnReset *
                   _I2C1_CallbackReturnStop *
                   _I2C1_DO_SEND_RESTART *
                     _I2C1_MasterEnableRestart
                   _I2C1_DO_SEND_STOP *
                     _I2C1_MasterStop
                   _rd1RegCompleteHandler *
                     _I2C1_SetBuffer
                     _I2C1_SetDataCompleteCallback
                       _I2C1_SetCallback
                   _rd2RegCompleteHandler *
                     _I2C1_SetBuffer
                     _I2C1_SetDataCompleteCallback
                   _rdBlkRegCompleteHandler *
                     _I2C1_SetBuffer
                     _I2C1_SetDataCompleteCallback
                   _wr1RegCompleteHandler *
                     _I2C1_SetBuffer
                     _I2C1_SetDataCompleteCallback
                   _wr2RegCompleteHandler *
                     _I2C1_SetBuffer
                     _I2C1_SetDataCompleteCallback
                 _I2C1_DO_IDLE *
                 _I2C1_DO_RCEN *
                   _I2C1_MasterStartRx
                 _I2C1_DO_RESET *
                 _I2C1_DO_RX *
                   Absolute function(Fake) *
                   _I2C1_CallbackReturnReset *
                   _I2C1_CallbackReturnStop *
                   _I2C1_DO_RX_NACK_RESTART *
                     _I2C1_MasterSendNack
                   _I2C1_DO_RX_NACK_STOP *
                     _I2C1_MasterSendNack
                   _I2C1_MasterGetRxData *
                   _I2C1_MasterSendAck *
                   _rd1RegCompleteHandler *
                   _rd2RegCompleteHandler *
                   _rdBlkRegCompleteHandler *
                   _wr1RegCompleteHandler *
                   _wr2RegCompleteHandler *
                 _I2C1_DO_RX_ACK *
                   _I2C1_MasterSendAck
                 _I2C1_DO_RX_NACK_RESTART *
                 _I2C1_DO_RX_NACK_STOP *
                 _I2C1_DO_SEND_ADR_READ *
                   _I2C1_MasterSendTxData
                 _I2C1_DO_SEND_ADR_WRITE *
                   _I2C1_MasterSendTxData
                 _I2C1_DO_SEND_RESTART *
                 _I2C1_DO_SEND_RESTART_READ *
                   _I2C1_MasterEnableRestart
                 _I2C1_DO_SEND_RESTART_WRITE *
                   _I2C1_MasterEnableRestart
                 _I2C1_DO_SEND_STOP *
                 _I2C1_DO_TX *
                   Absolute function(Fake) *
                   _I2C1_CallbackReturnReset *
                   _I2C1_CallbackReturnStop *
                   _I2C1_DO_SEND_RESTART_READ *
                   _I2C1_DO_SEND_RESTART_WRITE *
                   _I2C1_DO_SEND_STOP *
                   _I2C1_MasterIsNack *
                   _I2C1_MasterSendTxData *
                   _rd1RegCompleteHandler *
                   _rd2RegCompleteHandler *
                   _rdBlkRegCompleteHandler *
                   _wr1RegCompleteHandler *
                   _wr2RegCompleteHandler *
                 _I2C1_DO_TX_EMPTY *
                   Absolute function(Fake) *
                   _I2C1_CallbackReturnReset *
                   _I2C1_CallbackReturnStop *
                   _I2C1_DO_SEND_RESTART *
                   _I2C1_DO_SEND_STOP *
                   _I2C1_MasterSetIrq *
                   _rd1RegCompleteHandler *
                   _rd2RegCompleteHandler *
                   _rdBlkRegCompleteHandler *
                   _wr1RegCompleteHandler *
                   _wr2RegCompleteHandler *
                 _I2C1_MasterClearIrq *
                 _I2C1_MasterIsNack *
               _I2C1_MasterWaitForEvent
         _I2C1_Open
           _I2C1_MasterClearIrq
           _I2C1_MasterOpen
         _I2C1_SetAddressNackCallback
           _I2C1_SetCallback
         _I2C1_SetBuffer
     _LCD_CMD
       _LCD_Write_4Bit
         _IO_Expander_Write
         _IO_pulseEnable
           _IO_Expander_Write
     _LCD_Write_4Bit
   _SYSTEM_Initialize
     _ADC_Initialize
     _I2C1_Initialize
     _OSCILLATOR_Initialize
     _PIN_MANAGER_Initialize
     _WDT_Initialize
   ___awdiv
   ___awmod
   ___flmul
     __Umul8_16
     ___xxtofl (ARG)
   ___fltol
     ___flmul (ARG)
     ___xxtofl (ARG)
   ___xxtofl

 Address spaces:
Name               Size   Autos  Total    Cost      Usage
BIGRAM             170      0       0       0        0.0%
EEDATA             100      0       0       0        0.0%
NULL                 0      0       0       0        0.0%
CODE                 0      0       0       0        0.0%
BITCOMMON            E      0       0       1        0.0%
BITSFR0              0      0       0       1        0.0%
SFR0                 0      0       0       1        0.0%
COMMON               E      E       E       2      100.0%
BITSFR1              0      0       0       2        0.0%
SFR1                 0      0       0       2        0.0%
BITSFR2              0      0       0       3        0.0%
SFR2                 0      0       0       3        0.0%
STACK                0      0       0       3        0.0%
BITSFR3              0      0       0       4        0.0%
SFR3                 0      0       0       4        0.0%
ABS                  0      0      6E       4        0.0%
BITBANK0            50      0       0       5        0.0%
BITSFR4              0      0       0       5        0.0%
SFR4                 0      0       0       5        0.0%
BANK0               50     28      43       6       83.8%
BITSFR5              0      0       0       6        0.0%
SFR5                 0      0       0       6        0.0%
BITBANK1            50      0       0       7        0.0%
BITSFR6              0      0       0       7        0.0%
SFR6                 0      0       0       7        0.0%
BANK1               50      0      1D       8       36.2%
BITSFR7              0      0       0       8        0.0%
SFR7                 0      0       0       8        0.0%
BITBANK2            50      0       0       9        0.0%
BITSFR8              0      0       0       9        0.0%
SFR8                 0      0       0       9        0.0%
BANK2               50      0       0      10        0.0%
BITSFR9              0      0       0      10        0.0%
SFR9                 0      0       0      10        0.0%
BITBANK3            50      0       0      11        0.0%
BITSFR10             0      0       0      11        0.0%
SFR10                0      0       0      11        0.0%
BANK3               50      0       0      12        0.0%
BITSFR11             0      0       0      12        0.0%
SFR11                0      0       0      12        0.0%
BITBANK4            30      0       0      13        0.0%
BITSFR12             0      0       0      13        0.0%
SFR12                0      0       0      13        0.0%
BANK4               30      0       0      14        0.0%
BITSFR13             0      0       0      14        0.0%
SFR13                0      0       0      14        0.0%
BITSFR14             0      0       0      15        0.0%
SFR14                0      0       0      15        0.0%
DATA                 0      0      6E      15        0.0%
BITSFR15             0      0       0      16        0.0%
SFR15                0      0       0      16        0.0%
BITSFR16             0      0       0      17        0.0%
SFR16                0      0       0      17        0.0%
BITSFR17             0      0       0      18        0.0%
SFR17                0      0       0      18        0.0%
BITSFR18             0      0       0      19        0.0%
SFR18                0      0       0      19        0.0%
BITSFR19             0      0       0      20        0.0%
SFR19                0      0       0      20        0.0%
BITSFR20             0      0       0      21        0.0%
SFR20                0      0       0      21        0.0%
BITSFR21             0      0       0      22        0.0%
SFR21                0      0       0      22        0.0%
BITSFR22             0      0       0      23        0.0%
SFR22                0      0       0      23        0.0%
BITSFR23             0      0       0      24        0.0%
SFR23                0      0       0      24        0.0%
BITSFR24             0      0       0      25        0.0%
SFR24                0      0       0      25        0.0%
BITSFR25             0      0       0      26        0.0%
SFR25                0      0       0      26        0.0%
BITSFR26             0      0       0      27        0.0%
SFR26                0      0       0      27        0.0%
BITSFR27             0      0       0      28        0.0%
SFR27                0      0       0      28        0.0%
BITSFR28             0      0       0      29        0.0%
SFR28                0      0       0      29        0.0%
BITSFR29             0      0       0      30        0.0%
SFR29                0      0       0      30        0.0%
BITSFR30             0      0       0      31        0.0%
SFR30                0      0       0      31        0.0%
BITSFR31             0      0       0      32        0.0%
SFR31                0      0       0      32        0.0%


Microchip Technology PIC Macro Assembler V2.35 build 20211206165544 
Symbol Table                                                                                   Thu Mar 31 10:43:29 2022

                                   _x 005C                                    l90 0F6C  
                                  l93 0F7D                                    l69 00AC  
                                  l96 0F8E                                    l99 0F5B  
                                  _a0 005A                                    _a1 0058  
                                  _b0 0056                                    _b1 0054  
                                  _c0 0052                                    _RS 0060  
                                  _c1 0050                          ___awdiv@sign 0076  
                 __Umul8_16@word_mpld 0076                                   l102 0FE3  
                                 l310 0FFF                                   l302 0EE6  
                                 l127 0018                                   l151 0F4A  
                                 l305 016E                                   l322 0EA4  
                                 l306 016F                                   l154 0EC4  
                                 l180 0E46                                   l332 0EF3  
                                 l316 003B                                   l501 0E69  
                                 l405 0135                                   l157 0E6D  
                                 l174 0ED4                                   l423 0E7C  
                                 l504 0E65                                   l432 0E8B  
                                 l329 0F2A                                   l441 0E9A  
                                 l522 0E49                                   l362 0E77  
                                 l426 0E81                                   l450 00D8  
                                 l338 0F1A                                   l371 0241  
                                 l435 0E90                                   l355 0F00  
                                 l444 0E9F                                   l532 0EB0  
                                 l349 0084                                   l461 0E43  
                                 l525 0E61                                   l365 0EDD  
                                 l429 0E86                                   l374 025D  
                                 l438 0E95                                   l519 0E4F  
                                 l359 0106                                   l471 0F0D  
                                 l480 0E72                                   l368 0ECC  
                                 l528 0EAB                                   l474 0E4C  
                                 l458 0E41                                   l483 0E55  
                                 l387 018D                                   l563 03BA  
                                 l492 0E52                                   l388 01B5  
                                 l572 0F3A                                   l477 0E5E  
                                 l566 0FB5                                   l495 0E58  
                                 l399 0EBD                                   l575 0FCB  
                                 l489 0E5B                                   l569 0FA1  
                                 l665 0480                                   l498 0EAA  
                                 l669 050C                                   l990 0208  
                                 l977 02BC                __end_of_IO_pulseEnable 0FA2  
               ?_I2C1_MasterOperation 0070                          ___awmod@sign 0076  
                                 wreg 0009                ?_I2C1_MasterSendTxData 0070  
                _I2C1_DO_RX_NACK_STOP 0E91                          ___flmul@aexp 0032  
           ?_I2C1_MasterEnableRestart 0070                          ___flmul@bexp 0033  
                        ___flmul@sign 002D                          ___flmul@temp 0038  
                        ___flmul@prod 0034                  I2C1_SetBuffer@buffer 0073  
                     __end_of_LCD_CMD 0FCC                          ___fltol@exp1 0044  
                                l1025 031C                                  l1018 0331  
                                l1028 0331               ??_rd2RegCompleteHandler 007A  
                                l1221 07E8                                  l3000 0357  
                                l1240 004E                                  l1233 07DC  
                                l3010 0372                                  l3002 035F  
                                l1242 005E                                  l1227 0764  
                                l3020 038A                                  l3012 0376  
                                l3004 0363                                  l3030 03AD  
                                l3022 0393                                  l3014 0379  
                                l3006 036B                                  l3110 01C2  
                                l3102 01B6                                  l1271 0418  
                                l3032 03B1                                  l3024 0397  
                                l3016 037D                                  l3008 036F  
                                l3120 01D9                                  l3112 01C6  
                                l3104 01B7                                  l3200 05CA  
                                l1265 03DD                                  l3026 03A0  
                                l3018 0386                                  l3130 01F4  
                                l3122 01DD                                  l3114 01CB  
                                l3106 01BB                                  l3210 05DF  
                                l3202 05CB                                  l1267 0466  
                                l2500 0060                                  l3028 03A4  
                                l3060 025F                                  l3124 01E1  
                                l3116 01D1                                  l3132 01FA  
                                l3108 01C0                                  l3300 07BB  
                                l3220 05FA                                  l3212 05E7  
                                l3204 05D0                                  l3140 02BD  
                                l2510 0F21                                  l2502 0066  
                                l3070 0273                                  l3062 0263  
                                l3134 01FF                                  l3126 01EB  
                                l3118 01D4                                  l3310 07D8  
                                l3302 07C4                                  l3230 0655  
                                l3222 0607                                  l3214 05EC  
                                l3206 05D5                                  l3150 02E6  
                                l3142 02C9                                  l1278 0432  
                                l1279 043E                                  l2512 0F29  
                                l2504 0077                                  l2520 0F5C  
                                l2600 0E59                                  l3080 0287  
                                l3072 0277                                  l3064 0268  
                                l3136 0204                                  l3128 01EF  
                                l3312 07E0                                  l3304 07C6  
                                l3240 068A                                  l3232 0662  
                                l3224 0614                                  l3216 05F1  
                                l3208 05DD                                  l3152 02EE  
                                l3320 03C5                                  l2514 0E53  
                                l2506 0EE7                                  l2522 0F64  
                                l2530 0F75                                  l2610 0E40  
                                l2602 0E82                                  l3090 02A3  
                                l3082 028B                                  l3074 0279  
                                l3066 026A                                  l3058 025E  
                                l3306 07D3                                  l3250 06CD  
                                l3242 0697                                  l3234 066F  
                                l3226 062E                                  l3170 0313  
                                l3162 02FC                                  l3154 02F0  
                                l3146 02D2                                  l3330 03F3  
                                l3322 03D5                                  l2516 0E56  
                                l2508 0F1C                                  l2524 0F6B  
                                l2532 0F7C                                  l2540 0F8D  
                                l2620 0E73                                  l2604 0E85  
                                l3092 02A8                                  l3084 028F  
                                l3076 027F                                  l3068 026E  
                                l3308 07D7                                  l3260 0721  
                                l3252 06DA                                  l3244 069E  
                                l3236 0676                                  l3228 063B  
                                l3180 059C                                  l3172 0321  
                                l3156 02F4                                  l3164 030C  
                                l3148 02E5                                  l3340 041F  
                                l3332 03FE                                  l3324 03E5  
                                l3316 03BC                                  l2614 0E42  
                                l2518 0E62                                  l2622 0E75  
                                l2630 0ED7                                  l2702 0197  
                                l2710 0EB7                                  l3086 029E  
                                l3078 0282                                  l3094 02AE  
                                l3270 0740                                  l3262 072D  
                                l3254 06EE                                  l3246 06B2  
                                l3238 0683                                  l3190 05B3  
                                l3182 05A0                                  l3174 0326  
                                l3350 0454                                  l3342 0428  
                                l3334 0405                                  l3318 03C1  
                                l2544 0F4B                                  l2528 0F6D  
                                l2536 0F7E                                  l2552 0FCC  
                                l2608 0E5F                                  l2720 010A  
                                l2624 0E76                                  l2632 0EDC  
                                l2640 0ECB                                  l2712 0EB9  
                                l2800 0EFB                                  l3096 02B3  
                                l3088 02A2                                  l3280 0761  
                                l3264 0734                                  l3272 0744  
                                l3256 0703                                  l3248 06B9  
                                l3192 05B5                                  l3184 05A1  
                                l3176 0592                                  l3352 0459  
                                l3344 042C                                  l3336 0409  
                                l3328 03EE                                  l3600 0485  
                                l2618 0E47                                  l2546 0F53  
                                l2538 0F86                                  l2554 0FE2  
                                l2562 0E6F                                  l2730 0113  
                                l2714 0EBC                                  l2570 0E7D  
                                l2810 0F0C                                  l2802 0F01  
                                l3098 02B8                                  l3290 077A  
                                l3274 0748                                  l3266 0738  
                                l3258 071A                                  l3194 05BD  
                                l3186 05A6                                  l3178 0598  
                                l3354 045D                                  l3346 0436  
                                l3338 0411                                  l3602 0504  
                                l2548 0F5A                                  l2724 010E  
                                l2628 0ED5                                  l2636 0EC5  
                                l2652 0216                                  l2644 0209  
                                l2564 0E78                                  l2572 0E80  
                                l2820 0022                                  l2804 0F06  
                                l2900 009A                                  l3292 0792  
                                l3284 0769                                  l3276 0749  
                                l3268 0739                                  l3196 05C2  
                                l3188 05AB                                  l3356 045E  
                                l3348 0440                                  l3604 0509  
                                l2814 0E4D                                  l2582 0E5C  
                                l2558 0EA5                                  l2726 0111  
                                l2718 0107                                  l2638 0EC7  
                                l2670 025C                                  l2662 021E  
                                l2566 0E7B                                  l2590 0E99  
                                l2750 0E9B                                  l2830 0033  
                                l2822 0023                                  l2806 0F07  
                                l2902 00A1                                  l2910 0F91  
                                l3286 076E                                  l3294 0796  
                                l3278 074D                                  l3198 05C6  
                                l3606 0511                                  l2816 0E4A  
                                l2736 0117                                  l2664 0243  
                                l2656 021A                                  l2648 0212  
                                l3720 01A7                                  l2680 017A  
                                l2576 0E87                                  l2744 0E8C  
                                l2752 0E9D                                  l2760 00AF  
                                l2832 0036                                  l2824 0025  
                                l2808 0F09                                  l2840 013E  
                                l2904 00A4                                  l2912 0F96  
                                l2920 0F35                                  l3296 07A3  
                                l3288 0776                                  l2586 0E66  
                                l2666 024F                                  l3722 0233  
                                l2682 017E                                  l2578 0E8A  
                                l2746 0E8F                                  l2594 0E91  
                                l2754 0E9E                                  l2762 00B4  
                                l2826 002A                                  l2834 0039  
                                l2818 001B                                  l2850 0152  
                                l2842 0142                                  l2906 0FA4  
                                l2914 0F9D                                  l2930 0010  
                                l2922 0004                                  l3298 07AD  
                                l3724 0127                                  l2668 025A  
                                l2692 018F                                  l2684 0188  
                                l2596 0E94                                  l2588 0E96  
                                l2772 00BC                                  l2828 002E  
                                l2860 0162                                  l2852 0153  
                                l2844 0143                                  l2908 0FA9  
                                l2916 0F2D                                  l2940 0EDE  
                                l2932 0012                                  l2924 0007  
                                l2686 018B                                  l2678 0170  
                                l3718 00D0                                  l2766 00B8  
                                l2758 00AD                                  l2790 00EF  
                                l2782 00D9                                  l2862 0167  
                                l2854 0158                                  l2846 0144  
                                l2838 0137                                  l2870 0F0E  
                                l2918 0F31                                  l2942 0EE0  
                                l2950 0EC1                                  l2934 0013  
                                l2926 000A                                  l3590 046D  
                                l2880 0FEC                                  l2792 0E50  
                                l2696 0193                                  l2784 00DC  
                                l2872 0EA0                                  l2864 016A  
                                l2856 015C                                  l2848 014D  
                                l2960 0ED1                                  l2944 0EE2  
                                l2952 0EC2                                  l2936 0015  
                                l2928 000E                                  l3592 0471  
                                l2882 0FF0                                  l2890 0FFE  
                                l2786 00E1                                  l2794 0EF4  
                                l2866 016D                                  l2858 0161  
                                l2962 0FB8                                  l2946 0EE5  
                                l2938 0017                                  l2954 0E6A  
                                l3594 0476                                  l2884 0FF3  
                                l2876 0FE4                                  l2788 00E9  
                                l2796 0EF5                                  l2964 0FB9  
                                l2956 0ECD                                  l2948 0EBE  
                                l2980 0055                                  l2972 003D  
                                l3596 047A                                  l3588 0467  
                                l2886 0FF6                                  l2878 0FEB  
                                l2798 0EF8                                  l2894 0087  
                                l2966 0FBE                                  l2990 0334  
                                l2958 0ED0                                  l2982 005A  
                                l2974 003F                                  l3598 047D  
                                l2888 0FF9                                  l2896 0087  
                                l2992 0341                                  l2976 0046  
                                l2898 0091                                  l2994 0345  
                                l2986 0F3B                                  l2978 004A  
                                l2988 0E44                                  l2996 0351  
                                l2998 0353                                  u1200 0188  
                                u1201 0187                                  u1210 0EB0  
                                u2010 042C                                  u1211 0EAF  
                                u2011 042B                                  u1220 00E1  
                                u1300 0091                                  u2020 0432  
                                u1221 00E0                                  u1301 0090  
                                u2021 0431                                  u2005 0422  
                                u1230 00E9                                  u1310 00AC  
                                u2030 0436                                  u1231 00E8  
                                u1311 00AB                                  u2031 0435  
                                u1160 0066                                  u1240 0F00  
                                u1400 027F                                  u2040 044A  
                                u1161 0065                                  u1241 0EFF  
                                u1401 027E                                  u1170 0F21  
                                u1250 0F06                                  u2050 0459  
                                u1171 0F20                                  u1251 0F05  
                                u2051 0458                                  u1180 0211  
                                u1260 0022                                  u1420 028F  
                                u1500 01D1                                  u1340 004A  
                                u2060 045D                                  u1181 0210  
                                u1261 0021                                  u1325 0FC2  
                                u1421 028E                                  u1501 01D0  
                                u1341 0049                                  u2061 045C  
                                u2045 0446                                  _LATA 010C  
                                u1190 025A                                  u1270 002A  
                                _LATB 010D                                  u1191 0259  
                                u1271 0029                                  u1415 0283  
                                u1280 013E                                  u1440 029E  
                                u1520 01E1                                  u1360 005A  
                                u1600 02FB                                  u1281 013D  
                                u1441 029D                                  u1521 01E0  
                                u1361 0059                                  u1601 02FA  
                                u1290 0FEB                                  u1530 01EB  
                                u1291 0FEA                                  u2307 033C  
                                u1435 0290                                  u1531 01EA  
                                u1515 01D5                                  u1355 004F  
                                u1460 02AE                                  u1380 0263  
                                u1700 05CA                                  u1620 030B  
                                u2317 034B                                  u1461 02AD  
                                u1445 029A                                  u1381 0262  
                                u1701 05C9                                  u1621 030A  
                                u1470 02B3                                  u1390 026E  
                                u1550 01FA                                  u1710 05D0  
                                u1630 0312                                  u2270 047A  
                                u2407 03B5                                  u2327 035B  
                                u1471 02B2                                  u1455 02A4  
                                u1391 026D                                  u1551 01F9  
                                u1535 01E7                                  u1711 05CF  
                                u1631 0311                                  u1615 02FD  
                                u2271 0479                                  u1560 01FF  
                                u1480 01BB                                  u1720 05D5  
                                u2280 0485                                  u2417 0F9E  
                                u2337 0367                                  u1561 01FE  
                                u1545 01F0                                  u1481 01BA  
                                u1721 05D4                                  u2281 0484  
                                u1490 01C6                                  u1810 0738  
                                u1730 05EC                                  u1650 0321  
                                u1570 02C9                                  u2290 0511  
                                u2347 0370                                  u1491 01C5  
                                u1811 0737                                  u1731 05EB  
                                u1651 0320                                  u1571 02C8  
                                u2291 0510                                  u1900 07A3  
                                u1740 05F1                                  u1660 0326  
                                u1580 02DF                                  u2357 0377  
                                u1901 07A2                                  u1805 072E  
                                u1741 05F0                                  u1661 0325  
                                u1645 0314                                  u1910 07BB  
                                u1830 0748                                  u1670 05A0  
                                u1590 02F4                                  u2367 0381  
                                u1911 07BA                                  u1831 0747  
                                u1671 059F                                  u1591 02F3  
                                u1920 07D7                                  u1840 074D  
                                u1680 05A6                                  u2377 038E  
                                u1921 07D6                                  u1905 079F  
                                u1841 074C                                  u1825 073A  
                                u1681 05A5                                  u1585 02DB  
                                u1850 0761                                  u1770 06F9  
                                u1690 05AB                                  u1930 03C1  
                                u2387 039B                                  u1915 07B7  
                                u1851 0760                                  u1755 0670  
                                u1691 05AA                                  u1931 03C0  
                                u1860 0768                                  u1780 0710  
                                u1940 03C5                                  u2397 03A8  
                                u1861 0767                                  u1765 069F  
                                u1941 03C4                                  u1870 076E  
                                u1950 03E5                                  u1871 076D  
                                u1775 06F5                                  u1951 03E4  
                                u1880 077A                                  u1881 0779  
                                u1785 070C                                  u1890 0788  
                                u1970 0404                                  u1795 071B  
                                u1971 0403                                  u1965 03F8  
                                u1990 041E                                  u1895 0784  
                                u1991 041D                                  u1985 0412  
                                _WPUA 020C                                  _WPUB 020D  
             ??_wr2RegCompleteHandler 007A                      ??_I2C1_MasterFsm 0020  
           ??_I2C1_CallbackReturnStop 007A                                  _main 0467  
                                fsr0h 0005                                  fsr1h 0007  
                                indf0 0000                                  fsr0l 0004  
                                indf1 0001                                  fsr1l 0006  
                                btemp 007E                                  start 0002  
                    ??_I2C1_SetBuffer 0072         I2C1_CallbackReturnStop@funPtr 0079  
                    __end_of_LCD_Init 03BB         __end_of_OSCILLATOR_Initialize 0EC5  
                       ___fltol@sign1 0043                     __end_of_I2C1_Open 0170  
                               ?_main 0070                       __end_of___awdiv 02BD  
                     __end_of___awmod 0209                       __end_of___flmul 07E9  
                     __end_of___fltol 0332                       ___awdiv@divisor 0070  
                     ___awdiv@counter 0075            __end_of_i2c1_fsmStateTable 0820  
                     ?_IO_pulseEnable 0070                                 _TRISA 008C  
                               _TRISB 008D                ??_I2C1_MasterGetRxData 0070  
               ?_I2C1_DO_RX_NACK_STOP 0070            ??_I2C1_CallbackReturnReset 007A  
                   ??_I2C1_MasterOpen 0070                     ??_I2C1_MasterStop 0070  
                   ??_I2C1_Initialize 0070                        _WDT_Initialize 0E6A  
                               pclath 000A                                 status 0003  
                               wtemp0 007E                          ??_I2C1_DO_RX 007A  
                        ??_I2C1_DO_TX 007A                ??_I2C1_DO_ADDRESS_NACK 007A  
                        ??_I2C1_Close 0070                        _LCD_Write_4Bit 0F2B  
                     __initialization 07E9                          __end_of_main 0592  
                   _IO_Expander_Write 0FA2                    ?_IO_Expander_Write 0070  
              ??_I2C1_MasterOperation 007D                                ??_main 0045  
                           ??_LCD_CMD 002F                    __end_of_I2C1_DO_RX 01B6  
                  __end_of_I2C1_DO_TX 025E                __end_of_WDT_Initialize 0E6E  
                 ??_IO_Expander_Write 0029                    __end_of_I2C1_Close 1000  
            __end_of_I2C1_WriteNBytes 00AD                                _ADCON0 009D  
                              _ADCON1 009E                                _ADRESH 009C  
                              _ADRESL 009B                      ___awdiv@dividend 0072  
                              _ANSELA 018C                                _ANSELB 018D  
                              _BORCON 0116                                _OSCCON 0099  
                              _WDTCON 0097                     ?_I2C1_MasterClose 0070  
              __end_of_LCD_Write_4Bit 0F3B                      __end_of___xxtofl 0467  
             ??_I2C1_MasterDisableIrq 0070                     ?_I2C1_MasterStart 0070  
                   ?_I2C1_MasterWrite 0070              ?_I2C1_MasterWaitForEvent 0070  
                  ??_I2C1_MasterClose 0070                      _I2C1_DO_TX_EMPTY 0107  
                  ??_I2C1_MasterStart 0070                    ??_I2C1_MasterWrite 007E  
           __end_of_IO_Expander_Write 0FB6                             ??___awdiv 0074  
                           ??___awmod 0074                             ??___flmul 0028  
                           ??___fltol 003E                      ___awdiv@quotient 0077  
                     ___awmod@divisor 0070                                _resto0 004E  
                              _resto1 004C                       ___awmod@counter 0075  
            ??_I2C1_DO_SEND_ADR_WRITE 0071                     ?_I2C1_SetCallback 0070  
              ??_I2C1_DO_RX_NACK_STOP 0070                 _I2C1_DO_SEND_ADR_READ 0ED5  
       ?_I2C1_SetDataCompleteCallback 0075                    ??_I2C1_SetCallback 0073  
                     ?_WDT_Initialize 0070               _I2C1_DO_RX_NACK_RESTART 0E96  
                 I2C1_WriteNBytes@len 0026                          ___xxtofl@arg 007A  
                        ___xxtofl@exp 0079                     _SYSTEM_Initialize 0F3B  
                        ___xxtofl@val 0070        I2C1_SetDataCompleteCallback@cb 0075  
             __end_of__initialization 07FD                             ?_LCD_Init 0070  
                     ?_LCD_Write_4Bit 0070       I2C1_MasterOperation@returnValue 0024  
                  ?_SYSTEM_Initialize 0070                            ___fltol@f1 003A  
                       ??_I2C1_Poller 007D               _rdBlkRegCompleteHandler 0FCC  
                      __pcstackCOMMON 0070                          __pidataBANK0 0E3F  
                 ??_SYSTEM_Initialize 0070      __end_of_I2C1_MasterEnableRestart 0E56  
        ??_I2C1_DO_SEND_RESTART_WRITE 0070               ??_I2C1_MasterSendTxData 0070  
                      _OPTION_REGbits 0095                 __end_of_I2C1_DO_RESET 0EA0  
           __end_of_SYSTEM_Initialize 0F4B                            __pbssBANK0 0048  
                          __pbssBANK1 00A0       __end_of_I2C1_MasterWaitForEvent 0EB1  
       __end_of_rd2RegCompleteHandler 0F7E                            ??_LCD_Init 0031  
                I2C1_Open@returnValue 0072         __end_of_wr2RegCompleteHandler 0F5C  
               _rd1RegCompleteHandler 0F5C                     _I2C1_DO_SEND_STOP 0E87  
                   __end_of__Umul8_16 005F                 _wr1RegCompleteHandler 0F7E  
                          __pmaintext 0467              rd1RegCompleteHandler@ptr 0079  
                  ?_I2C1_DO_SEND_STOP 0070                       _I2C1_MasterOpen 0F01  
                     _I2C1_MasterStop 0E56                       _I2C1_Initialize 0EDE  
                    ??_IO_pulseEnable 007E                   __end_of_I2C1_Poller 0F01  
                             _APFCON0 011D                               _APFCON1 011E  
              ?_I2C1_DO_SEND_ADR_READ 0070                   ??_I2C1_DO_SEND_STOP 0070  
                             _LCD_CMD 0FB6                             ?___xxtofl 0070  
                   _I2C1_MasterIsNack 0EA5                             _I2C1_Open 0136  
           ??_I2C1_DO_RX_NACK_RESTART 0070                               _OSCTUNE 0098  
                   _I2C1_MasterSetIrq 0E5F                               _SSP1ADD 0212  
                             _SSP1BUF 0211                    ?_I2C1_MasterIsNack 0070  
          ?_I2C1_DO_SEND_RESTART_READ 0070        ??_I2C1_SetDataCompleteCallback 0078  
                  ?_I2C1_MasterSetIrq 0070                    _i2c1_fsmStateTable 0800  
                 ??_I2C1_MasterIsNack 0070             __end_of_I2C1_DO_SEND_STOP 0E8C  
           ??_rdBlkRegCompleteHandler 007A                    I2C1_SetCallback@cb 0070  
                             _i2c_add 0061                   ??_I2C1_MasterSetIrq 0070  
                _ADC_InterruptHandler 005E                               ___awdiv 025E  
                             ___awmod 01B6                               ___flmul 0592  
                             ___fltol 02BD                         ?_I2C1_DO_IDLE 0070  
                       ?_I2C1_DO_RCEN 0070                   IO_Expander_Write@dt 002B  
                             __ptext1 03BB                               __ptext2 02BD  
                             __ptext3 0592                               __ptext4 003C  
                             __ptext5 01B6                               __ptext6 025E  
                             __ptext7 0F3B                               __ptext8 0E6A  
                             __ptext9 0004              _I2C1_MasterEnableRestart 0E53  
           __end_of_I2C1_MasterIsNack 0EAB          ?_I2C1_SetAddressNackCallback 0075  
               _OSCILLATOR_Initialize 0EBE             __end_of_I2C1_MasterSetIrq 0E62  
                          ??___xxtofl 0074              __end_of_I2C1_DO_TX_EMPTY 0136  
                    ___awmod@dividend 0072              ??_PIN_MANAGER_Initialize 0070  
            wr1RegCompleteHandler@ptr 0079                            ?_I2C1_Open 0070  
            ?_I2C1_CallbackReturnStop 0079                     ?_I2C1_WriteNBytes 0025  
                             clrloop0 0EB2     __end_of_I2C1_DO_SEND_RESTART_READ 0E7D  
                end_of_initialization 07FD            __end_of_I2C1_MasterSendAck 0E6A  
                 _I2C1_MasterClearIrq 0E47                    ??_I2C1_WriteNBytes 007E  
          __end_of_I2C1_MasterStartRx 0E5C                ?_rd1RegCompleteHandler 0079  
              _I2C1_DO_SEND_ADR_WRITE 0EC5          __end_of_I2C1_DO_SEND_RESTART 0E87  
             __end_of_I2C1_MasterOpen 0F0E                ?_wr1RegCompleteHandler 0079  
             __end_of_I2C1_MasterStop 0E59               __end_of_I2C1_Initialize 0EE7  
                         _I2C1_Poller 0EF4             ?_I2C1_CallbackReturnReset 0079  
       __end_of_I2C1_MasterDisableIrq 0E50                           _I2C1_Status 00A0  
                 _I2C1_MasterSendNack 0E62   __end_of_I2C1_SetAddressNackCallback 0F1B  
         _I2C1_SetAddressNackCallback 0F0E                  ?_I2C1_MasterClearIrq 0070  
                      ??_I2C1_DO_IDLE 0070                        ??_I2C1_DO_RCEN 0070  
  __end_of_I2C1_DO_SEND_RESTART_WRITE 0E82            _I2C1_DO_SEND_RESTART_WRITE 0E7D  
                    ??_WDT_Initialize 0070       __end_of_rdBlkRegCompleteHandler 0FE4  
                          LCD_CMD@CMD 0030                  I2C1_WriteNBytes@data 0025  
       ??_I2C1_SetAddressNackCallback 0078                         ___xxtofl@sign 0078  
                          _risultato0 004A                            _risultato1 0048  
     I2C1_SetDataCompleteCallback@ptr 0077                   _ADC_StartConversion 0E44  
      I2C1_CallbackReturnReset@funPtr 0079                  ?_I2C1_MasterSendNack 0070  
                    ??_LCD_Write_4Bit 002D                           ___flmul@grs 002E  
          rdBlkRegCompleteHandler@ptr 0079                  ?_ADC_StartConversion 0070  
               ??_I2C1_MasterClearIrq 0070                    IO_pulseEnable@Data 002C  
                      _I2C1_DO_RX_ACK 0E8C                        _ADC_Initialize 0ECD  
              ?_OSCILLATOR_Initialize 0070       __end_of_I2C1_CallbackReturnStop 0E42  
       __end_of_I2C1_MasterSendTxData 0E73                   start_initialization 07E9  
                         ??_I2C1_Open 0070                 ??_I2C1_MasterSendNack 0070  
            I2C1_SetBuffer@bufferSize 0070                      ?_I2C1_MasterOpen 0070  
                    ?_I2C1_MasterStop 0070                      ?_I2C1_Initialize 0070  
               ??_ADC_StartConversion 0070                __end_of_I2C1_DO_RX_ACK 0E91  
             ??_I2C1_DO_SEND_ADR_READ 0070                __end_of_ADC_Initialize 0ED5  
                           __Umul8_16 003C                           __pdataBANK0 0062  
                    I2C1_Open@address 0071                              ?_LCD_CMD 0070  
                           ___flmul@a 0024                             ___flmul@b 0020  
                _I2C1_DO_SEND_RESTART 0E82                             ___latbits 0001  
                       __pcstackBANK0 0020           ??_I2C1_DO_SEND_RESTART_READ 0070  
                __end_of_I2C1_DO_IDLE 0E78                  __end_of_I2C1_DO_RCEN 0EBE  
       I2C1_SetAddressNackCallback@cb 0075                             __pnvBANK0 0061  
               _rd2RegCompleteHandler 0F6D                _PIN_MANAGER_Initialize 0004  
               _wr2RegCompleteHandler 0F4B                 IO_Expander_Write@Data 002A  
          ??_I2C1_MasterEnableRestart 0070              rd2RegCompleteHandler@ptr 0079  
                      _I2C1_MasterFsm 00D9                       ?_I2C1_DO_RX_ACK 0070  
                            ?___awdiv 0070                              ?___awmod 0070  
                            ?___flmul 0020                              ?___fltol 003A  
                          ?__Umul8_16 0070                       ?_ADC_Initialize 0070  
             _I2C1_MasterWaitForEvent 0EAB                      _I2C1_MasterClose 0E4A  
                      _I2C1_SetBuffer 0F1B                      _I2C1_MasterStart 0E50  
                    _I2C1_MasterWrite 0EA0                 ?_I2C1_DO_SEND_RESTART 0070  
                   ?_I2C1_DO_TX_EMPTY 0070      __end_of_I2C1_CallbackReturnReset 0E44  
                  ??_I2C1_DO_TX_EMPTY 007A               ??_rd1RegCompleteHandler 007A  
             ?_I2C1_DO_SEND_ADR_WRITE 0070             I2C1_MasterSendTxData@data 0070  
             ??_wr1RegCompleteHandler 007A                      _I2C1_SetCallback 005F  
                            _LCD_Init 0332                            _I2C1_DO_RX 0170  
                          _I2C1_DO_TX 0209                             clear_ram0 0EB1  
                            _PIE1bits 0091                            _I2C1_Close 0FE4  
                        ?_I2C1_Poller 0070                __end_of_I2C1_MasterFsm 0107  
        __end_of_I2C1_MasterGetRxData 0E5F                              _PIR1bits 0011  
                            _PIR2bits 0012                    _I2C1_MasterSendAck 0E66  
           _I2C1_DO_SEND_RESTART_READ 0E78                              _SSP1CON1 0215  
                            _SSP1CON2 0216                __end_of_I2C1_SetBuffer 0F2B  
                            _SSP1STAT 0214  __end_of_I2C1_SetDataCompleteCallback 0EF4  
        _I2C1_SetDataCompleteCallback 0EE7                    _I2C1_MasterStartRx 0E59  
         ?_I2C1_DO_SEND_RESTART_WRITE 0070                   ?_I2C1_MasterSendAck 0070  
                          _ADCON0bits 009D              ?_I2C1_DO_RX_NACK_RESTART 0070  
                 ?_I2C1_MasterStartRx 0070          __end_of_I2C1_DO_ADDRESS_NACK 00D9  
                  LCD_Write_4Bit@Data 002E              wr2RegCompleteHandler@ptr 0079  
      __end_of_I2C1_DO_SEND_ADR_WRITE 0ECD                         _I2C1_DO_RESET 0E9B  
               I2C1_Close@returnValue 0071              ?_rdBlkRegCompleteHandler 0079  
                 I2C1_SetCallback@idx 0074                   I2C1_SetCallback@ptr 0072  
                ??_I2C1_MasterSendAck 0070                ?_rd2RegCompleteHandler 0079  
        __end_of_I2C1_MasterOperation 003C                ?_wr2RegCompleteHandler 0079  
                ??_I2C1_MasterStartRx 0070                       ?_I2C1_MasterFsm 0070  
           ??_I2C1_MasterWaitForEvent 0070                 _I2C1_MasterDisableIrq 0E4D  
             ??_OSCILLATOR_Initialize 0070                           ??__Umul8_16 0072  
                     ?_I2C1_SetBuffer 0070                ??_I2C1_DO_SEND_RESTART 0070  
                            ___xxtofl 03BB                        ?_I2C1_DO_RESET 0070  
                            __ptext10 0EBE                              __ptext11 0EDE  
                            __ptext20 0136                              __ptext12 0ECD  
                            __ptext21 0F01                              __ptext13 0332  
                            __ptext30 0E91                              __ptext22 0EA0  
                            __ptext14 0FB6                              __ptext31 0E8C  
                            __ptext23 0019                              __ptext15 0F2B  
                            __ptext40 0ED5                              __ptext32 0E87  
                            __ptext24 0EF4                              __ptext16 0F8F  
                            __ptext41 0E73                              __ptext33 0E82  
                            __ptext25 0EAB                              __ptext17 0FA2  
                            __ptext50 0E42                              __ptext42 0107  
                            __ptext34 0E7D                              __ptext26 00D9  
                            __ptext18 0085                              __ptext51 0E40  
                            __ptext43 0E5F                              __ptext35 0E78  
                            __ptext27 00AD                              __ptext19 0F0E  
                            __ptext60 0E56                              __ptext52 0FCC  
                            __ptext44 0EA5                              __ptext36 0EB7  
                            __ptext28 0E9B                              __ptext61 0E53  
                            __ptext53 0F7E                              __ptext45 0E6E  
                            __ptext37 0170                              __ptext29 0E96  
                            __ptext62 0E50                              __ptext54 0F6D  
                            __ptext46 0E66                              __ptext38 0209  
                            __ptext63 0FE4                              __ptext55 0F5C  
                            __ptext47 0E5C                              __ptext39 0EC5  
                            __ptext64 0E4D                              __ptext56 0F4B  
                            __ptext48 0E62                              __ptext65 0E4A  
                            __ptext57 0EE7                              __ptext49 0E59  
                            __ptext66 0E47                              __ptext58 005F  
                            __ptext67 0E44                              __ptext59 0F1B  
                        _SSP1CON1bits 0215                          _SSP1CON2bits 0216  
            _I2C1_CallbackReturnReset 0E42                       _BackLight_State 0062  
                         ?_I2C1_DO_RX 0070                           ?_I2C1_DO_TX 0070  
         __end_of_I2C1_MasterClearIrq 0E4A          __end_of_I2C1_DO_RX_NACK_STOP 0E96  
                         ?_I2C1_Close 0070       __end_of_I2C1_DO_RX_NACK_RESTART 0E9B  
            I2C1_MasterOperation@read 0023                          _SSP1STATbits 0214  
       __end_of_I2C1_DO_SEND_ADR_READ 0EDE                          _I2C1_DO_IDLE 0E73  
                        _I2C1_DO_RCEN 0EB7           __end_of_I2C1_MasterSendNack 0E66  
      I2C1_SetAddressNackCallback@ptr 0077                  _I2C1_MasterGetRxData 0E5C  
               _I2C1_MasterSendTxData 0E6E              __end_of_I2C1_MasterClose 0E4D  
         __end_of_ADC_StartConversion 0E47               ?_PIN_MANAGER_Initialize 0070  
            __end_of_I2C1_MasterStart 0E53              __end_of_I2C1_MasterWrite 0EA5  
             I2C1_WriteNBytes@address 0028                      ??_I2C1_DO_RX_ACK 0070  
             _I2C1_CallbackReturnStop 0E40                      ??_ADC_Initialize 0070  
                _I2C1_DO_ADDRESS_NACK 00AD                ?_I2C1_MasterDisableIrq 0070  
                    _I2C1_WriteNBytes 0085                       LCD_Init@I2C_Add 0033  
                       __pstringtext1 0800              __end_of_I2C1_SetCallback 0085  
              __Umul8_16@multiplicand 0070                       ??_I2C1_DO_RESET 0070  
                _I2C1_MasterOperation 0019                 ?_I2C1_MasterGetRxData 0070  
                      _IO_pulseEnable 0F8F        __end_of_PIN_MANAGER_Initialize 0019  
       __end_of_rd1RegCompleteHandler 0F6D                  __Umul8_16@multiplier 0078  
       __end_of_wr1RegCompleteHandler 0F8F                 ?_I2C1_DO_ADDRESS_NACK 0070  
                   __Umul8_16@product 0074  
